
/Users/kaili/Code/Dreamdrive/Dreamcast/sw/rp2040/build/mcu2/dreamdrivecast_mcu2.elf:     file format elf32-littlearm

Sections:
Idx Name          Size      VMA       LMA       File off  Algn
  0 .boot2        00000100  10000000  10000000  00001000  2**0
                  CONTENTS, ALLOC, LOAD, READONLY, CODE
  1 .flashtext    000001d8  10000100  10000100  00001100  2**3
                  CONTENTS, ALLOC, LOAD, READONLY, CODE
  2 .rodata       00000000  100002d8  100002d8  0000d1c8  2**0
                  CONTENTS, ALLOC, LOAD, DATA
  3 .binary_info  00000020  100002d8  100002d8  000012d8  2**2
                  CONTENTS, ALLOC, LOAD, READONLY, DATA
  4 .ram_vector_table 000000c0  20000000  20000000  0000e000  2**2
                  ALLOC
  5 .text         00009a04  200000c0  100002f8  000020c0  2**2
                  CONTENTS, ALLOC, LOAD, READONLY, CODE
  6 .data         000016f8  20009ad0  10009cfc  0000bad0  2**4
                  CONTENTS, ALLOC, LOAD, CODE
  7 .uninitialized_data 00000000  2000b1c8  2000b1c8  0000d1c8  2**0
                  CONTENTS
  8 .scratch_x    00000000  20040000  20040000  0000d1c8  2**0
                  CONTENTS
  9 .scratch_y    00000000  20041000  20041000  0000d1c8  2**0
                  CONTENTS
 10 .bss          00000d8c  2000b1c8  2000b1c8  0000d1c8  2**3
                  ALLOC
 11 .heap         00000800  2000bf54  2000bf54  0000d1c8  2**2
                  CONTENTS, READONLY
 12 .stack1_dummy 00000800  20040000  20040000  0000e000  2**2
                  ALLOC
 13 .stack_dummy  00000800  20041000  20041000  0000d9e0  2**5
                  CONTENTS, READONLY
 14 .ARM.attributes 00000028  00000000  00000000  0000e1e0  2**0
                  CONTENTS, READONLY
 15 .comment      00000045  00000000  00000000  0000e208  2**0
                  CONTENTS, READONLY
 16 .debug_info   0001b55c  00000000  00000000  0000e24d  2**0
                  CONTENTS, READONLY, DEBUGGING, OCTETS
 17 .debug_abbrev 00006b3d  00000000  00000000  000297a9  2**0
                  CONTENTS, READONLY, DEBUGGING, OCTETS
 18 .debug_aranges 00001ba0  00000000  00000000  000302e8  2**3
                  CONTENTS, READONLY, DEBUGGING, OCTETS
 19 .debug_rnglists 00001478  00000000  00000000  00031e88  2**0
                  CONTENTS, READONLY, DEBUGGING, OCTETS
 20 .debug_line   00013a58  00000000  00000000  00033300  2**0
                  CONTENTS, READONLY, DEBUGGING, OCTETS
 21 .debug_str    00007bc3  00000000  00000000  00046d58  2**0
                  CONTENTS, READONLY, DEBUGGING, OCTETS
 22 .debug_frame  00004fe8  00000000  00000000  0004e91c  2**2
                  CONTENTS, READONLY, DEBUGGING, OCTETS
 23 .debug_line_str 00000322  00000000  00000000  00053904  2**0
                  CONTENTS, READONLY, DEBUGGING, OCTETS

/Users/kaili/Code/Dreamdrive/Dreamcast/sw/rp2040/build/mcu2/dreamdrivecast_mcu2.elf:     file format elf32-littlearm


Disassembly of section .boot2:

10000000 <__boot2_start__>:
10000000:	4b32b500 	.word	0x4b32b500
10000004:	60582021 	.word	0x60582021
10000008:	21026898 	.word	0x21026898
1000000c:	60984388 	.word	0x60984388
10000010:	611860d8 	.word	0x611860d8
10000014:	4b2e6158 	.word	0x4b2e6158
10000018:	60992100 	.word	0x60992100
1000001c:	61592102 	.word	0x61592102
10000020:	22f02101 	.word	0x22f02101
10000024:	492b5099 	.word	0x492b5099
10000028:	21016019 	.word	0x21016019
1000002c:	20356099 	.word	0x20356099
10000030:	f844f000 	.word	0xf844f000
10000034:	42902202 	.word	0x42902202
10000038:	2106d014 	.word	0x2106d014
1000003c:	f0006619 	.word	0xf0006619
10000040:	6e19f834 	.word	0x6e19f834
10000044:	66192101 	.word	0x66192101
10000048:	66182000 	.word	0x66182000
1000004c:	f000661a 	.word	0xf000661a
10000050:	6e19f82c 	.word	0x6e19f82c
10000054:	6e196e19 	.word	0x6e196e19
10000058:	f0002005 	.word	0xf0002005
1000005c:	2101f82f 	.word	0x2101f82f
10000060:	d1f94208 	.word	0xd1f94208
10000064:	60992100 	.word	0x60992100
10000068:	6019491b 	.word	0x6019491b
1000006c:	60592100 	.word	0x60592100
10000070:	481b491a 	.word	0x481b491a
10000074:	21016001 	.word	0x21016001
10000078:	21eb6099 	.word	0x21eb6099
1000007c:	21a06619 	.word	0x21a06619
10000080:	f0006619 	.word	0xf0006619
10000084:	2100f812 	.word	0x2100f812
10000088:	49166099 	.word	0x49166099
1000008c:	60014814 	.word	0x60014814
10000090:	60992101 	.word	0x60992101
10000094:	2800bc01 	.word	0x2800bc01
10000098:	4700d000 	.word	0x4700d000
1000009c:	49134812 	.word	0x49134812
100000a0:	c8036008 	.word	0xc8036008
100000a4:	8808f380 	.word	0x8808f380
100000a8:	b5034708 	.word	0xb5034708
100000ac:	20046a99 	.word	0x20046a99
100000b0:	d0fb4201 	.word	0xd0fb4201
100000b4:	42012001 	.word	0x42012001
100000b8:	bd03d1f8 	.word	0xbd03d1f8
100000bc:	6618b502 	.word	0x6618b502
100000c0:	f7ff6618 	.word	0xf7ff6618
100000c4:	6e18fff2 	.word	0x6e18fff2
100000c8:	bd026e18 	.word	0xbd026e18
100000cc:	40020000 	.word	0x40020000
100000d0:	18000000 	.word	0x18000000
100000d4:	00070000 	.word	0x00070000
100000d8:	005f0300 	.word	0x005f0300
100000dc:	00002221 	.word	0x00002221
100000e0:	180000f4 	.word	0x180000f4
100000e4:	a0002022 	.word	0xa0002022
100000e8:	10000100 	.word	0x10000100
100000ec:	e000ed08 	.word	0xe000ed08
	...
100000fc:	7a4eb274 	.word	0x7a4eb274

Disassembly of section .flashtext:

10000100 <__VECTOR_TABLE>:
10000100:	20042000 	.word	0x20042000
10000104:	100001f7 	.word	0x100001f7
10000108:	100001c3 	.word	0x100001c3
1000010c:	100001c5 	.word	0x100001c5
10000110:	100001c1 	.word	0x100001c1
10000114:	100001c1 	.word	0x100001c1
10000118:	100001c1 	.word	0x100001c1
1000011c:	100001c1 	.word	0x100001c1
10000120:	100001c1 	.word	0x100001c1
10000124:	100001c1 	.word	0x100001c1
10000128:	100001c1 	.word	0x100001c1
1000012c:	100001c7 	.word	0x100001c7
10000130:	100001c1 	.word	0x100001c1
10000134:	100001c1 	.word	0x100001c1
10000138:	100001c9 	.word	0x100001c9
1000013c:	100001cb 	.word	0x100001cb
10000140:	100001cd 	.word	0x100001cd
10000144:	100001cd 	.word	0x100001cd
10000148:	100001cd 	.word	0x100001cd
1000014c:	100001cd 	.word	0x100001cd
10000150:	100001cd 	.word	0x100001cd
10000154:	100001cd 	.word	0x100001cd
10000158:	100001cd 	.word	0x100001cd
1000015c:	100001cd 	.word	0x100001cd
10000160:	100001cd 	.word	0x100001cd
10000164:	100001cd 	.word	0x100001cd
10000168:	100001cd 	.word	0x100001cd
1000016c:	100001cd 	.word	0x100001cd
10000170:	100001cd 	.word	0x100001cd
10000174:	100001cd 	.word	0x100001cd
10000178:	100001cd 	.word	0x100001cd
1000017c:	100001cd 	.word	0x100001cd
10000180:	100001cd 	.word	0x100001cd
10000184:	100001cd 	.word	0x100001cd
10000188:	100001cd 	.word	0x100001cd
1000018c:	100001cd 	.word	0x100001cd
10000190:	100001cd 	.word	0x100001cd
10000194:	100001cd 	.word	0x100001cd
10000198:	100001cd 	.word	0x100001cd
1000019c:	100001cd 	.word	0x100001cd
100001a0:	100001cd 	.word	0x100001cd
100001a4:	100001cd 	.word	0x100001cd
100001a8:	100001cd 	.word	0x100001cd
100001ac:	100001cd 	.word	0x100001cd
100001b0:	100001cd 	.word	0x100001cd
100001b4:	100001cd 	.word	0x100001cd
100001b8:	100001cd 	.word	0x100001cd
100001bc:	100001cd 	.word	0x100001cd

100001c0 <isr_invalid>:
100001c0:	be00      	bkpt	0x0000

100001c2 <isr_nmi>:
100001c2:	be00      	bkpt	0x0000

100001c4 <isr_hardfault>:
100001c4:	be00      	bkpt	0x0000

100001c6 <isr_svcall>:
100001c6:	be00      	bkpt	0x0000

100001c8 <isr_pendsv>:
100001c8:	be00      	bkpt	0x0000

100001ca <isr_systick>:
100001ca:	be00      	bkpt	0x0000

100001cc <__unhandled_user_irq>:
100001cc:	f3ef 8005 	mrs	r0, IPSR
100001d0:	3810      	subs	r0, #16

100001d2 <unhandled_user_irq_num_in_r0>:
100001d2:	be00      	bkpt	0x0000

100001d4 <binary_info_header>:
100001d4:	7188ebf2 	.word	0x7188ebf2
100001d8:	100002d8 	.word	0x100002d8
100001dc:	100002f8 	.word	0x100002f8
100001e0:	10000234 	.word	0x10000234
100001e4:	e71aa390 	.word	0xe71aa390

100001e8 <_entry_point>:
100001e8:	2000      	movs	r0, #0
100001ea:	4922      	ldr	r1, [pc, #136]	@ (10000274 <hold_non_core0_in_bootrom+0xa>)
100001ec:	6008      	str	r0, [r1, #0]
100001ee:	c806      	ldmia	r0!, {r1, r2}
100001f0:	f381 8808 	msr	MSP, r1
100001f4:	4710      	bx	r2

100001f6 <_reset_handler>:
100001f6:	4820      	ldr	r0, [pc, #128]	@ (10000278 <hold_non_core0_in_bootrom+0xe>)
100001f8:	6800      	ldr	r0, [r0, #0]
100001fa:	2800      	cmp	r0, #0
100001fc:	d135      	bne.n	1000026a <hold_non_core0_in_bootrom>
100001fe:	a40d      	add	r4, pc, #52	@ (adr r4, 10000234 <data_cpy_table>)
10000200:	cc0e      	ldmia	r4!, {r1, r2, r3}
10000202:	2900      	cmp	r1, #0
10000204:	d002      	beq.n	1000020c <_reset_handler+0x16>
10000206:	f000 f812 	bl	1000022e <data_cpy>
1000020a:	e7f9      	b.n	10000200 <_reset_handler+0xa>
1000020c:	491b      	ldr	r1, [pc, #108]	@ (1000027c <hold_non_core0_in_bootrom+0x12>)
1000020e:	4a1c      	ldr	r2, [pc, #112]	@ (10000280 <hold_non_core0_in_bootrom+0x16>)
10000210:	2000      	movs	r0, #0
10000212:	e000      	b.n	10000216 <bss_fill_test>

10000214 <bss_fill_loop>:
10000214:	c101      	stmia	r1!, {r0}

10000216 <bss_fill_test>:
10000216:	4291      	cmp	r1, r2
10000218:	d1fc      	bne.n	10000214 <bss_fill_loop>

1000021a <platform_entry>:
1000021a:	491a      	ldr	r1, [pc, #104]	@ (10000284 <hold_non_core0_in_bootrom+0x1a>)
1000021c:	4788      	blx	r1
1000021e:	491a      	ldr	r1, [pc, #104]	@ (10000288 <hold_non_core0_in_bootrom+0x1e>)
10000220:	4788      	blx	r1
10000222:	491a      	ldr	r1, [pc, #104]	@ (1000028c <hold_non_core0_in_bootrom+0x22>)
10000224:	4788      	blx	r1
10000226:	be00      	bkpt	0x0000
10000228:	e7fd      	b.n	10000226 <platform_entry+0xc>

1000022a <data_cpy_loop>:
1000022a:	c901      	ldmia	r1!, {r0}
1000022c:	c201      	stmia	r2!, {r0}

1000022e <data_cpy>:
1000022e:	429a      	cmp	r2, r3
10000230:	d3fb      	bcc.n	1000022a <data_cpy_loop>
10000232:	4770      	bx	lr

10000234 <data_cpy_table>:
10000234:	100002f8 	.word	0x100002f8
10000238:	200000c0 	.word	0x200000c0
1000023c:	20009ac4 	.word	0x20009ac4
10000240:	10009cfc 	.word	0x10009cfc
10000244:	20009ad0 	.word	0x20009ad0
10000248:	2000b1c8 	.word	0x2000b1c8
1000024c:	1000b3f4 	.word	0x1000b3f4
10000250:	20040000 	.word	0x20040000
10000254:	20040000 	.word	0x20040000
10000258:	1000b3f4 	.word	0x1000b3f4
1000025c:	20041000 	.word	0x20041000
10000260:	20041000 	.word	0x20041000
10000264:	00000000 	.word	0x00000000
10000268:	4770      	bx	lr

1000026a <hold_non_core0_in_bootrom>:
1000026a:	4809      	ldr	r0, [pc, #36]	@ (10000290 <hold_non_core0_in_bootrom+0x26>)
1000026c:	f000 f814 	bl	10000298 <__rom_func_lookup_veneer>
10000270:	4700      	bx	r0
10000272:	0000      	.short	0x0000
10000274:	e000ed08 	.word	0xe000ed08
10000278:	d0000000 	.word	0xd0000000
1000027c:	2000b1c8 	.word	0x2000b1c8
10000280:	2000bf54 	.word	0x2000bf54
10000284:	200038c1 	.word	0x200038c1
10000288:	2000060d 	.word	0x2000060d
1000028c:	200039d7 	.word	0x200039d7
10000290:	00005657 	.word	0x00005657
10000294:	00000000 	.word	0x00000000

10000298 <__rom_func_lookup_veneer>:
10000298:	b401      	push	{r0}
1000029a:	4802      	ldr	r0, [pc, #8]	@ (100002a4 <__rom_func_lookup_veneer+0xc>)
1000029c:	4684      	mov	ip, r0
1000029e:	bc01      	pop	{r0}
100002a0:	4760      	bx	ip
100002a2:	bf00      	nop
100002a4:	20003b07 	.word	0x20003b07

100002a8 <__bi_22>:
100002a8:	50520005 68f465de 1000b3f4              ..RP.e.h....

100002b4 <__bi_30>:
100002b4:	50520006 9da22254 2000ade4              ..RPT"..... 

100002c0 <__bi_38>:
100002c0:	50520006 02031c86 2000adf0              ..RP....... 

100002cc <__bi_50>:
100002cc:	50520006 5360b3ab 2000ae0c              ..RP..`S... 

Disassembly of section .text:

200000c0 <_init>:
200000c0:	b5f8      	push	{r3, r4, r5, r6, r7, lr}
200000c2:	46c0      	nop			@ (mov r8, r8)

200000c4 <register_tm_clones>:
200000c4:	4806      	ldr	r0, [pc, #24]	@ (200000e0 <register_tm_clones+0x1c>)
200000c6:	4907      	ldr	r1, [pc, #28]	@ (200000e4 <register_tm_clones+0x20>)
200000c8:	1a09      	subs	r1, r1, r0
200000ca:	108b      	asrs	r3, r1, #2
200000cc:	0fc9      	lsrs	r1, r1, #31
200000ce:	18c9      	adds	r1, r1, r3
200000d0:	b510      	push	{r4, lr}
200000d2:	1049      	asrs	r1, r1, #1
200000d4:	d003      	beq.n	200000de <register_tm_clones+0x1a>
200000d6:	4b04      	ldr	r3, [pc, #16]	@ (200000e8 <register_tm_clones+0x24>)
200000d8:	2b00      	cmp	r3, #0
200000da:	d000      	beq.n	200000de <register_tm_clones+0x1a>
200000dc:	4798      	blx	r3
200000de:	bd10      	pop	{r4, pc}
200000e0:	2000b1c8 	.word	0x2000b1c8
200000e4:	2000b1c8 	.word	0x2000b1c8
200000e8:	00000000 	.word	0x00000000

200000ec <frame_dummy>:
200000ec:	4b05      	ldr	r3, [pc, #20]	@ (20000104 <frame_dummy+0x18>)
200000ee:	b510      	push	{r4, lr}
200000f0:	2b00      	cmp	r3, #0
200000f2:	d003      	beq.n	200000fc <frame_dummy+0x10>
200000f4:	4904      	ldr	r1, [pc, #16]	@ (20000108 <frame_dummy+0x1c>)
200000f6:	4805      	ldr	r0, [pc, #20]	@ (2000010c <frame_dummy+0x20>)
200000f8:	e000      	b.n	200000fc <frame_dummy+0x10>
200000fa:	bf00      	nop
200000fc:	f7ff ffe2 	bl	200000c4 <register_tm_clones>
20000100:	bd10      	pop	{r4, pc}
20000102:	46c0      	nop			@ (mov r8, r8)
20000104:	00000000 	.word	0x00000000
20000108:	2000bce0 	.word	0x2000bce0
2000010c:	20009ac4 	.word	0x20009ac4

20000110 <gpio_set_dir_out_masked>:
20000110:	b580      	push	{r7, lr}
20000112:	b082      	sub	sp, #8
20000114:	af00      	add	r7, sp, #0
20000116:	6078      	str	r0, [r7, #4]
20000118:	23d0      	movs	r3, #208	@ 0xd0
2000011a:	061b      	lsls	r3, r3, #24
2000011c:	687a      	ldr	r2, [r7, #4]
2000011e:	625a      	str	r2, [r3, #36]	@ 0x24
20000120:	46c0      	nop			@ (mov r8, r8)
20000122:	46bd      	mov	sp, r7
20000124:	b002      	add	sp, #8
20000126:	bd80      	pop	{r7, pc}

20000128 <gpio_set_dir_in_masked>:
20000128:	b580      	push	{r7, lr}
2000012a:	b082      	sub	sp, #8
2000012c:	af00      	add	r7, sp, #0
2000012e:	6078      	str	r0, [r7, #4]
20000130:	23d0      	movs	r3, #208	@ 0xd0
20000132:	061b      	lsls	r3, r3, #24
20000134:	687a      	ldr	r2, [r7, #4]
20000136:	629a      	str	r2, [r3, #40]	@ 0x28
20000138:	46c0      	nop			@ (mov r8, r8)
2000013a:	46bd      	mov	sp, r7
2000013c:	b002      	add	sp, #8
2000013e:	bd80      	pop	{r7, pc}

20000140 <gpio_set_dir>:
20000140:	b580      	push	{r7, lr}
20000142:	b084      	sub	sp, #16
20000144:	af00      	add	r7, sp, #0
20000146:	6078      	str	r0, [r7, #4]
20000148:	000a      	movs	r2, r1
2000014a:	1cfb      	adds	r3, r7, #3
2000014c:	701a      	strb	r2, [r3, #0]
2000014e:	2201      	movs	r2, #1
20000150:	687b      	ldr	r3, [r7, #4]
20000152:	409a      	lsls	r2, r3
20000154:	0013      	movs	r3, r2
20000156:	60fb      	str	r3, [r7, #12]
20000158:	1cfb      	adds	r3, r7, #3
2000015a:	781b      	ldrb	r3, [r3, #0]
2000015c:	2b00      	cmp	r3, #0
2000015e:	d004      	beq.n	2000016a <gpio_set_dir+0x2a>
20000160:	68fb      	ldr	r3, [r7, #12]
20000162:	0018      	movs	r0, r3
20000164:	f7ff ffd4 	bl	20000110 <gpio_set_dir_out_masked>
20000168:	e003      	b.n	20000172 <gpio_set_dir+0x32>
2000016a:	68fb      	ldr	r3, [r7, #12]
2000016c:	0018      	movs	r0, r3
2000016e:	f7ff ffdb 	bl	20000128 <gpio_set_dir_in_masked>
20000172:	46c0      	nop			@ (mov r8, r8)
20000174:	46bd      	mov	sp, r7
20000176:	b004      	add	sp, #16
20000178:	bd80      	pop	{r7, pc}
	...

2000017c <set_sys_clock_khz>:
2000017c:	b580      	push	{r7, lr}
2000017e:	b086      	sub	sp, #24
20000180:	af00      	add	r7, sp, #0
20000182:	6078      	str	r0, [r7, #4]
20000184:	000a      	movs	r2, r1
20000186:	1cfb      	adds	r3, r7, #3
20000188:	701a      	strb	r2, [r3, #0]
2000018a:	230c      	movs	r3, #12
2000018c:	18fb      	adds	r3, r7, r3
2000018e:	2210      	movs	r2, #16
20000190:	18ba      	adds	r2, r7, r2
20000192:	2114      	movs	r1, #20
20000194:	1879      	adds	r1, r7, r1
20000196:	6878      	ldr	r0, [r7, #4]
20000198:	f002 fe60 	bl	20002e5c <check_sys_clock_khz>
2000019c:	1e03      	subs	r3, r0, #0
2000019e:	d007      	beq.n	200001b0 <set_sys_clock_khz+0x34>
200001a0:	697b      	ldr	r3, [r7, #20]
200001a2:	6939      	ldr	r1, [r7, #16]
200001a4:	68fa      	ldr	r2, [r7, #12]
200001a6:	0018      	movs	r0, r3
200001a8:	f002 fe08 	bl	20002dbc <set_sys_clock_pll>
200001ac:	2301      	movs	r3, #1
200001ae:	e00a      	b.n	200001c6 <set_sys_clock_khz+0x4a>
200001b0:	1cfb      	adds	r3, r7, #3
200001b2:	781b      	ldrb	r3, [r3, #0]
200001b4:	2b00      	cmp	r3, #0
200001b6:	d005      	beq.n	200001c4 <set_sys_clock_khz+0x48>
200001b8:	687a      	ldr	r2, [r7, #4]
200001ba:	4b05      	ldr	r3, [pc, #20]	@ (200001d0 <set_sys_clock_khz+0x54>)
200001bc:	0011      	movs	r1, r2
200001be:	0018      	movs	r0, r3
200001c0:	f003 fc12 	bl	200039e8 <panic>
200001c4:	2300      	movs	r3, #0
200001c6:	0018      	movs	r0, r3
200001c8:	46bd      	mov	sp, r7
200001ca:	b006      	add	sp, #24
200001cc:	bd80      	pop	{r7, pc}
200001ce:	46c0      	nop			@ (mov r8, r8)
200001d0:	2000ac48 	.word	0x2000ac48

200001d4 <check_sm_param>:
200001d4:	b580      	push	{r7, lr}
200001d6:	b082      	sub	sp, #8
200001d8:	af00      	add	r7, sp, #0
200001da:	6078      	str	r0, [r7, #4]
200001dc:	46c0      	nop			@ (mov r8, r8)
200001de:	46bd      	mov	sp, r7
200001e0:	b002      	add	sp, #8
200001e2:	bd80      	pop	{r7, pc}

200001e4 <check_pio_param>:
200001e4:	b580      	push	{r7, lr}
200001e6:	b082      	sub	sp, #8
200001e8:	af00      	add	r7, sp, #0
200001ea:	6078      	str	r0, [r7, #4]
200001ec:	46c0      	nop			@ (mov r8, r8)
200001ee:	46bd      	mov	sp, r7
200001f0:	b002      	add	sp, #8
200001f2:	bd80      	pop	{r7, pc}

200001f4 <sm_config_set_out_pins>:
200001f4:	b580      	push	{r7, lr}
200001f6:	b084      	sub	sp, #16
200001f8:	af00      	add	r7, sp, #0
200001fa:	60f8      	str	r0, [r7, #12]
200001fc:	60b9      	str	r1, [r7, #8]
200001fe:	607a      	str	r2, [r7, #4]
20000200:	68fb      	ldr	r3, [r7, #12]
20000202:	68db      	ldr	r3, [r3, #12]
20000204:	4a06      	ldr	r2, [pc, #24]	@ (20000220 <sm_config_set_out_pins+0x2c>)
20000206:	401a      	ands	r2, r3
20000208:	68bb      	ldr	r3, [r7, #8]
2000020a:	431a      	orrs	r2, r3
2000020c:	687b      	ldr	r3, [r7, #4]
2000020e:	051b      	lsls	r3, r3, #20
20000210:	431a      	orrs	r2, r3
20000212:	68fb      	ldr	r3, [r7, #12]
20000214:	60da      	str	r2, [r3, #12]
20000216:	46c0      	nop			@ (mov r8, r8)
20000218:	46bd      	mov	sp, r7
2000021a:	b004      	add	sp, #16
2000021c:	bd80      	pop	{r7, pc}
2000021e:	46c0      	nop			@ (mov r8, r8)
20000220:	fc0fffe0 	.word	0xfc0fffe0

20000224 <sm_config_set_in_pins>:
20000224:	b580      	push	{r7, lr}
20000226:	b082      	sub	sp, #8
20000228:	af00      	add	r7, sp, #0
2000022a:	6078      	str	r0, [r7, #4]
2000022c:	6039      	str	r1, [r7, #0]
2000022e:	687b      	ldr	r3, [r7, #4]
20000230:	68db      	ldr	r3, [r3, #12]
20000232:	4a05      	ldr	r2, [pc, #20]	@ (20000248 <sm_config_set_in_pins+0x24>)
20000234:	401a      	ands	r2, r3
20000236:	683b      	ldr	r3, [r7, #0]
20000238:	03db      	lsls	r3, r3, #15
2000023a:	431a      	orrs	r2, r3
2000023c:	687b      	ldr	r3, [r7, #4]
2000023e:	60da      	str	r2, [r3, #12]
20000240:	46c0      	nop			@ (mov r8, r8)
20000242:	46bd      	mov	sp, r7
20000244:	b002      	add	sp, #8
20000246:	bd80      	pop	{r7, pc}
20000248:	fff07fff 	.word	0xfff07fff

2000024c <sm_config_set_clkdiv_int_frac>:
2000024c:	b580      	push	{r7, lr}
2000024e:	b082      	sub	sp, #8
20000250:	af00      	add	r7, sp, #0
20000252:	6078      	str	r0, [r7, #4]
20000254:	0008      	movs	r0, r1
20000256:	0011      	movs	r1, r2
20000258:	1cbb      	adds	r3, r7, #2
2000025a:	1c02      	adds	r2, r0, #0
2000025c:	801a      	strh	r2, [r3, #0]
2000025e:	1c7b      	adds	r3, r7, #1
20000260:	1c0a      	adds	r2, r1, #0
20000262:	701a      	strb	r2, [r3, #0]
20000264:	1c7b      	adds	r3, r7, #1
20000266:	781b      	ldrb	r3, [r3, #0]
20000268:	021a      	lsls	r2, r3, #8
2000026a:	1cbb      	adds	r3, r7, #2
2000026c:	881b      	ldrh	r3, [r3, #0]
2000026e:	041b      	lsls	r3, r3, #16
20000270:	431a      	orrs	r2, r3
20000272:	687b      	ldr	r3, [r7, #4]
20000274:	601a      	str	r2, [r3, #0]
20000276:	46c0      	nop			@ (mov r8, r8)
20000278:	46bd      	mov	sp, r7
2000027a:	b002      	add	sp, #8
2000027c:	bd80      	pop	{r7, pc}
	...

20000280 <sm_config_set_wrap>:
20000280:	b580      	push	{r7, lr}
20000282:	b084      	sub	sp, #16
20000284:	af00      	add	r7, sp, #0
20000286:	60f8      	str	r0, [r7, #12]
20000288:	60b9      	str	r1, [r7, #8]
2000028a:	607a      	str	r2, [r7, #4]
2000028c:	68fb      	ldr	r3, [r7, #12]
2000028e:	685b      	ldr	r3, [r3, #4]
20000290:	4a06      	ldr	r2, [pc, #24]	@ (200002ac <sm_config_set_wrap+0x2c>)
20000292:	401a      	ands	r2, r3
20000294:	68bb      	ldr	r3, [r7, #8]
20000296:	01db      	lsls	r3, r3, #7
20000298:	431a      	orrs	r2, r3
2000029a:	687b      	ldr	r3, [r7, #4]
2000029c:	031b      	lsls	r3, r3, #12
2000029e:	431a      	orrs	r2, r3
200002a0:	68fb      	ldr	r3, [r7, #12]
200002a2:	605a      	str	r2, [r3, #4]
200002a4:	46c0      	nop			@ (mov r8, r8)
200002a6:	46bd      	mov	sp, r7
200002a8:	b004      	add	sp, #16
200002aa:	bd80      	pop	{r7, pc}
200002ac:	fffe007f 	.word	0xfffe007f

200002b0 <sm_config_set_in_shift>:
200002b0:	b590      	push	{r4, r7, lr}
200002b2:	b085      	sub	sp, #20
200002b4:	af00      	add	r7, sp, #0
200002b6:	60f8      	str	r0, [r7, #12]
200002b8:	0008      	movs	r0, r1
200002ba:	0011      	movs	r1, r2
200002bc:	607b      	str	r3, [r7, #4]
200002be:	240b      	movs	r4, #11
200002c0:	193b      	adds	r3, r7, r4
200002c2:	1c02      	adds	r2, r0, #0
200002c4:	701a      	strb	r2, [r3, #0]
200002c6:	230a      	movs	r3, #10
200002c8:	18fb      	adds	r3, r7, r3
200002ca:	1c0a      	adds	r2, r1, #0
200002cc:	701a      	strb	r2, [r3, #0]
200002ce:	68fb      	ldr	r3, [r7, #12]
200002d0:	689b      	ldr	r3, [r3, #8]
200002d2:	4a10      	ldr	r2, [pc, #64]	@ (20000314 <sm_config_set_in_shift+0x64>)
200002d4:	401a      	ands	r2, r3
200002d6:	193b      	adds	r3, r7, r4
200002d8:	781b      	ldrb	r3, [r3, #0]
200002da:	2b00      	cmp	r3, #0
200002dc:	d002      	beq.n	200002e4 <sm_config_set_in_shift+0x34>
200002de:	2380      	movs	r3, #128	@ 0x80
200002e0:	02db      	lsls	r3, r3, #11
200002e2:	e000      	b.n	200002e6 <sm_config_set_in_shift+0x36>
200002e4:	2300      	movs	r3, #0
200002e6:	431a      	orrs	r2, r3
200002e8:	230a      	movs	r3, #10
200002ea:	18fb      	adds	r3, r7, r3
200002ec:	781b      	ldrb	r3, [r3, #0]
200002ee:	2b00      	cmp	r3, #0
200002f0:	d002      	beq.n	200002f8 <sm_config_set_in_shift+0x48>
200002f2:	2380      	movs	r3, #128	@ 0x80
200002f4:	025b      	lsls	r3, r3, #9
200002f6:	e000      	b.n	200002fa <sm_config_set_in_shift+0x4a>
200002f8:	2300      	movs	r3, #0
200002fa:	431a      	orrs	r2, r3
200002fc:	687b      	ldr	r3, [r7, #4]
200002fe:	0519      	lsls	r1, r3, #20
20000300:	23f8      	movs	r3, #248	@ 0xf8
20000302:	045b      	lsls	r3, r3, #17
20000304:	400b      	ands	r3, r1
20000306:	431a      	orrs	r2, r3
20000308:	68fb      	ldr	r3, [r7, #12]
2000030a:	609a      	str	r2, [r3, #8]
2000030c:	46c0      	nop			@ (mov r8, r8)
2000030e:	46bd      	mov	sp, r7
20000310:	b005      	add	sp, #20
20000312:	bd90      	pop	{r4, r7, pc}
20000314:	fe0affff 	.word	0xfe0affff

20000318 <sm_config_set_out_shift>:
20000318:	b590      	push	{r4, r7, lr}
2000031a:	b085      	sub	sp, #20
2000031c:	af00      	add	r7, sp, #0
2000031e:	60f8      	str	r0, [r7, #12]
20000320:	0008      	movs	r0, r1
20000322:	0011      	movs	r1, r2
20000324:	607b      	str	r3, [r7, #4]
20000326:	240b      	movs	r4, #11
20000328:	193b      	adds	r3, r7, r4
2000032a:	1c02      	adds	r2, r0, #0
2000032c:	701a      	strb	r2, [r3, #0]
2000032e:	230a      	movs	r3, #10
20000330:	18fb      	adds	r3, r7, r3
20000332:	1c0a      	adds	r2, r1, #0
20000334:	701a      	strb	r2, [r3, #0]
20000336:	68fb      	ldr	r3, [r7, #12]
20000338:	689b      	ldr	r3, [r3, #8]
2000033a:	4a10      	ldr	r2, [pc, #64]	@ (2000037c <sm_config_set_out_shift+0x64>)
2000033c:	401a      	ands	r2, r3
2000033e:	193b      	adds	r3, r7, r4
20000340:	781b      	ldrb	r3, [r3, #0]
20000342:	2b00      	cmp	r3, #0
20000344:	d002      	beq.n	2000034c <sm_config_set_out_shift+0x34>
20000346:	2380      	movs	r3, #128	@ 0x80
20000348:	031b      	lsls	r3, r3, #12
2000034a:	e000      	b.n	2000034e <sm_config_set_out_shift+0x36>
2000034c:	2300      	movs	r3, #0
2000034e:	431a      	orrs	r2, r3
20000350:	230a      	movs	r3, #10
20000352:	18fb      	adds	r3, r7, r3
20000354:	781b      	ldrb	r3, [r3, #0]
20000356:	2b00      	cmp	r3, #0
20000358:	d002      	beq.n	20000360 <sm_config_set_out_shift+0x48>
2000035a:	2380      	movs	r3, #128	@ 0x80
2000035c:	029b      	lsls	r3, r3, #10
2000035e:	e000      	b.n	20000362 <sm_config_set_out_shift+0x4a>
20000360:	2300      	movs	r3, #0
20000362:	431a      	orrs	r2, r3
20000364:	687b      	ldr	r3, [r7, #4]
20000366:	0659      	lsls	r1, r3, #25
20000368:	23f8      	movs	r3, #248	@ 0xf8
2000036a:	059b      	lsls	r3, r3, #22
2000036c:	400b      	ands	r3, r1
2000036e:	431a      	orrs	r2, r3
20000370:	68fb      	ldr	r3, [r7, #12]
20000372:	609a      	str	r2, [r3, #8]
20000374:	46c0      	nop			@ (mov r8, r8)
20000376:	46bd      	mov	sp, r7
20000378:	b005      	add	sp, #20
2000037a:	bd90      	pop	{r4, r7, pc}
2000037c:	c1f5ffff 	.word	0xc1f5ffff

20000380 <pio_get_default_sm_config>:
20000380:	b590      	push	{r4, r7, lr}
20000382:	b087      	sub	sp, #28
20000384:	af00      	add	r7, sp, #0
20000386:	6078      	str	r0, [r7, #4]
20000388:	2408      	movs	r4, #8
2000038a:	193b      	adds	r3, r7, r4
2000038c:	0018      	movs	r0, r3
2000038e:	2310      	movs	r3, #16
20000390:	001a      	movs	r2, r3
20000392:	2100      	movs	r1, #0
20000394:	f003 ff68 	bl	20004268 <__wrap_memset>
20000398:	193b      	adds	r3, r7, r4
2000039a:	2200      	movs	r2, #0
2000039c:	2101      	movs	r1, #1
2000039e:	0018      	movs	r0, r3
200003a0:	f7ff ff54 	bl	2000024c <sm_config_set_clkdiv_int_frac>
200003a4:	193b      	adds	r3, r7, r4
200003a6:	221f      	movs	r2, #31
200003a8:	2100      	movs	r1, #0
200003aa:	0018      	movs	r0, r3
200003ac:	f7ff ff68 	bl	20000280 <sm_config_set_wrap>
200003b0:	1938      	adds	r0, r7, r4
200003b2:	2320      	movs	r3, #32
200003b4:	2200      	movs	r2, #0
200003b6:	2101      	movs	r1, #1
200003b8:	f7ff ff7a 	bl	200002b0 <sm_config_set_in_shift>
200003bc:	1938      	adds	r0, r7, r4
200003be:	2320      	movs	r3, #32
200003c0:	2200      	movs	r2, #0
200003c2:	2101      	movs	r1, #1
200003c4:	f7ff ffa8 	bl	20000318 <sm_config_set_out_shift>
200003c8:	687b      	ldr	r3, [r7, #4]
200003ca:	193a      	adds	r2, r7, r4
200003cc:	ca13      	ldmia	r2!, {r0, r1, r4}
200003ce:	c313      	stmia	r3!, {r0, r1, r4}
200003d0:	6812      	ldr	r2, [r2, #0]
200003d2:	601a      	str	r2, [r3, #0]
200003d4:	6878      	ldr	r0, [r7, #4]
200003d6:	46bd      	mov	sp, r7
200003d8:	b007      	add	sp, #28
200003da:	bd90      	pop	{r4, r7, pc}

200003dc <pio_gpio_init>:
200003dc:	b580      	push	{r7, lr}
200003de:	b082      	sub	sp, #8
200003e0:	af00      	add	r7, sp, #0
200003e2:	6078      	str	r0, [r7, #4]
200003e4:	6039      	str	r1, [r7, #0]
200003e6:	687b      	ldr	r3, [r7, #4]
200003e8:	0018      	movs	r0, r3
200003ea:	f7ff fefb 	bl	200001e4 <check_pio_param>
200003ee:	687b      	ldr	r3, [r7, #4]
200003f0:	4a07      	ldr	r2, [pc, #28]	@ (20000410 <pio_gpio_init+0x34>)
200003f2:	4293      	cmp	r3, r2
200003f4:	d101      	bne.n	200003fa <pio_gpio_init+0x1e>
200003f6:	2306      	movs	r3, #6
200003f8:	e000      	b.n	200003fc <pio_gpio_init+0x20>
200003fa:	2307      	movs	r3, #7
200003fc:	683a      	ldr	r2, [r7, #0]
200003fe:	0019      	movs	r1, r3
20000400:	0010      	movs	r0, r2
20000402:	f002 fe05 	bl	20003010 <gpio_set_function>
20000406:	46c0      	nop			@ (mov r8, r8)
20000408:	46bd      	mov	sp, r7
2000040a:	b002      	add	sp, #8
2000040c:	bd80      	pop	{r7, pc}
2000040e:	46c0      	nop			@ (mov r8, r8)
20000410:	50200000 	.word	0x50200000

20000414 <pio_sm_set_enabled>:
20000414:	b580      	push	{r7, lr}
20000416:	b084      	sub	sp, #16
20000418:	af00      	add	r7, sp, #0
2000041a:	60f8      	str	r0, [r7, #12]
2000041c:	60b9      	str	r1, [r7, #8]
2000041e:	1dfb      	adds	r3, r7, #7
20000420:	701a      	strb	r2, [r3, #0]
20000422:	68fb      	ldr	r3, [r7, #12]
20000424:	0018      	movs	r0, r3
20000426:	f7ff fedd 	bl	200001e4 <check_pio_param>
2000042a:	68bb      	ldr	r3, [r7, #8]
2000042c:	0018      	movs	r0, r3
2000042e:	f7ff fed1 	bl	200001d4 <check_sm_param>
20000432:	68fb      	ldr	r3, [r7, #12]
20000434:	681b      	ldr	r3, [r3, #0]
20000436:	2101      	movs	r1, #1
20000438:	68ba      	ldr	r2, [r7, #8]
2000043a:	4091      	lsls	r1, r2
2000043c:	000a      	movs	r2, r1
2000043e:	43d2      	mvns	r2, r2
20000440:	401a      	ands	r2, r3
20000442:	1dfb      	adds	r3, r7, #7
20000444:	781b      	ldrb	r3, [r3, #0]
20000446:	0019      	movs	r1, r3
20000448:	68bb      	ldr	r3, [r7, #8]
2000044a:	4099      	lsls	r1, r3
2000044c:	000b      	movs	r3, r1
2000044e:	431a      	orrs	r2, r3
20000450:	68fb      	ldr	r3, [r7, #12]
20000452:	601a      	str	r2, [r3, #0]
20000454:	46c0      	nop			@ (mov r8, r8)
20000456:	46bd      	mov	sp, r7
20000458:	b004      	add	sp, #16
2000045a:	bd80      	pop	{r7, pc}

2000045c <read_from_dreamcast_program_get_default_config>:
2000045c:	b590      	push	{r4, r7, lr}
2000045e:	b087      	sub	sp, #28
20000460:	af00      	add	r7, sp, #0
20000462:	6078      	str	r0, [r7, #4]
20000464:	6039      	str	r1, [r7, #0]
20000466:	2408      	movs	r4, #8
20000468:	193b      	adds	r3, r7, r4
2000046a:	0018      	movs	r0, r3
2000046c:	f7ff ff88 	bl	20000380 <pio_get_default_sm_config>
20000470:	683b      	ldr	r3, [r7, #0]
20000472:	330d      	adds	r3, #13
20000474:	001a      	movs	r2, r3
20000476:	6839      	ldr	r1, [r7, #0]
20000478:	193b      	adds	r3, r7, r4
2000047a:	0018      	movs	r0, r3
2000047c:	f7ff ff00 	bl	20000280 <sm_config_set_wrap>
20000480:	687b      	ldr	r3, [r7, #4]
20000482:	193a      	adds	r2, r7, r4
20000484:	ca13      	ldmia	r2!, {r0, r1, r4}
20000486:	c313      	stmia	r3!, {r0, r1, r4}
20000488:	6812      	ldr	r2, [r2, #0]
2000048a:	601a      	str	r2, [r3, #0]
2000048c:	6878      	ldr	r0, [r7, #4]
2000048e:	46bd      	mov	sp, r7
20000490:	b007      	add	sp, #28
20000492:	bd90      	pop	{r4, r7, pc}

20000494 <write_to_dreamcast_program_get_default_config>:
20000494:	b590      	push	{r4, r7, lr}
20000496:	b087      	sub	sp, #28
20000498:	af00      	add	r7, sp, #0
2000049a:	6078      	str	r0, [r7, #4]
2000049c:	6039      	str	r1, [r7, #0]
2000049e:	2408      	movs	r4, #8
200004a0:	193b      	adds	r3, r7, r4
200004a2:	0018      	movs	r0, r3
200004a4:	f7ff ff6c 	bl	20000380 <pio_get_default_sm_config>
200004a8:	683b      	ldr	r3, [r7, #0]
200004aa:	330d      	adds	r3, #13
200004ac:	001a      	movs	r2, r3
200004ae:	6839      	ldr	r1, [r7, #0]
200004b0:	193b      	adds	r3, r7, r4
200004b2:	0018      	movs	r0, r3
200004b4:	f7ff fee4 	bl	20000280 <sm_config_set_wrap>
200004b8:	687b      	ldr	r3, [r7, #4]
200004ba:	193a      	adds	r2, r7, r4
200004bc:	ca13      	ldmia	r2!, {r0, r1, r4}
200004be:	c313      	stmia	r3!, {r0, r1, r4}
200004c0:	6812      	ldr	r2, [r2, #0]
200004c2:	601a      	str	r2, [r3, #0]
200004c4:	6878      	ldr	r0, [r7, #4]
200004c6:	46bd      	mov	sp, r7
200004c8:	b007      	add	sp, #28
200004ca:	bd90      	pop	{r4, r7, pc}

200004cc <setup_read_from_dreamcast>:
200004cc:	b590      	push	{r4, r7, lr}
200004ce:	b087      	sub	sp, #28
200004d0:	af00      	add	r7, sp, #0
200004d2:	2300      	movs	r3, #0
200004d4:	617b      	str	r3, [r7, #20]
200004d6:	4b18      	ldr	r3, [pc, #96]	@ (20000538 <setup_read_from_dreamcast+0x6c>)
200004d8:	4a18      	ldr	r2, [pc, #96]	@ (2000053c <setup_read_from_dreamcast+0x70>)
200004da:	0019      	movs	r1, r3
200004dc:	0010      	movs	r0, r2
200004de:	f009 f9c7 	bl	20009870 <pio_add_program>
200004e2:	0003      	movs	r3, r0
200004e4:	613b      	str	r3, [r7, #16]
200004e6:	003b      	movs	r3, r7
200004e8:	693a      	ldr	r2, [r7, #16]
200004ea:	0011      	movs	r1, r2
200004ec:	0018      	movs	r0, r3
200004ee:	f7ff ffb5 	bl	2000045c <read_from_dreamcast_program_get_default_config>
200004f2:	003b      	movs	r3, r7
200004f4:	2100      	movs	r1, #0
200004f6:	0018      	movs	r0, r3
200004f8:	f7ff fe94 	bl	20000224 <sm_config_set_in_pins>
200004fc:	003b      	movs	r3, r7
200004fe:	2208      	movs	r2, #8
20000500:	2110      	movs	r1, #16
20000502:	0018      	movs	r0, r3
20000504:	f7ff fe76 	bl	200001f4 <sm_config_set_out_pins>
20000508:	4c0d      	ldr	r4, [pc, #52]	@ (20000540 <setup_read_from_dreamcast+0x74>)
2000050a:	23ff      	movs	r3, #255	@ 0xff
2000050c:	041a      	lsls	r2, r3, #16
2000050e:	6979      	ldr	r1, [r7, #20]
20000510:	480a      	ldr	r0, [pc, #40]	@ (2000053c <setup_read_from_dreamcast+0x70>)
20000512:	0023      	movs	r3, r4
20000514:	f009 f9d6 	bl	200098c4 <pio_sm_set_pindirs_with_mask>
20000518:	0038      	movs	r0, r7
2000051a:	2310      	movs	r3, #16
2000051c:	2200      	movs	r2, #0
2000051e:	2100      	movs	r1, #0
20000520:	f7ff fec6 	bl	200002b0 <sm_config_set_in_shift>
20000524:	003b      	movs	r3, r7
20000526:	693a      	ldr	r2, [r7, #16]
20000528:	6979      	ldr	r1, [r7, #20]
2000052a:	4804      	ldr	r0, [pc, #16]	@ (2000053c <setup_read_from_dreamcast+0x70>)
2000052c:	f009 fa4c 	bl	200099c8 <pio_sm_init>
20000530:	46c0      	nop			@ (mov r8, r8)
20000532:	46bd      	mov	sp, r7
20000534:	b007      	add	sp, #28
20000536:	bd90      	pop	{r4, r7, pc}
20000538:	2000ac98 	.word	0x2000ac98
2000053c:	50200000 	.word	0x50200000
20000540:	00ffffff 	.word	0x00ffffff

20000544 <setup_write_to_dreamcast>:
20000544:	b590      	push	{r4, r7, lr}
20000546:	b087      	sub	sp, #28
20000548:	af00      	add	r7, sp, #0
2000054a:	2301      	movs	r3, #1
2000054c:	617b      	str	r3, [r7, #20]
2000054e:	4b18      	ldr	r3, [pc, #96]	@ (200005b0 <setup_write_to_dreamcast+0x6c>)
20000550:	4a18      	ldr	r2, [pc, #96]	@ (200005b4 <setup_write_to_dreamcast+0x70>)
20000552:	0019      	movs	r1, r3
20000554:	0010      	movs	r0, r2
20000556:	f009 f98b 	bl	20009870 <pio_add_program>
2000055a:	0003      	movs	r3, r0
2000055c:	613b      	str	r3, [r7, #16]
2000055e:	003b      	movs	r3, r7
20000560:	693a      	ldr	r2, [r7, #16]
20000562:	0011      	movs	r1, r2
20000564:	0018      	movs	r0, r3
20000566:	f7ff ff95 	bl	20000494 <write_to_dreamcast_program_get_default_config>
2000056a:	003b      	movs	r3, r7
2000056c:	2110      	movs	r1, #16
2000056e:	0018      	movs	r0, r3
20000570:	f7ff fe58 	bl	20000224 <sm_config_set_in_pins>
20000574:	003b      	movs	r3, r7
20000576:	2210      	movs	r2, #16
20000578:	2100      	movs	r1, #0
2000057a:	0018      	movs	r0, r3
2000057c:	f7ff fe3a 	bl	200001f4 <sm_config_set_out_pins>
20000580:	4c0d      	ldr	r4, [pc, #52]	@ (200005b8 <setup_write_to_dreamcast+0x74>)
20000582:	23ff      	movs	r3, #255	@ 0xff
20000584:	041a      	lsls	r2, r3, #16
20000586:	6979      	ldr	r1, [r7, #20]
20000588:	480a      	ldr	r0, [pc, #40]	@ (200005b4 <setup_write_to_dreamcast+0x70>)
2000058a:	0023      	movs	r3, r4
2000058c:	f009 f99a 	bl	200098c4 <pio_sm_set_pindirs_with_mask>
20000590:	0038      	movs	r0, r7
20000592:	2308      	movs	r3, #8
20000594:	2200      	movs	r2, #0
20000596:	2100      	movs	r1, #0
20000598:	f7ff fe8a 	bl	200002b0 <sm_config_set_in_shift>
2000059c:	003b      	movs	r3, r7
2000059e:	693a      	ldr	r2, [r7, #16]
200005a0:	6979      	ldr	r1, [r7, #20]
200005a2:	4804      	ldr	r0, [pc, #16]	@ (200005b4 <setup_write_to_dreamcast+0x70>)
200005a4:	f009 fa10 	bl	200099c8 <pio_sm_init>
200005a8:	46c0      	nop			@ (mov r8, r8)
200005aa:	46bd      	mov	sp, r7
200005ac:	b007      	add	sp, #28
200005ae:	bd90      	pop	{r4, r7, pc}
200005b0:	2000acbc 	.word	0x2000acbc
200005b4:	50200000 	.word	0x50200000
200005b8:	00ffffff 	.word	0x00ffffff

200005bc <setup_interconnect>:
200005bc:	b580      	push	{r7, lr}
200005be:	b082      	sub	sp, #8
200005c0:	af00      	add	r7, sp, #0
200005c2:	2300      	movs	r3, #0
200005c4:	607b      	str	r3, [r7, #4]
200005c6:	e008      	b.n	200005da <setup_interconnect+0x1e>
200005c8:	687b      	ldr	r3, [r7, #4]
200005ca:	4a0f      	ldr	r2, [pc, #60]	@ (20000608 <setup_interconnect+0x4c>)
200005cc:	0019      	movs	r1, r3
200005ce:	0010      	movs	r0, r2
200005d0:	f7ff ff04 	bl	200003dc <pio_gpio_init>
200005d4:	687b      	ldr	r3, [r7, #4]
200005d6:	3301      	adds	r3, #1
200005d8:	607b      	str	r3, [r7, #4]
200005da:	687b      	ldr	r3, [r7, #4]
200005dc:	2b17      	cmp	r3, #23
200005de:	ddf3      	ble.n	200005c8 <setup_interconnect+0xc>
200005e0:	f7ff ff74 	bl	200004cc <setup_read_from_dreamcast>
200005e4:	f7ff ffae 	bl	20000544 <setup_write_to_dreamcast>
200005e8:	4b07      	ldr	r3, [pc, #28]	@ (20000608 <setup_interconnect+0x4c>)
200005ea:	2201      	movs	r2, #1
200005ec:	2100      	movs	r1, #0
200005ee:	0018      	movs	r0, r3
200005f0:	f7ff ff10 	bl	20000414 <pio_sm_set_enabled>
200005f4:	4b04      	ldr	r3, [pc, #16]	@ (20000608 <setup_interconnect+0x4c>)
200005f6:	2201      	movs	r2, #1
200005f8:	2101      	movs	r1, #1
200005fa:	0018      	movs	r0, r3
200005fc:	f7ff ff0a 	bl	20000414 <pio_sm_set_enabled>
20000600:	46c0      	nop			@ (mov r8, r8)
20000602:	46bd      	mov	sp, r7
20000604:	b002      	add	sp, #8
20000606:	bd80      	pop	{r7, pc}
20000608:	50200000 	.word	0x50200000

2000060c <main>:
2000060c:	b590      	push	{r4, r7, lr}
2000060e:	b087      	sub	sp, #28
20000610:	af00      	add	r7, sp, #0
20000612:	f004 f83f 	bl	20004694 <stdio_init_all>
20000616:	2300      	movs	r3, #0
20000618:	617b      	str	r3, [r7, #20]
2000061a:	e00b      	b.n	20000634 <main+0x28>
2000061c:	697b      	ldr	r3, [r7, #20]
2000061e:	0018      	movs	r0, r3
20000620:	f002 fd6a 	bl	200030f8 <gpio_init>
20000624:	697b      	ldr	r3, [r7, #20]
20000626:	2106      	movs	r1, #6
20000628:	0018      	movs	r0, r3
2000062a:	f002 fcf1 	bl	20003010 <gpio_set_function>
2000062e:	697b      	ldr	r3, [r7, #20]
20000630:	3301      	adds	r3, #1
20000632:	617b      	str	r3, [r7, #20]
20000634:	697b      	ldr	r3, [r7, #20]
20000636:	2b0f      	cmp	r3, #15
20000638:	ddf0      	ble.n	2000061c <main+0x10>
2000063a:	2310      	movs	r3, #16
2000063c:	613b      	str	r3, [r7, #16]
2000063e:	e00b      	b.n	20000658 <main+0x4c>
20000640:	693b      	ldr	r3, [r7, #16]
20000642:	0018      	movs	r0, r3
20000644:	f002 fd58 	bl	200030f8 <gpio_init>
20000648:	693b      	ldr	r3, [r7, #16]
2000064a:	2100      	movs	r1, #0
2000064c:	0018      	movs	r0, r3
2000064e:	f7ff fd77 	bl	20000140 <gpio_set_dir>
20000652:	693b      	ldr	r3, [r7, #16]
20000654:	3301      	adds	r3, #1
20000656:	613b      	str	r3, [r7, #16]
20000658:	693b      	ldr	r3, [r7, #16]
2000065a:	2b17      	cmp	r3, #23
2000065c:	ddf0      	ble.n	20000640 <main+0x34>
2000065e:	4b18      	ldr	r3, [pc, #96]	@ (200006c0 <main+0xb4>)
20000660:	60fb      	str	r3, [r7, #12]
20000662:	68fb      	ldr	r3, [r7, #12]
20000664:	220b      	movs	r2, #11
20000666:	18bc      	adds	r4, r7, r2
20000668:	2100      	movs	r1, #0
2000066a:	0018      	movs	r0, r3
2000066c:	f7ff fd86 	bl	2000017c <set_sys_clock_khz>
20000670:	0003      	movs	r3, r0
20000672:	7023      	strb	r3, [r4, #0]
20000674:	2018      	movs	r0, #24
20000676:	f002 fd3f 	bl	200030f8 <gpio_init>
2000067a:	2100      	movs	r1, #0
2000067c:	2018      	movs	r0, #24
2000067e:	f7ff fd5f 	bl	20000140 <gpio_set_dir>
20000682:	201a      	movs	r0, #26
20000684:	f002 fd38 	bl	200030f8 <gpio_init>
20000688:	2100      	movs	r1, #0
2000068a:	201a      	movs	r0, #26
2000068c:	f7ff fd58 	bl	20000140 <gpio_set_dir>
20000690:	2201      	movs	r2, #1
20000692:	2100      	movs	r1, #0
20000694:	201a      	movs	r0, #26
20000696:	f002 fcf1 	bl	2000307c <gpio_set_pulls>
2000069a:	201b      	movs	r0, #27
2000069c:	f002 fd2c 	bl	200030f8 <gpio_init>
200006a0:	2100      	movs	r1, #0
200006a2:	201b      	movs	r0, #27
200006a4:	f7ff fd4c 	bl	20000140 <gpio_set_dir>
200006a8:	2201      	movs	r2, #1
200006aa:	2100      	movs	r1, #0
200006ac:	201b      	movs	r0, #27
200006ae:	f002 fce5 	bl	2000307c <gpio_set_pulls>
200006b2:	f7ff ff83 	bl	200005bc <setup_interconnect>
200006b6:	2300      	movs	r3, #0
200006b8:	607b      	str	r3, [r7, #4]
200006ba:	46c0      	nop			@ (mov r8, r8)
200006bc:	e7fd      	b.n	200006ba <main+0xae>
200006be:	46c0      	nop			@ (mov r8, r8)
200006c0:	00040f10 	.word	0x00040f10

200006c4 <lock_init>:
200006c4:	b580      	push	{r7, lr}
200006c6:	b084      	sub	sp, #16
200006c8:	af00      	add	r7, sp, #0
200006ca:	6078      	str	r0, [r7, #4]
200006cc:	6039      	str	r1, [r7, #0]
200006ce:	683b      	ldr	r3, [r7, #0]
200006d0:	60fb      	str	r3, [r7, #12]
200006d2:	68fb      	ldr	r3, [r7, #12]
200006d4:	4a05      	ldr	r2, [pc, #20]	@ (200006ec <lock_init+0x28>)
200006d6:	4694      	mov	ip, r2
200006d8:	4463      	add	r3, ip
200006da:	009b      	lsls	r3, r3, #2
200006dc:	001a      	movs	r2, r3
200006de:	687b      	ldr	r3, [r7, #4]
200006e0:	601a      	str	r2, [r3, #0]
200006e2:	46c0      	nop			@ (mov r8, r8)
200006e4:	46bd      	mov	sp, r7
200006e6:	b004      	add	sp, #16
200006e8:	bd80      	pop	{r7, pc}
200006ea:	46c0      	nop			@ (mov r8, r8)
200006ec:	34000040 	.word	0x34000040

200006f0 <to_us_since_boot>:
200006f0:	b580      	push	{r7, lr}
200006f2:	b082      	sub	sp, #8
200006f4:	af00      	add	r7, sp, #0
200006f6:	6038      	str	r0, [r7, #0]
200006f8:	6079      	str	r1, [r7, #4]
200006fa:	683a      	ldr	r2, [r7, #0]
200006fc:	687b      	ldr	r3, [r7, #4]
200006fe:	0010      	movs	r0, r2
20000700:	0019      	movs	r1, r3
20000702:	46bd      	mov	sp, r7
20000704:	b002      	add	sp, #8
20000706:	bd80      	pop	{r7, pc}

20000708 <update_us_since_boot>:
20000708:	b580      	push	{r7, lr}
2000070a:	b084      	sub	sp, #16
2000070c:	af00      	add	r7, sp, #0
2000070e:	60f8      	str	r0, [r7, #12]
20000710:	603a      	str	r2, [r7, #0]
20000712:	607b      	str	r3, [r7, #4]
20000714:	68f9      	ldr	r1, [r7, #12]
20000716:	683a      	ldr	r2, [r7, #0]
20000718:	687b      	ldr	r3, [r7, #4]
2000071a:	600a      	str	r2, [r1, #0]
2000071c:	604b      	str	r3, [r1, #4]
2000071e:	46c0      	nop			@ (mov r8, r8)
20000720:	46bd      	mov	sp, r7
20000722:	b004      	add	sp, #16
20000724:	bd80      	pop	{r7, pc}

20000726 <get_absolute_time>:
20000726:	b580      	push	{r7, lr}
20000728:	b082      	sub	sp, #8
2000072a:	af00      	add	r7, sp, #0
2000072c:	f000 ff9a 	bl	20001664 <time_us_64>
20000730:	0002      	movs	r2, r0
20000732:	000b      	movs	r3, r1
20000734:	0039      	movs	r1, r7
20000736:	0008      	movs	r0, r1
20000738:	f7ff ffe6 	bl	20000708 <update_us_since_boot>
2000073c:	683a      	ldr	r2, [r7, #0]
2000073e:	687b      	ldr	r3, [r7, #4]
20000740:	0010      	movs	r0, r2
20000742:	0019      	movs	r1, r3
20000744:	46bd      	mov	sp, r7
20000746:	b002      	add	sp, #8
20000748:	bd80      	pop	{r7, pc}
	...

2000074c <delayed_by_ms>:
2000074c:	b5b0      	push	{r4, r5, r7, lr}
2000074e:	b08a      	sub	sp, #40	@ 0x28
20000750:	af00      	add	r7, sp, #0
20000752:	60b8      	str	r0, [r7, #8]
20000754:	60f9      	str	r1, [r7, #12]
20000756:	607a      	str	r2, [r7, #4]
20000758:	68ba      	ldr	r2, [r7, #8]
2000075a:	68fb      	ldr	r3, [r7, #12]
2000075c:	0010      	movs	r0, r2
2000075e:	0019      	movs	r1, r3
20000760:	f7ff ffc6 	bl	200006f0 <to_us_since_boot>
20000764:	0002      	movs	r2, r0
20000766:	000b      	movs	r3, r1
20000768:	61ba      	str	r2, [r7, #24]
2000076a:	61fb      	str	r3, [r7, #28]
2000076c:	687b      	ldr	r3, [r7, #4]
2000076e:	001c      	movs	r4, r3
20000770:	2300      	movs	r3, #0
20000772:	001d      	movs	r5, r3
20000774:	22fa      	movs	r2, #250	@ 0xfa
20000776:	0092      	lsls	r2, r2, #2
20000778:	2300      	movs	r3, #0
2000077a:	0020      	movs	r0, r4
2000077c:	0029      	movs	r1, r5
2000077e:	f003 fcd5 	bl	2000412c <__wrap___aeabi_lmul>
20000782:	0002      	movs	r2, r0
20000784:	000b      	movs	r3, r1
20000786:	0010      	movs	r0, r2
20000788:	0019      	movs	r1, r3
2000078a:	69ba      	ldr	r2, [r7, #24]
2000078c:	69fb      	ldr	r3, [r7, #28]
2000078e:	1812      	adds	r2, r2, r0
20000790:	414b      	adcs	r3, r1
20000792:	623a      	str	r2, [r7, #32]
20000794:	627b      	str	r3, [r7, #36]	@ 0x24
20000796:	6a3a      	ldr	r2, [r7, #32]
20000798:	6a7b      	ldr	r3, [r7, #36]	@ 0x24
2000079a:	2b00      	cmp	r3, #0
2000079c:	da04      	bge.n	200007a8 <delayed_by_ms+0x5c>
2000079e:	2201      	movs	r2, #1
200007a0:	4252      	negs	r2, r2
200007a2:	4b08      	ldr	r3, [pc, #32]	@ (200007c4 <delayed_by_ms+0x78>)
200007a4:	623a      	str	r2, [r7, #32]
200007a6:	627b      	str	r3, [r7, #36]	@ 0x24
200007a8:	6a3a      	ldr	r2, [r7, #32]
200007aa:	6a7b      	ldr	r3, [r7, #36]	@ 0x24
200007ac:	2110      	movs	r1, #16
200007ae:	1879      	adds	r1, r7, r1
200007b0:	0008      	movs	r0, r1
200007b2:	f7ff ffa9 	bl	20000708 <update_us_since_boot>
200007b6:	693a      	ldr	r2, [r7, #16]
200007b8:	697b      	ldr	r3, [r7, #20]
200007ba:	0010      	movs	r0, r2
200007bc:	0019      	movs	r1, r3
200007be:	46bd      	mov	sp, r7
200007c0:	b00a      	add	sp, #40	@ 0x28
200007c2:	bdb0      	pop	{r4, r5, r7, pc}
200007c4:	7fffffff 	.word	0x7fffffff

200007c8 <make_timeout_time_ms>:
200007c8:	b580      	push	{r7, lr}
200007ca:	b082      	sub	sp, #8
200007cc:	af00      	add	r7, sp, #0
200007ce:	6078      	str	r0, [r7, #4]
200007d0:	f7ff ffa9 	bl	20000726 <get_absolute_time>
200007d4:	687b      	ldr	r3, [r7, #4]
200007d6:	001a      	movs	r2, r3
200007d8:	f7ff ffb8 	bl	2000074c <delayed_by_ms>
200007dc:	0002      	movs	r2, r0
200007de:	000b      	movs	r3, r1
200007e0:	0010      	movs	r0, r2
200007e2:	0019      	movs	r1, r3
200007e4:	46bd      	mov	sp, r7
200007e6:	b002      	add	sp, #8
200007e8:	bd80      	pop	{r7, pc}

200007ea <mutex_init>:
200007ea:	b590      	push	{r4, r7, lr}
200007ec:	b083      	sub	sp, #12
200007ee:	af00      	add	r7, sp, #0
200007f0:	6078      	str	r0, [r7, #4]
200007f2:	687c      	ldr	r4, [r7, #4]
200007f4:	f001 faf2 	bl	20001ddc <next_striped_spin_lock_num>
200007f8:	0003      	movs	r3, r0
200007fa:	0019      	movs	r1, r3
200007fc:	0020      	movs	r0, r4
200007fe:	f7ff ff61 	bl	200006c4 <lock_init>
20000802:	687b      	ldr	r3, [r7, #4]
20000804:	22ff      	movs	r2, #255	@ 0xff
20000806:	711a      	strb	r2, [r3, #4]
20000808:	f3bf 8f5f 	dmb	sy
2000080c:	46c0      	nop			@ (mov r8, r8)
2000080e:	46c0      	nop			@ (mov r8, r8)
20000810:	46c0      	nop			@ (mov r8, r8)
20000812:	46bd      	mov	sp, r7
20000814:	b003      	add	sp, #12
20000816:	bd90      	pop	{r4, r7, pc}

20000818 <recursive_mutex_init>:
20000818:	b590      	push	{r4, r7, lr}
2000081a:	b083      	sub	sp, #12
2000081c:	af00      	add	r7, sp, #0
2000081e:	6078      	str	r0, [r7, #4]
20000820:	687c      	ldr	r4, [r7, #4]
20000822:	f001 fadb 	bl	20001ddc <next_striped_spin_lock_num>
20000826:	0003      	movs	r3, r0
20000828:	0019      	movs	r1, r3
2000082a:	0020      	movs	r0, r4
2000082c:	f7ff ff4a 	bl	200006c4 <lock_init>
20000830:	687b      	ldr	r3, [r7, #4]
20000832:	22ff      	movs	r2, #255	@ 0xff
20000834:	711a      	strb	r2, [r3, #4]
20000836:	687b      	ldr	r3, [r7, #4]
20000838:	2200      	movs	r2, #0
2000083a:	715a      	strb	r2, [r3, #5]
2000083c:	f3bf 8f5f 	dmb	sy
20000840:	46c0      	nop			@ (mov r8, r8)
20000842:	46c0      	nop			@ (mov r8, r8)
20000844:	46c0      	nop			@ (mov r8, r8)
20000846:	46bd      	mov	sp, r7
20000848:	b003      	add	sp, #12
2000084a:	bd90      	pop	{r4, r7, pc}

2000084c <critical_section_init>:
2000084c:	b580      	push	{r7, lr}
2000084e:	b082      	sub	sp, #8
20000850:	af00      	add	r7, sp, #0
20000852:	6078      	str	r0, [r7, #4]
20000854:	2001      	movs	r0, #1
20000856:	f001 fad9 	bl	20001e0c <spin_lock_claim_unused>
2000085a:	0003      	movs	r3, r0
2000085c:	001a      	movs	r2, r3
2000085e:	687b      	ldr	r3, [r7, #4]
20000860:	0011      	movs	r1, r2
20000862:	0018      	movs	r0, r3
20000864:	f000 f804 	bl	20000870 <critical_section_init_with_lock_num>
20000868:	46c0      	nop			@ (mov r8, r8)
2000086a:	46bd      	mov	sp, r7
2000086c:	b002      	add	sp, #8
2000086e:	bd80      	pop	{r7, pc}

20000870 <critical_section_init_with_lock_num>:
20000870:	b580      	push	{r7, lr}
20000872:	b084      	sub	sp, #16
20000874:	af00      	add	r7, sp, #0
20000876:	6078      	str	r0, [r7, #4]
20000878:	6039      	str	r1, [r7, #0]
2000087a:	683b      	ldr	r3, [r7, #0]
2000087c:	60fb      	str	r3, [r7, #12]
2000087e:	68fb      	ldr	r3, [r7, #12]
20000880:	4a07      	ldr	r2, [pc, #28]	@ (200008a0 <critical_section_init_with_lock_num+0x30>)
20000882:	4694      	mov	ip, r2
20000884:	4463      	add	r3, ip
20000886:	009b      	lsls	r3, r3, #2
20000888:	001a      	movs	r2, r3
2000088a:	687b      	ldr	r3, [r7, #4]
2000088c:	601a      	str	r2, [r3, #0]
2000088e:	f3bf 8f5f 	dmb	sy
20000892:	46c0      	nop			@ (mov r8, r8)
20000894:	46c0      	nop			@ (mov r8, r8)
20000896:	46c0      	nop			@ (mov r8, r8)
20000898:	46bd      	mov	sp, r7
2000089a:	b004      	add	sp, #16
2000089c:	bd80      	pop	{r7, pc}
2000089e:	46c0      	nop			@ (mov r8, r8)
200008a0:	34000040 	.word	0x34000040

200008a4 <to_us_since_boot>:
200008a4:	b580      	push	{r7, lr}
200008a6:	b082      	sub	sp, #8
200008a8:	af00      	add	r7, sp, #0
200008aa:	6038      	str	r0, [r7, #0]
200008ac:	6079      	str	r1, [r7, #4]
200008ae:	683a      	ldr	r2, [r7, #0]
200008b0:	687b      	ldr	r3, [r7, #4]
200008b2:	0010      	movs	r0, r2
200008b4:	0019      	movs	r1, r3
200008b6:	46bd      	mov	sp, r7
200008b8:	b002      	add	sp, #8
200008ba:	bd80      	pop	{r7, pc}

200008bc <update_us_since_boot>:
200008bc:	b580      	push	{r7, lr}
200008be:	b084      	sub	sp, #16
200008c0:	af00      	add	r7, sp, #0
200008c2:	60f8      	str	r0, [r7, #12]
200008c4:	603a      	str	r2, [r7, #0]
200008c6:	607b      	str	r3, [r7, #4]
200008c8:	68f9      	ldr	r1, [r7, #12]
200008ca:	683a      	ldr	r2, [r7, #0]
200008cc:	687b      	ldr	r3, [r7, #4]
200008ce:	600a      	str	r2, [r1, #0]
200008d0:	604b      	str	r3, [r1, #4]
200008d2:	46c0      	nop			@ (mov r8, r8)
200008d4:	46bd      	mov	sp, r7
200008d6:	b004      	add	sp, #16
200008d8:	bd80      	pop	{r7, pc}
	...

200008dc <time_reached>:
200008dc:	b5b0      	push	{r4, r5, r7, lr}
200008de:	b086      	sub	sp, #24
200008e0:	af00      	add	r7, sp, #0
200008e2:	6038      	str	r0, [r7, #0]
200008e4:	6079      	str	r1, [r7, #4]
200008e6:	683a      	ldr	r2, [r7, #0]
200008e8:	687b      	ldr	r3, [r7, #4]
200008ea:	0010      	movs	r0, r2
200008ec:	0019      	movs	r1, r3
200008ee:	f7ff ffd9 	bl	200008a4 <to_us_since_boot>
200008f2:	0002      	movs	r2, r0
200008f4:	000b      	movs	r3, r1
200008f6:	613a      	str	r2, [r7, #16]
200008f8:	617b      	str	r3, [r7, #20]
200008fa:	697b      	ldr	r3, [r7, #20]
200008fc:	001c      	movs	r4, r3
200008fe:	2300      	movs	r3, #0
20000900:	001d      	movs	r5, r3
20000902:	0023      	movs	r3, r4
20000904:	60fb      	str	r3, [r7, #12]
20000906:	4b0d      	ldr	r3, [pc, #52]	@ (2000093c <time_reached+0x60>)
20000908:	6a5b      	ldr	r3, [r3, #36]	@ 0x24
2000090a:	60bb      	str	r3, [r7, #8]
2000090c:	68ba      	ldr	r2, [r7, #8]
2000090e:	68fb      	ldr	r3, [r7, #12]
20000910:	429a      	cmp	r2, r3
20000912:	d30a      	bcc.n	2000092a <time_reached+0x4e>
20000914:	4b09      	ldr	r3, [pc, #36]	@ (2000093c <time_reached+0x60>)
20000916:	6a9a      	ldr	r2, [r3, #40]	@ 0x28
20000918:	693b      	ldr	r3, [r7, #16]
2000091a:	429a      	cmp	r2, r3
2000091c:	d203      	bcs.n	20000926 <time_reached+0x4a>
2000091e:	68ba      	ldr	r2, [r7, #8]
20000920:	68fb      	ldr	r3, [r7, #12]
20000922:	429a      	cmp	r2, r3
20000924:	d001      	beq.n	2000092a <time_reached+0x4e>
20000926:	2301      	movs	r3, #1
20000928:	e000      	b.n	2000092c <time_reached+0x50>
2000092a:	2300      	movs	r3, #0
2000092c:	1c1a      	adds	r2, r3, #0
2000092e:	2301      	movs	r3, #1
20000930:	4013      	ands	r3, r2
20000932:	b2db      	uxtb	r3, r3
20000934:	0018      	movs	r0, r3
20000936:	46bd      	mov	sp, r7
20000938:	b006      	add	sp, #24
2000093a:	bdb0      	pop	{r4, r5, r7, pc}
2000093c:	40054000 	.word	0x40054000

20000940 <get_absolute_time>:
20000940:	b580      	push	{r7, lr}
20000942:	b082      	sub	sp, #8
20000944:	af00      	add	r7, sp, #0
20000946:	f000 fe8d 	bl	20001664 <time_us_64>
2000094a:	0002      	movs	r2, r0
2000094c:	000b      	movs	r3, r1
2000094e:	0039      	movs	r1, r7
20000950:	0008      	movs	r0, r1
20000952:	f7ff ffb3 	bl	200008bc <update_us_since_boot>
20000956:	683a      	ldr	r2, [r7, #0]
20000958:	687b      	ldr	r3, [r7, #4]
2000095a:	0010      	movs	r0, r2
2000095c:	0019      	movs	r1, r3
2000095e:	46bd      	mov	sp, r7
20000960:	b002      	add	sp, #8
20000962:	bd80      	pop	{r7, pc}

20000964 <delayed_by_us>:
20000964:	b580      	push	{r7, lr}
20000966:	b08a      	sub	sp, #40	@ 0x28
20000968:	af00      	add	r7, sp, #0
2000096a:	60b8      	str	r0, [r7, #8]
2000096c:	60f9      	str	r1, [r7, #12]
2000096e:	603a      	str	r2, [r7, #0]
20000970:	607b      	str	r3, [r7, #4]
20000972:	68ba      	ldr	r2, [r7, #8]
20000974:	68fb      	ldr	r3, [r7, #12]
20000976:	0010      	movs	r0, r2
20000978:	0019      	movs	r1, r3
2000097a:	f7ff ff93 	bl	200008a4 <to_us_since_boot>
2000097e:	0002      	movs	r2, r0
20000980:	000b      	movs	r3, r1
20000982:	61ba      	str	r2, [r7, #24]
20000984:	61fb      	str	r3, [r7, #28]
20000986:	69b8      	ldr	r0, [r7, #24]
20000988:	69f9      	ldr	r1, [r7, #28]
2000098a:	683a      	ldr	r2, [r7, #0]
2000098c:	687b      	ldr	r3, [r7, #4]
2000098e:	1812      	adds	r2, r2, r0
20000990:	414b      	adcs	r3, r1
20000992:	623a      	str	r2, [r7, #32]
20000994:	627b      	str	r3, [r7, #36]	@ 0x24
20000996:	6a3a      	ldr	r2, [r7, #32]
20000998:	6a7b      	ldr	r3, [r7, #36]	@ 0x24
2000099a:	2b00      	cmp	r3, #0
2000099c:	da04      	bge.n	200009a8 <delayed_by_us+0x44>
2000099e:	2201      	movs	r2, #1
200009a0:	4252      	negs	r2, r2
200009a2:	4b08      	ldr	r3, [pc, #32]	@ (200009c4 <delayed_by_us+0x60>)
200009a4:	623a      	str	r2, [r7, #32]
200009a6:	627b      	str	r3, [r7, #36]	@ 0x24
200009a8:	6a3a      	ldr	r2, [r7, #32]
200009aa:	6a7b      	ldr	r3, [r7, #36]	@ 0x24
200009ac:	2110      	movs	r1, #16
200009ae:	1879      	adds	r1, r7, r1
200009b0:	0008      	movs	r0, r1
200009b2:	f7ff ff83 	bl	200008bc <update_us_since_boot>
200009b6:	693a      	ldr	r2, [r7, #16]
200009b8:	697b      	ldr	r3, [r7, #20]
200009ba:	0010      	movs	r0, r2
200009bc:	0019      	movs	r1, r3
200009be:	46bd      	mov	sp, r7
200009c0:	b00a      	add	sp, #40	@ 0x28
200009c2:	bd80      	pop	{r7, pc}
200009c4:	7fffffff 	.word	0x7fffffff

200009c8 <absolute_time_diff_us>:
200009c8:	b5b0      	push	{r4, r5, r7, lr}
200009ca:	b084      	sub	sp, #16
200009cc:	af00      	add	r7, sp, #0
200009ce:	60b8      	str	r0, [r7, #8]
200009d0:	60f9      	str	r1, [r7, #12]
200009d2:	603a      	str	r2, [r7, #0]
200009d4:	607b      	str	r3, [r7, #4]
200009d6:	683a      	ldr	r2, [r7, #0]
200009d8:	687b      	ldr	r3, [r7, #4]
200009da:	0010      	movs	r0, r2
200009dc:	0019      	movs	r1, r3
200009de:	f7ff ff61 	bl	200008a4 <to_us_since_boot>
200009e2:	0004      	movs	r4, r0
200009e4:	000d      	movs	r5, r1
200009e6:	68ba      	ldr	r2, [r7, #8]
200009e8:	68fb      	ldr	r3, [r7, #12]
200009ea:	0010      	movs	r0, r2
200009ec:	0019      	movs	r1, r3
200009ee:	f7ff ff59 	bl	200008a4 <to_us_since_boot>
200009f2:	0002      	movs	r2, r0
200009f4:	000b      	movs	r3, r1
200009f6:	1aa4      	subs	r4, r4, r2
200009f8:	419d      	sbcs	r5, r3
200009fa:	0022      	movs	r2, r4
200009fc:	002b      	movs	r3, r5
200009fe:	0010      	movs	r0, r2
20000a00:	0019      	movs	r1, r3
20000a02:	46bd      	mov	sp, r7
20000a04:	b004      	add	sp, #16
20000a06:	bdb0      	pop	{r4, r5, r7, pc}

20000a08 <add_alarm_at>:
20000a08:	b580      	push	{r7, lr}
20000a0a:	b088      	sub	sp, #32
20000a0c:	af04      	add	r7, sp, #16
20000a0e:	60b8      	str	r0, [r7, #8]
20000a10:	60f9      	str	r1, [r7, #12]
20000a12:	607a      	str	r2, [r7, #4]
20000a14:	603b      	str	r3, [r7, #0]
20000a16:	f000 fa0b 	bl	20000e30 <alarm_pool_get_default>
20000a1a:	68ba      	ldr	r2, [r7, #8]
20000a1c:	68fb      	ldr	r3, [r7, #12]
20000a1e:	2118      	movs	r1, #24
20000a20:	1879      	adds	r1, r7, r1
20000a22:	7809      	ldrb	r1, [r1, #0]
20000a24:	9102      	str	r1, [sp, #8]
20000a26:	6839      	ldr	r1, [r7, #0]
20000a28:	9101      	str	r1, [sp, #4]
20000a2a:	6879      	ldr	r1, [r7, #4]
20000a2c:	9100      	str	r1, [sp, #0]
20000a2e:	f000 fc1f 	bl	20001270 <alarm_pool_add_alarm_at>
20000a32:	0003      	movs	r3, r0
20000a34:	0018      	movs	r0, r3
20000a36:	46bd      	mov	sp, r7
20000a38:	b004      	add	sp, #16
20000a3a:	bd80      	pop	{r7, pc}

20000a3c <cancel_alarm>:
20000a3c:	b580      	push	{r7, lr}
20000a3e:	b082      	sub	sp, #8
20000a40:	af00      	add	r7, sp, #0
20000a42:	6078      	str	r0, [r7, #4]
20000a44:	f000 f9f4 	bl	20000e30 <alarm_pool_get_default>
20000a48:	0002      	movs	r2, r0
20000a4a:	687b      	ldr	r3, [r7, #4]
20000a4c:	0019      	movs	r1, r3
20000a4e:	0010      	movs	r0, r2
20000a50:	f000 fcc9 	bl	200013e6 <alarm_pool_cancel_alarm>
20000a54:	0003      	movs	r3, r0
20000a56:	0018      	movs	r0, r3
20000a58:	46bd      	mov	sp, r7
20000a5a:	b002      	add	sp, #8
20000a5c:	bd80      	pop	{r7, pc}

20000a5e <ph_get_node>:
20000a5e:	b580      	push	{r7, lr}
20000a60:	b082      	sub	sp, #8
20000a62:	af00      	add	r7, sp, #0
20000a64:	6078      	str	r0, [r7, #4]
20000a66:	000a      	movs	r2, r1
20000a68:	1cfb      	adds	r3, r7, #3
20000a6a:	701a      	strb	r2, [r3, #0]
20000a6c:	687b      	ldr	r3, [r7, #4]
20000a6e:	6819      	ldr	r1, [r3, #0]
20000a70:	1cfb      	adds	r3, r7, #3
20000a72:	781a      	ldrb	r2, [r3, #0]
20000a74:	0013      	movs	r3, r2
20000a76:	005b      	lsls	r3, r3, #1
20000a78:	189b      	adds	r3, r3, r2
20000a7a:	3b03      	subs	r3, #3
20000a7c:	18cb      	adds	r3, r1, r3
20000a7e:	0018      	movs	r0, r3
20000a80:	46bd      	mov	sp, r7
20000a82:	b002      	add	sp, #8
20000a84:	bd80      	pop	{r7, pc}

20000a86 <ph_add_child_node>:
20000a86:	b580      	push	{r7, lr}
20000a88:	b084      	sub	sp, #16
20000a8a:	af00      	add	r7, sp, #0
20000a8c:	6078      	str	r0, [r7, #4]
20000a8e:	0008      	movs	r0, r1
20000a90:	0011      	movs	r1, r2
20000a92:	1cfb      	adds	r3, r7, #3
20000a94:	1c02      	adds	r2, r0, #0
20000a96:	701a      	strb	r2, [r3, #0]
20000a98:	1cbb      	adds	r3, r7, #2
20000a9a:	1c0a      	adds	r2, r1, #0
20000a9c:	701a      	strb	r2, [r3, #0]
20000a9e:	1cfb      	adds	r3, r7, #3
20000aa0:	781a      	ldrb	r2, [r3, #0]
20000aa2:	687b      	ldr	r3, [r7, #4]
20000aa4:	0011      	movs	r1, r2
20000aa6:	0018      	movs	r0, r3
20000aa8:	f7ff ffd9 	bl	20000a5e <ph_get_node>
20000aac:	0003      	movs	r3, r0
20000aae:	60fb      	str	r3, [r7, #12]
20000ab0:	1cbb      	adds	r3, r7, #2
20000ab2:	781a      	ldrb	r2, [r3, #0]
20000ab4:	687b      	ldr	r3, [r7, #4]
20000ab6:	0011      	movs	r1, r2
20000ab8:	0018      	movs	r0, r3
20000aba:	f7ff ffd0 	bl	20000a5e <ph_get_node>
20000abe:	0003      	movs	r3, r0
20000ac0:	60bb      	str	r3, [r7, #8]
20000ac2:	68bb      	ldr	r3, [r7, #8]
20000ac4:	1cfa      	adds	r2, r7, #3
20000ac6:	7812      	ldrb	r2, [r2, #0]
20000ac8:	709a      	strb	r2, [r3, #2]
20000aca:	68fb      	ldr	r3, [r7, #12]
20000acc:	781b      	ldrb	r3, [r3, #0]
20000ace:	2b00      	cmp	r3, #0
20000ad0:	d104      	bne.n	20000adc <ph_add_child_node+0x56>
20000ad2:	68fb      	ldr	r3, [r7, #12]
20000ad4:	1cba      	adds	r2, r7, #2
20000ad6:	7812      	ldrb	r2, [r2, #0]
20000ad8:	701a      	strb	r2, [r3, #0]
20000ada:	e007      	b.n	20000aec <ph_add_child_node+0x66>
20000adc:	68fb      	ldr	r3, [r7, #12]
20000ade:	781a      	ldrb	r2, [r3, #0]
20000ae0:	68bb      	ldr	r3, [r7, #8]
20000ae2:	705a      	strb	r2, [r3, #1]
20000ae4:	68fb      	ldr	r3, [r7, #12]
20000ae6:	1cba      	adds	r2, r7, #2
20000ae8:	7812      	ldrb	r2, [r2, #0]
20000aea:	701a      	strb	r2, [r3, #0]
20000aec:	46c0      	nop			@ (mov r8, r8)
20000aee:	46bd      	mov	sp, r7
20000af0:	b004      	add	sp, #16
20000af2:	bd80      	pop	{r7, pc}

20000af4 <ph_merge_nodes>:
20000af4:	b590      	push	{r4, r7, lr}
20000af6:	b083      	sub	sp, #12
20000af8:	af00      	add	r7, sp, #0
20000afa:	6078      	str	r0, [r7, #4]
20000afc:	0008      	movs	r0, r1
20000afe:	0011      	movs	r1, r2
20000b00:	1cfb      	adds	r3, r7, #3
20000b02:	1c02      	adds	r2, r0, #0
20000b04:	701a      	strb	r2, [r3, #0]
20000b06:	1cbb      	adds	r3, r7, #2
20000b08:	1c0a      	adds	r2, r1, #0
20000b0a:	701a      	strb	r2, [r3, #0]
20000b0c:	1cfb      	adds	r3, r7, #3
20000b0e:	781b      	ldrb	r3, [r3, #0]
20000b10:	2b00      	cmp	r3, #0
20000b12:	d102      	bne.n	20000b1a <ph_merge_nodes+0x26>
20000b14:	1cbb      	adds	r3, r7, #2
20000b16:	781b      	ldrb	r3, [r3, #0]
20000b18:	e027      	b.n	20000b6a <ph_merge_nodes+0x76>
20000b1a:	1cbb      	adds	r3, r7, #2
20000b1c:	781b      	ldrb	r3, [r3, #0]
20000b1e:	2b00      	cmp	r3, #0
20000b20:	d102      	bne.n	20000b28 <ph_merge_nodes+0x34>
20000b22:	1cfb      	adds	r3, r7, #3
20000b24:	781b      	ldrb	r3, [r3, #0]
20000b26:	e020      	b.n	20000b6a <ph_merge_nodes+0x76>
20000b28:	687b      	ldr	r3, [r7, #4]
20000b2a:	685c      	ldr	r4, [r3, #4]
20000b2c:	687b      	ldr	r3, [r7, #4]
20000b2e:	6898      	ldr	r0, [r3, #8]
20000b30:	1cbb      	adds	r3, r7, #2
20000b32:	781a      	ldrb	r2, [r3, #0]
20000b34:	1cfb      	adds	r3, r7, #3
20000b36:	781b      	ldrb	r3, [r3, #0]
20000b38:	0019      	movs	r1, r3
20000b3a:	47a0      	blx	r4
20000b3c:	1e03      	subs	r3, r0, #0
20000b3e:	d00a      	beq.n	20000b56 <ph_merge_nodes+0x62>
20000b40:	1cbb      	adds	r3, r7, #2
20000b42:	781a      	ldrb	r2, [r3, #0]
20000b44:	1cfb      	adds	r3, r7, #3
20000b46:	7819      	ldrb	r1, [r3, #0]
20000b48:	687b      	ldr	r3, [r7, #4]
20000b4a:	0018      	movs	r0, r3
20000b4c:	f7ff ff9b 	bl	20000a86 <ph_add_child_node>
20000b50:	1cfb      	adds	r3, r7, #3
20000b52:	781b      	ldrb	r3, [r3, #0]
20000b54:	e009      	b.n	20000b6a <ph_merge_nodes+0x76>
20000b56:	1cfb      	adds	r3, r7, #3
20000b58:	781a      	ldrb	r2, [r3, #0]
20000b5a:	1cbb      	adds	r3, r7, #2
20000b5c:	7819      	ldrb	r1, [r3, #0]
20000b5e:	687b      	ldr	r3, [r7, #4]
20000b60:	0018      	movs	r0, r3
20000b62:	f7ff ff90 	bl	20000a86 <ph_add_child_node>
20000b66:	1cbb      	adds	r3, r7, #2
20000b68:	781b      	ldrb	r3, [r3, #0]
20000b6a:	0018      	movs	r0, r3
20000b6c:	46bd      	mov	sp, r7
20000b6e:	b003      	add	sp, #12
20000b70:	bd90      	pop	{r4, r7, pc}

20000b72 <ph_new_node>:
20000b72:	b580      	push	{r7, lr}
20000b74:	b084      	sub	sp, #16
20000b76:	af00      	add	r7, sp, #0
20000b78:	6078      	str	r0, [r7, #4]
20000b7a:	687b      	ldr	r3, [r7, #4]
20000b7c:	7b9b      	ldrb	r3, [r3, #14]
20000b7e:	2b00      	cmp	r3, #0
20000b80:	d101      	bne.n	20000b86 <ph_new_node+0x14>
20000b82:	2300      	movs	r3, #0
20000b84:	e026      	b.n	20000bd4 <ph_new_node+0x62>
20000b86:	210f      	movs	r1, #15
20000b88:	187b      	adds	r3, r7, r1
20000b8a:	687a      	ldr	r2, [r7, #4]
20000b8c:	7b92      	ldrb	r2, [r2, #14]
20000b8e:	701a      	strb	r2, [r3, #0]
20000b90:	187b      	adds	r3, r7, r1
20000b92:	781a      	ldrb	r2, [r3, #0]
20000b94:	687b      	ldr	r3, [r7, #4]
20000b96:	0011      	movs	r1, r2
20000b98:	0018      	movs	r0, r3
20000b9a:	f7ff ff60 	bl	20000a5e <ph_get_node>
20000b9e:	0003      	movs	r3, r0
20000ba0:	60bb      	str	r3, [r7, #8]
20000ba2:	68bb      	ldr	r3, [r7, #8]
20000ba4:	785a      	ldrb	r2, [r3, #1]
20000ba6:	687b      	ldr	r3, [r7, #4]
20000ba8:	739a      	strb	r2, [r3, #14]
20000baa:	687b      	ldr	r3, [r7, #4]
20000bac:	7b9b      	ldrb	r3, [r3, #14]
20000bae:	2b00      	cmp	r3, #0
20000bb0:	d102      	bne.n	20000bb8 <ph_new_node+0x46>
20000bb2:	687b      	ldr	r3, [r7, #4]
20000bb4:	2200      	movs	r2, #0
20000bb6:	73da      	strb	r2, [r3, #15]
20000bb8:	68bb      	ldr	r3, [r7, #8]
20000bba:	2200      	movs	r2, #0
20000bbc:	709a      	strb	r2, [r3, #2]
20000bbe:	68bb      	ldr	r3, [r7, #8]
20000bc0:	789a      	ldrb	r2, [r3, #2]
20000bc2:	68bb      	ldr	r3, [r7, #8]
20000bc4:	705a      	strb	r2, [r3, #1]
20000bc6:	68bb      	ldr	r3, [r7, #8]
20000bc8:	785a      	ldrb	r2, [r3, #1]
20000bca:	68bb      	ldr	r3, [r7, #8]
20000bcc:	701a      	strb	r2, [r3, #0]
20000bce:	230f      	movs	r3, #15
20000bd0:	18fb      	adds	r3, r7, r3
20000bd2:	781b      	ldrb	r3, [r3, #0]
20000bd4:	0018      	movs	r0, r3
20000bd6:	46bd      	mov	sp, r7
20000bd8:	b004      	add	sp, #16
20000bda:	bd80      	pop	{r7, pc}

20000bdc <ph_insert_node>:
20000bdc:	b580      	push	{r7, lr}
20000bde:	b084      	sub	sp, #16
20000be0:	af00      	add	r7, sp, #0
20000be2:	6078      	str	r0, [r7, #4]
20000be4:	000a      	movs	r2, r1
20000be6:	1cfb      	adds	r3, r7, #3
20000be8:	701a      	strb	r2, [r3, #0]
20000bea:	1cfb      	adds	r3, r7, #3
20000bec:	781a      	ldrb	r2, [r3, #0]
20000bee:	687b      	ldr	r3, [r7, #4]
20000bf0:	0011      	movs	r1, r2
20000bf2:	0018      	movs	r0, r3
20000bf4:	f7ff ff33 	bl	20000a5e <ph_get_node>
20000bf8:	0003      	movs	r3, r0
20000bfa:	60fb      	str	r3, [r7, #12]
20000bfc:	68fb      	ldr	r3, [r7, #12]
20000bfe:	2200      	movs	r2, #0
20000c00:	709a      	strb	r2, [r3, #2]
20000c02:	68fb      	ldr	r3, [r7, #12]
20000c04:	789a      	ldrb	r2, [r3, #2]
20000c06:	68fb      	ldr	r3, [r7, #12]
20000c08:	705a      	strb	r2, [r3, #1]
20000c0a:	68fb      	ldr	r3, [r7, #12]
20000c0c:	785a      	ldrb	r2, [r3, #1]
20000c0e:	68fb      	ldr	r3, [r7, #12]
20000c10:	701a      	strb	r2, [r3, #0]
20000c12:	687b      	ldr	r3, [r7, #4]
20000c14:	7b59      	ldrb	r1, [r3, #13]
20000c16:	1cfb      	adds	r3, r7, #3
20000c18:	781a      	ldrb	r2, [r3, #0]
20000c1a:	687b      	ldr	r3, [r7, #4]
20000c1c:	0018      	movs	r0, r3
20000c1e:	f7ff ff69 	bl	20000af4 <ph_merge_nodes>
20000c22:	0003      	movs	r3, r0
20000c24:	001a      	movs	r2, r3
20000c26:	687b      	ldr	r3, [r7, #4]
20000c28:	735a      	strb	r2, [r3, #13]
20000c2a:	687b      	ldr	r3, [r7, #4]
20000c2c:	7b5b      	ldrb	r3, [r3, #13]
20000c2e:	0018      	movs	r0, r3
20000c30:	46bd      	mov	sp, r7
20000c32:	b004      	add	sp, #16
20000c34:	bd80      	pop	{r7, pc}

20000c36 <ph_peek_head>:
20000c36:	b580      	push	{r7, lr}
20000c38:	b082      	sub	sp, #8
20000c3a:	af00      	add	r7, sp, #0
20000c3c:	6078      	str	r0, [r7, #4]
20000c3e:	687b      	ldr	r3, [r7, #4]
20000c40:	7b5b      	ldrb	r3, [r3, #13]
20000c42:	0018      	movs	r0, r3
20000c44:	46bd      	mov	sp, r7
20000c46:	b002      	add	sp, #8
20000c48:	bd80      	pop	{r7, pc}

20000c4a <ph_contains_node>:
20000c4a:	b580      	push	{r7, lr}
20000c4c:	b082      	sub	sp, #8
20000c4e:	af00      	add	r7, sp, #0
20000c50:	6078      	str	r0, [r7, #4]
20000c52:	000a      	movs	r2, r1
20000c54:	1cfb      	adds	r3, r7, #3
20000c56:	701a      	strb	r2, [r3, #0]
20000c58:	687b      	ldr	r3, [r7, #4]
20000c5a:	7b5b      	ldrb	r3, [r3, #13]
20000c5c:	1cfa      	adds	r2, r7, #3
20000c5e:	7812      	ldrb	r2, [r2, #0]
20000c60:	429a      	cmp	r2, r3
20000c62:	d00a      	beq.n	20000c7a <ph_contains_node+0x30>
20000c64:	1cfb      	adds	r3, r7, #3
20000c66:	781a      	ldrb	r2, [r3, #0]
20000c68:	687b      	ldr	r3, [r7, #4]
20000c6a:	0011      	movs	r1, r2
20000c6c:	0018      	movs	r0, r3
20000c6e:	f7ff fef6 	bl	20000a5e <ph_get_node>
20000c72:	0003      	movs	r3, r0
20000c74:	789b      	ldrb	r3, [r3, #2]
20000c76:	2b00      	cmp	r3, #0
20000c78:	d001      	beq.n	20000c7e <ph_contains_node+0x34>
20000c7a:	2301      	movs	r3, #1
20000c7c:	e000      	b.n	20000c80 <ph_contains_node+0x36>
20000c7e:	2300      	movs	r3, #0
20000c80:	1c1a      	adds	r2, r3, #0
20000c82:	2301      	movs	r3, #1
20000c84:	4013      	ands	r3, r2
20000c86:	b2db      	uxtb	r3, r3
20000c88:	0018      	movs	r0, r3
20000c8a:	46bd      	mov	sp, r7
20000c8c:	b002      	add	sp, #8
20000c8e:	bd80      	pop	{r7, pc}

20000c90 <ph_free_node>:
20000c90:	b580      	push	{r7, lr}
20000c92:	b082      	sub	sp, #8
20000c94:	af00      	add	r7, sp, #0
20000c96:	6078      	str	r0, [r7, #4]
20000c98:	000a      	movs	r2, r1
20000c9a:	1cfb      	adds	r3, r7, #3
20000c9c:	701a      	strb	r2, [r3, #0]
20000c9e:	687b      	ldr	r3, [r7, #4]
20000ca0:	7bdb      	ldrb	r3, [r3, #15]
20000ca2:	2b00      	cmp	r3, #0
20000ca4:	d00a      	beq.n	20000cbc <ph_free_node+0x2c>
20000ca6:	687b      	ldr	r3, [r7, #4]
20000ca8:	7bda      	ldrb	r2, [r3, #15]
20000caa:	687b      	ldr	r3, [r7, #4]
20000cac:	0011      	movs	r1, r2
20000cae:	0018      	movs	r0, r3
20000cb0:	f7ff fed5 	bl	20000a5e <ph_get_node>
20000cb4:	0002      	movs	r2, r0
20000cb6:	1cfb      	adds	r3, r7, #3
20000cb8:	781b      	ldrb	r3, [r3, #0]
20000cba:	7053      	strb	r3, [r2, #1]
20000cbc:	687b      	ldr	r3, [r7, #4]
20000cbe:	7b9b      	ldrb	r3, [r3, #14]
20000cc0:	2b00      	cmp	r3, #0
20000cc2:	d103      	bne.n	20000ccc <ph_free_node+0x3c>
20000cc4:	687b      	ldr	r3, [r7, #4]
20000cc6:	1cfa      	adds	r2, r7, #3
20000cc8:	7812      	ldrb	r2, [r2, #0]
20000cca:	739a      	strb	r2, [r3, #14]
20000ccc:	687b      	ldr	r3, [r7, #4]
20000cce:	1cfa      	adds	r2, r7, #3
20000cd0:	7812      	ldrb	r2, [r2, #0]
20000cd2:	73da      	strb	r2, [r3, #15]
20000cd4:	46c0      	nop			@ (mov r8, r8)
20000cd6:	46bd      	mov	sp, r7
20000cd8:	b002      	add	sp, #8
20000cda:	bd80      	pop	{r7, pc}

20000cdc <default_alarm_pool_initialized>:
20000cdc:	b580      	push	{r7, lr}
20000cde:	af00      	add	r7, sp, #0
20000ce0:	4b03      	ldr	r3, [pc, #12]	@ (20000cf0 <default_alarm_pool_initialized+0x14>)
20000ce2:	685b      	ldr	r3, [r3, #4]
20000ce4:	1e5a      	subs	r2, r3, #1
20000ce6:	4193      	sbcs	r3, r2
20000ce8:	b2db      	uxtb	r3, r3
20000cea:	0018      	movs	r0, r3
20000cec:	46bd      	mov	sp, r7
20000cee:	bd80      	pop	{r7, pc}
20000cf0:	2000b0d4 	.word	0x2000b0d4

20000cf4 <get_entry>:
20000cf4:	b580      	push	{r7, lr}
20000cf6:	b082      	sub	sp, #8
20000cf8:	af00      	add	r7, sp, #0
20000cfa:	6078      	str	r0, [r7, #4]
20000cfc:	000a      	movs	r2, r1
20000cfe:	1cfb      	adds	r3, r7, #3
20000d00:	701a      	strb	r2, [r3, #0]
20000d02:	687b      	ldr	r3, [r7, #4]
20000d04:	689a      	ldr	r2, [r3, #8]
20000d06:	1cfb      	adds	r3, r7, #3
20000d08:	781b      	ldrb	r3, [r3, #0]
20000d0a:	4904      	ldr	r1, [pc, #16]	@ (20000d1c <get_entry+0x28>)
20000d0c:	468c      	mov	ip, r1
20000d0e:	4463      	add	r3, ip
20000d10:	011b      	lsls	r3, r3, #4
20000d12:	18d3      	adds	r3, r2, r3
20000d14:	0018      	movs	r0, r3
20000d16:	46bd      	mov	sp, r7
20000d18:	b002      	add	sp, #8
20000d1a:	bd80      	pop	{r7, pc}
20000d1c:	0fffffff 	.word	0x0fffffff

20000d20 <get_entry_id_high>:
20000d20:	b580      	push	{r7, lr}
20000d22:	b082      	sub	sp, #8
20000d24:	af00      	add	r7, sp, #0
20000d26:	6078      	str	r0, [r7, #4]
20000d28:	000a      	movs	r2, r1
20000d2a:	1cfb      	adds	r3, r7, #3
20000d2c:	701a      	strb	r2, [r3, #0]
20000d2e:	687b      	ldr	r3, [r7, #4]
20000d30:	68da      	ldr	r2, [r3, #12]
20000d32:	1cfb      	adds	r3, r7, #3
20000d34:	781b      	ldrb	r3, [r3, #0]
20000d36:	3b01      	subs	r3, #1
20000d38:	18d3      	adds	r3, r2, r3
20000d3a:	0018      	movs	r0, r3
20000d3c:	46bd      	mov	sp, r7
20000d3e:	b002      	add	sp, #8
20000d40:	bd80      	pop	{r7, pc}

20000d42 <timer_pool_entry_comparator>:
20000d42:	b5b0      	push	{r4, r5, r7, lr}
20000d44:	b084      	sub	sp, #16
20000d46:	af00      	add	r7, sp, #0
20000d48:	6078      	str	r0, [r7, #4]
20000d4a:	0008      	movs	r0, r1
20000d4c:	0011      	movs	r1, r2
20000d4e:	1cfb      	adds	r3, r7, #3
20000d50:	1c02      	adds	r2, r0, #0
20000d52:	701a      	strb	r2, [r3, #0]
20000d54:	1cbb      	adds	r3, r7, #2
20000d56:	1c0a      	adds	r2, r1, #0
20000d58:	701a      	strb	r2, [r3, #0]
20000d5a:	687b      	ldr	r3, [r7, #4]
20000d5c:	60fb      	str	r3, [r7, #12]
20000d5e:	1cfb      	adds	r3, r7, #3
20000d60:	781a      	ldrb	r2, [r3, #0]
20000d62:	68fb      	ldr	r3, [r7, #12]
20000d64:	0011      	movs	r1, r2
20000d66:	0018      	movs	r0, r3
20000d68:	f7ff ffc4 	bl	20000cf4 <get_entry>
20000d6c:	0003      	movs	r3, r0
20000d6e:	681a      	ldr	r2, [r3, #0]
20000d70:	685b      	ldr	r3, [r3, #4]
20000d72:	0010      	movs	r0, r2
20000d74:	0019      	movs	r1, r3
20000d76:	f7ff fd95 	bl	200008a4 <to_us_since_boot>
20000d7a:	0004      	movs	r4, r0
20000d7c:	000d      	movs	r5, r1
20000d7e:	1cbb      	adds	r3, r7, #2
20000d80:	781a      	ldrb	r2, [r3, #0]
20000d82:	68fb      	ldr	r3, [r7, #12]
20000d84:	0011      	movs	r1, r2
20000d86:	0018      	movs	r0, r3
20000d88:	f7ff ffb4 	bl	20000cf4 <get_entry>
20000d8c:	0003      	movs	r3, r0
20000d8e:	681a      	ldr	r2, [r3, #0]
20000d90:	685b      	ldr	r3, [r3, #4]
20000d92:	0010      	movs	r0, r2
20000d94:	0019      	movs	r1, r3
20000d96:	f7ff fd85 	bl	200008a4 <to_us_since_boot>
20000d9a:	0002      	movs	r2, r0
20000d9c:	000b      	movs	r3, r1
20000d9e:	2101      	movs	r1, #1
20000da0:	42ab      	cmp	r3, r5
20000da2:	d804      	bhi.n	20000dae <timer_pool_entry_comparator+0x6c>
20000da4:	d101      	bne.n	20000daa <timer_pool_entry_comparator+0x68>
20000da6:	42a2      	cmp	r2, r4
20000da8:	d801      	bhi.n	20000dae <timer_pool_entry_comparator+0x6c>
20000daa:	2300      	movs	r3, #0
20000dac:	1c19      	adds	r1, r3, #0
20000dae:	b2cb      	uxtb	r3, r1
20000db0:	0018      	movs	r0, r3
20000db2:	46bd      	mov	sp, r7
20000db4:	b004      	add	sp, #16
20000db6:	bdb0      	pop	{r4, r5, r7, pc}

20000db8 <make_public_id>:
20000db8:	b580      	push	{r7, lr}
20000dba:	b082      	sub	sp, #8
20000dbc:	af00      	add	r7, sp, #0
20000dbe:	0002      	movs	r2, r0
20000dc0:	1dfb      	adds	r3, r7, #7
20000dc2:	701a      	strb	r2, [r3, #0]
20000dc4:	1dbb      	adds	r3, r7, #6
20000dc6:	1c0a      	adds	r2, r1, #0
20000dc8:	701a      	strb	r2, [r3, #0]
20000dca:	1dfb      	adds	r3, r7, #7
20000dcc:	781b      	ldrb	r3, [r3, #0]
20000dce:	021a      	lsls	r2, r3, #8
20000dd0:	1dbb      	adds	r3, r7, #6
20000dd2:	781b      	ldrb	r3, [r3, #0]
20000dd4:	4313      	orrs	r3, r2
20000dd6:	0018      	movs	r0, r3
20000dd8:	46bd      	mov	sp, r7
20000dda:	b002      	add	sp, #8
20000ddc:	bd80      	pop	{r7, pc}
	...

20000de0 <alarm_pool_init_default>:
20000de0:	b580      	push	{r7, lr}
20000de2:	af00      	add	r7, sp, #0
20000de4:	f7ff ff7a 	bl	20000cdc <default_alarm_pool_initialized>
20000de8:	0003      	movs	r3, r0
20000dea:	001a      	movs	r2, r3
20000dec:	2301      	movs	r3, #1
20000dee:	4053      	eors	r3, r2
20000df0:	b2db      	uxtb	r3, r3
20000df2:	2b00      	cmp	r3, #0
20000df4:	d00e      	beq.n	20000e14 <alarm_pool_init_default+0x34>
20000df6:	4b0b      	ldr	r3, [pc, #44]	@ (20000e24 <alarm_pool_init_default+0x44>)
20000df8:	6818      	ldr	r0, [r3, #0]
20000dfa:	4b0a      	ldr	r3, [pc, #40]	@ (20000e24 <alarm_pool_init_default+0x44>)
20000dfc:	4a0a      	ldr	r2, [pc, #40]	@ (20000e28 <alarm_pool_init_default+0x48>)
20000dfe:	2110      	movs	r1, #16
20000e00:	f001 fe16 	bl	20002a30 <ph_post_alloc_init>
20000e04:	2003      	movs	r0, #3
20000e06:	f000 fc17 	bl	20001638 <hardware_alarm_claim>
20000e0a:	4b06      	ldr	r3, [pc, #24]	@ (20000e24 <alarm_pool_init_default+0x44>)
20000e0c:	2103      	movs	r1, #3
20000e0e:	0018      	movs	r0, r3
20000e10:	f000 f9fa 	bl	20001208 <alarm_pool_post_alloc_init>
20000e14:	4b05      	ldr	r3, [pc, #20]	@ (20000e2c <alarm_pool_init_default+0x4c>)
20000e16:	210a      	movs	r1, #10
20000e18:	0018      	movs	r0, r3
20000e1a:	f7ff fc53 	bl	200006c4 <lock_init>
20000e1e:	46c0      	nop			@ (mov r8, r8)
20000e20:	46bd      	mov	sp, r7
20000e22:	bd80      	pop	{r7, pc}
20000e24:	2000b0d4 	.word	0x2000b0d4
20000e28:	20000d43 	.word	0x20000d43
20000e2c:	2000bf1c 	.word	0x2000bf1c

20000e30 <alarm_pool_get_default>:
20000e30:	b580      	push	{r7, lr}
20000e32:	af00      	add	r7, sp, #0
20000e34:	4b01      	ldr	r3, [pc, #4]	@ (20000e3c <alarm_pool_get_default+0xc>)
20000e36:	0018      	movs	r0, r3
20000e38:	46bd      	mov	sp, r7
20000e3a:	bd80      	pop	{r7, pc}
20000e3c:	2000b0d4 	.word	0x2000b0d4

20000e40 <add_alarm_under_lock>:
20000e40:	b5f0      	push	{r4, r5, r6, r7, lr}
20000e42:	b089      	sub	sp, #36	@ 0x24
20000e44:	af00      	add	r7, sp, #0
20000e46:	60f8      	str	r0, [r7, #12]
20000e48:	603a      	str	r2, [r7, #0]
20000e4a:	607b      	str	r3, [r7, #4]
20000e4c:	2238      	movs	r2, #56	@ 0x38
20000e4e:	2108      	movs	r1, #8
20000e50:	1853      	adds	r3, r2, r1
20000e52:	19db      	adds	r3, r3, r7
20000e54:	781b      	ldrb	r3, [r3, #0]
20000e56:	2b00      	cmp	r3, #0
20000e58:	d006      	beq.n	20000e68 <add_alarm_under_lock+0x28>
20000e5a:	231f      	movs	r3, #31
20000e5c:	18fb      	adds	r3, r7, r3
20000e5e:	1852      	adds	r2, r2, r1
20000e60:	19d2      	adds	r2, r2, r7
20000e62:	7812      	ldrb	r2, [r2, #0]
20000e64:	701a      	strb	r2, [r3, #0]
20000e66:	e008      	b.n	20000e7a <add_alarm_under_lock+0x3a>
20000e68:	68fb      	ldr	r3, [r7, #12]
20000e6a:	681b      	ldr	r3, [r3, #0]
20000e6c:	221f      	movs	r2, #31
20000e6e:	18bc      	adds	r4, r7, r2
20000e70:	0018      	movs	r0, r3
20000e72:	f7ff fe7e 	bl	20000b72 <ph_new_node>
20000e76:	0003      	movs	r3, r0
20000e78:	7023      	strb	r3, [r4, #0]
20000e7a:	251f      	movs	r5, #31
20000e7c:	197b      	adds	r3, r7, r5
20000e7e:	781b      	ldrb	r3, [r3, #0]
20000e80:	2b00      	cmp	r3, #0
20000e82:	d04b      	beq.n	20000f1c <add_alarm_under_lock+0xdc>
20000e84:	197b      	adds	r3, r7, r5
20000e86:	781a      	ldrb	r2, [r3, #0]
20000e88:	68fb      	ldr	r3, [r7, #12]
20000e8a:	0011      	movs	r1, r2
20000e8c:	0018      	movs	r0, r3
20000e8e:	f7ff ff31 	bl	20000cf4 <get_entry>
20000e92:	0003      	movs	r3, r0
20000e94:	61bb      	str	r3, [r7, #24]
20000e96:	69b9      	ldr	r1, [r7, #24]
20000e98:	683a      	ldr	r2, [r7, #0]
20000e9a:	687b      	ldr	r3, [r7, #4]
20000e9c:	600a      	str	r2, [r1, #0]
20000e9e:	604b      	str	r3, [r1, #4]
20000ea0:	69bb      	ldr	r3, [r7, #24]
20000ea2:	6bba      	ldr	r2, [r7, #56]	@ 0x38
20000ea4:	609a      	str	r2, [r3, #8]
20000ea6:	69bb      	ldr	r3, [r7, #24]
20000ea8:	6bfa      	ldr	r2, [r7, #60]	@ 0x3c
20000eaa:	60da      	str	r2, [r3, #12]
20000eac:	68fb      	ldr	r3, [r7, #12]
20000eae:	681a      	ldr	r2, [r3, #0]
20000eb0:	197b      	adds	r3, r7, r5
20000eb2:	781b      	ldrb	r3, [r3, #0]
20000eb4:	0019      	movs	r1, r3
20000eb6:	0010      	movs	r0, r2
20000eb8:	f7ff fe90 	bl	20000bdc <ph_insert_node>
20000ebc:	0003      	movs	r3, r0
20000ebe:	001a      	movs	r2, r3
20000ec0:	197b      	adds	r3, r7, r5
20000ec2:	781b      	ldrb	r3, [r3, #0]
20000ec4:	4293      	cmp	r3, r2
20000ec6:	d129      	bne.n	20000f1c <add_alarm_under_lock+0xdc>
20000ec8:	68fb      	ldr	r3, [r7, #12]
20000eca:	7d1b      	ldrb	r3, [r3, #20]
20000ecc:	0019      	movs	r1, r3
20000ece:	2617      	movs	r6, #23
20000ed0:	19bc      	adds	r4, r7, r6
20000ed2:	683a      	ldr	r2, [r7, #0]
20000ed4:	687b      	ldr	r3, [r7, #4]
20000ed6:	0008      	movs	r0, r1
20000ed8:	f000 fd36 	bl	20001948 <hardware_alarm_set_target>
20000edc:	0003      	movs	r3, r0
20000ede:	7023      	strb	r3, [r4, #0]
20000ee0:	19bb      	adds	r3, r7, r6
20000ee2:	781b      	ldrb	r3, [r3, #0]
20000ee4:	2b00      	cmp	r3, #0
20000ee6:	d011      	beq.n	20000f0c <add_alarm_under_lock+0xcc>
20000ee8:	233c      	movs	r3, #60	@ 0x3c
20000eea:	2208      	movs	r2, #8
20000eec:	189b      	adds	r3, r3, r2
20000eee:	19db      	adds	r3, r3, r7
20000ef0:	781b      	ldrb	r3, [r3, #0]
20000ef2:	2201      	movs	r2, #1
20000ef4:	4053      	eors	r3, r2
20000ef6:	b2db      	uxtb	r3, r3
20000ef8:	2b00      	cmp	r3, #0
20000efa:	d007      	beq.n	20000f0c <add_alarm_under_lock+0xcc>
20000efc:	68fb      	ldr	r3, [r7, #12]
20000efe:	681a      	ldr	r2, [r3, #0]
20000f00:	197b      	adds	r3, r7, r5
20000f02:	781b      	ldrb	r3, [r3, #0]
20000f04:	0019      	movs	r1, r3
20000f06:	0010      	movs	r0, r2
20000f08:	f001 fece 	bl	20002ca8 <ph_remove_and_free_node>
20000f0c:	6cbb      	ldr	r3, [r7, #72]	@ 0x48
20000f0e:	2b00      	cmp	r3, #0
20000f10:	d004      	beq.n	20000f1c <add_alarm_under_lock+0xdc>
20000f12:	6cbb      	ldr	r3, [r7, #72]	@ 0x48
20000f14:	2217      	movs	r2, #23
20000f16:	18ba      	adds	r2, r7, r2
20000f18:	7812      	ldrb	r2, [r2, #0]
20000f1a:	701a      	strb	r2, [r3, #0]
20000f1c:	231f      	movs	r3, #31
20000f1e:	18fb      	adds	r3, r7, r3
20000f20:	781b      	ldrb	r3, [r3, #0]
20000f22:	0018      	movs	r0, r3
20000f24:	46bd      	mov	sp, r7
20000f26:	b009      	add	sp, #36	@ 0x24
20000f28:	bdf0      	pop	{r4, r5, r6, r7, pc}
	...

20000f2c <alarm_pool_alarm_callback>:
20000f2c:	b5b0      	push	{r4, r5, r7, lr}
20000f2e:	b0a8      	sub	sp, #160	@ 0xa0
20000f30:	af06      	add	r7, sp, #24
20000f32:	6078      	str	r0, [r7, #4]
20000f34:	4bb3      	ldr	r3, [pc, #716]	@ (20001204 <alarm_pool_alarm_callback+0x2d8>)
20000f36:	687a      	ldr	r2, [r7, #4]
20000f38:	0092      	lsls	r2, r2, #2
20000f3a:	58d3      	ldr	r3, [r2, r3]
20000f3c:	66fb      	str	r3, [r7, #108]	@ 0x6c
20000f3e:	f7ff fcff 	bl	20000940 <get_absolute_time>
20000f42:	0002      	movs	r2, r0
20000f44:	000b      	movs	r3, r1
20000f46:	663a      	str	r2, [r7, #96]	@ 0x60
20000f48:	667b      	str	r3, [r7, #100]	@ 0x64
20000f4a:	2300      	movs	r3, #0
20000f4c:	2280      	movs	r2, #128	@ 0x80
20000f4e:	18ba      	adds	r2, r7, r2
20000f50:	6013      	str	r3, [r2, #0]
20000f52:	2200      	movs	r2, #0
20000f54:	2300      	movs	r3, #0
20000f56:	67ba      	str	r2, [r7, #120]	@ 0x78
20000f58:	67fb      	str	r3, [r7, #124]	@ 0x7c
20000f5a:	2300      	movs	r3, #0
20000f5c:	677b      	str	r3, [r7, #116]	@ 0x74
20000f5e:	2387      	movs	r3, #135	@ 0x87
20000f60:	18fb      	adds	r3, r7, r3
20000f62:	2200      	movs	r2, #0
20000f64:	701a      	strb	r2, [r3, #0]
20000f66:	6efb      	ldr	r3, [r7, #108]	@ 0x6c
20000f68:	685b      	ldr	r3, [r3, #4]
20000f6a:	647b      	str	r3, [r7, #68]	@ 0x44
20000f6c:	f3ef 8310 	mrs	r3, PRIMASK
20000f70:	b672      	cpsid	i
20000f72:	643b      	str	r3, [r7, #64]	@ 0x40
20000f74:	6c3b      	ldr	r3, [r7, #64]	@ 0x40
20000f76:	63fb      	str	r3, [r7, #60]	@ 0x3c
20000f78:	6c7b      	ldr	r3, [r7, #68]	@ 0x44
20000f7a:	63bb      	str	r3, [r7, #56]	@ 0x38
20000f7c:	46c0      	nop			@ (mov r8, r8)
20000f7e:	6bbb      	ldr	r3, [r7, #56]	@ 0x38
20000f80:	681b      	ldr	r3, [r3, #0]
20000f82:	425a      	negs	r2, r3
20000f84:	4153      	adcs	r3, r2
20000f86:	b2db      	uxtb	r3, r3
20000f88:	2b00      	cmp	r3, #0
20000f8a:	d1f8      	bne.n	20000f7e <alarm_pool_alarm_callback+0x52>
20000f8c:	f3bf 8f5f 	dmb	sy
20000f90:	46c0      	nop			@ (mov r8, r8)
20000f92:	46c0      	nop			@ (mov r8, r8)
20000f94:	46c0      	nop			@ (mov r8, r8)
20000f96:	6bfb      	ldr	r3, [r7, #60]	@ 0x3c
20000f98:	65fb      	str	r3, [r7, #92]	@ 0x5c
20000f9a:	6efb      	ldr	r3, [r7, #108]	@ 0x6c
20000f9c:	681b      	ldr	r3, [r3, #0]
20000f9e:	255b      	movs	r5, #91	@ 0x5b
20000fa0:	197c      	adds	r4, r7, r5
20000fa2:	0018      	movs	r0, r3
20000fa4:	f7ff fe47 	bl	20000c36 <ph_peek_head>
20000fa8:	0003      	movs	r3, r0
20000faa:	7023      	strb	r3, [r4, #0]
20000fac:	197b      	adds	r3, r7, r5
20000fae:	781b      	ldrb	r3, [r3, #0]
20000fb0:	2b00      	cmp	r3, #0
20000fb2:	d053      	beq.n	2000105c <alarm_pool_alarm_callback+0x130>
20000fb4:	197b      	adds	r3, r7, r5
20000fb6:	781a      	ldrb	r2, [r3, #0]
20000fb8:	6efb      	ldr	r3, [r7, #108]	@ 0x6c
20000fba:	0011      	movs	r1, r2
20000fbc:	0018      	movs	r0, r3
20000fbe:	f7ff fe99 	bl	20000cf4 <get_entry>
20000fc2:	0003      	movs	r3, r0
20000fc4:	657b      	str	r3, [r7, #84]	@ 0x54
20000fc6:	6d7b      	ldr	r3, [r7, #84]	@ 0x54
20000fc8:	681a      	ldr	r2, [r3, #0]
20000fca:	685b      	ldr	r3, [r3, #4]
20000fcc:	6e38      	ldr	r0, [r7, #96]	@ 0x60
20000fce:	6e79      	ldr	r1, [r7, #100]	@ 0x64
20000fd0:	f7ff fcfa 	bl	200009c8 <absolute_time_diff_us>
20000fd4:	0002      	movs	r2, r0
20000fd6:	000b      	movs	r3, r1
20000fd8:	2b00      	cmp	r3, #0
20000fda:	dc32      	bgt.n	20001042 <alarm_pool_alarm_callback+0x116>
20000fdc:	d101      	bne.n	20000fe2 <alarm_pool_alarm_callback+0xb6>
20000fde:	2a00      	cmp	r2, #0
20000fe0:	d12f      	bne.n	20001042 <alarm_pool_alarm_callback+0x116>
20000fe2:	6efb      	ldr	r3, [r7, #108]	@ 0x6c
20000fe4:	681b      	ldr	r3, [r3, #0]
20000fe6:	2553      	movs	r5, #83	@ 0x53
20000fe8:	197c      	adds	r4, r7, r5
20000fea:	2100      	movs	r1, #0
20000fec:	0018      	movs	r0, r3
20000fee:	f001 fe39 	bl	20002c64 <ph_remove_head>
20000ff2:	0003      	movs	r3, r0
20000ff4:	7023      	strb	r3, [r4, #0]
20000ff6:	6d7b      	ldr	r3, [r7, #84]	@ 0x54
20000ff8:	681a      	ldr	r2, [r3, #0]
20000ffa:	685b      	ldr	r3, [r3, #4]
20000ffc:	67ba      	str	r2, [r7, #120]	@ 0x78
20000ffe:	67fb      	str	r3, [r7, #124]	@ 0x7c
20001000:	6d7b      	ldr	r3, [r7, #84]	@ 0x54
20001002:	689b      	ldr	r3, [r3, #8]
20001004:	2280      	movs	r2, #128	@ 0x80
20001006:	18ba      	adds	r2, r7, r2
20001008:	6013      	str	r3, [r2, #0]
2000100a:	6d7b      	ldr	r3, [r7, #84]	@ 0x54
2000100c:	68db      	ldr	r3, [r3, #12]
2000100e:	677b      	str	r3, [r7, #116]	@ 0x74
20001010:	235b      	movs	r3, #91	@ 0x5b
20001012:	18fb      	adds	r3, r7, r3
20001014:	781a      	ldrb	r2, [r3, #0]
20001016:	6efb      	ldr	r3, [r7, #108]	@ 0x6c
20001018:	0011      	movs	r1, r2
2000101a:	0018      	movs	r0, r3
2000101c:	f7ff fe80 	bl	20000d20 <get_entry_id_high>
20001020:	0002      	movs	r2, r0
20001022:	2173      	movs	r1, #115	@ 0x73
20001024:	187b      	adds	r3, r7, r1
20001026:	7812      	ldrb	r2, [r2, #0]
20001028:	701a      	strb	r2, [r3, #0]
2000102a:	197b      	adds	r3, r7, r5
2000102c:	781a      	ldrb	r2, [r3, #0]
2000102e:	187b      	adds	r3, r7, r1
20001030:	781b      	ldrb	r3, [r3, #0]
20001032:	0011      	movs	r1, r2
20001034:	0018      	movs	r0, r3
20001036:	f7ff febf 	bl	20000db8 <make_public_id>
2000103a:	0002      	movs	r2, r0
2000103c:	6efb      	ldr	r3, [r7, #108]	@ 0x6c
2000103e:	611a      	str	r2, [r3, #16]
20001040:	e00c      	b.n	2000105c <alarm_pool_alarm_callback+0x130>
20001042:	6d7b      	ldr	r3, [r7, #84]	@ 0x54
20001044:	681a      	ldr	r2, [r3, #0]
20001046:	685b      	ldr	r3, [r3, #4]
20001048:	6879      	ldr	r1, [r7, #4]
2000104a:	0008      	movs	r0, r1
2000104c:	f000 fc7c 	bl	20001948 <hardware_alarm_set_target>
20001050:	1e03      	subs	r3, r0, #0
20001052:	d003      	beq.n	2000105c <alarm_pool_alarm_callback+0x130>
20001054:	2387      	movs	r3, #135	@ 0x87
20001056:	18fb      	adds	r3, r7, r3
20001058:	2201      	movs	r2, #1
2000105a:	701a      	strb	r2, [r3, #0]
2000105c:	6efb      	ldr	r3, [r7, #108]	@ 0x6c
2000105e:	685b      	ldr	r3, [r3, #4]
20001060:	637b      	str	r3, [r7, #52]	@ 0x34
20001062:	6dfb      	ldr	r3, [r7, #92]	@ 0x5c
20001064:	633b      	str	r3, [r7, #48]	@ 0x30
20001066:	6b7b      	ldr	r3, [r7, #52]	@ 0x34
20001068:	62fb      	str	r3, [r7, #44]	@ 0x2c
2000106a:	f3bf 8f5f 	dmb	sy
2000106e:	46c0      	nop			@ (mov r8, r8)
20001070:	46c0      	nop			@ (mov r8, r8)
20001072:	6afb      	ldr	r3, [r7, #44]	@ 0x2c
20001074:	2200      	movs	r2, #0
20001076:	601a      	str	r2, [r3, #0]
20001078:	46c0      	nop			@ (mov r8, r8)
2000107a:	6b3b      	ldr	r3, [r7, #48]	@ 0x30
2000107c:	62bb      	str	r3, [r7, #40]	@ 0x28
2000107e:	6abb      	ldr	r3, [r7, #40]	@ 0x28
20001080:	f383 8810 	msr	PRIMASK, r3
20001084:	46c0      	nop			@ (mov r8, r8)
20001086:	46c0      	nop			@ (mov r8, r8)
20001088:	2480      	movs	r4, #128	@ 0x80
2000108a:	193b      	adds	r3, r7, r4
2000108c:	681b      	ldr	r3, [r3, #0]
2000108e:	2b00      	cmp	r3, #0
20001090:	d100      	bne.n	20001094 <alarm_pool_alarm_callback+0x168>
20001092:	e0ac      	b.n	200011ee <alarm_pool_alarm_callback+0x2c2>
20001094:	235b      	movs	r3, #91	@ 0x5b
20001096:	18fb      	adds	r3, r7, r3
20001098:	781a      	ldrb	r2, [r3, #0]
2000109a:	2373      	movs	r3, #115	@ 0x73
2000109c:	18fb      	adds	r3, r7, r3
2000109e:	781b      	ldrb	r3, [r3, #0]
200010a0:	0011      	movs	r1, r2
200010a2:	0018      	movs	r0, r3
200010a4:	f7ff fe88 	bl	20000db8 <make_public_id>
200010a8:	6f7a      	ldr	r2, [r7, #116]	@ 0x74
200010aa:	193b      	adds	r3, r7, r4
200010ac:	681b      	ldr	r3, [r3, #0]
200010ae:	0011      	movs	r1, r2
200010b0:	4798      	blx	r3
200010b2:	0002      	movs	r2, r0
200010b4:	000b      	movs	r3, r1
200010b6:	64ba      	str	r2, [r7, #72]	@ 0x48
200010b8:	64fb      	str	r3, [r7, #76]	@ 0x4c
200010ba:	6efb      	ldr	r3, [r7, #108]	@ 0x6c
200010bc:	685b      	ldr	r3, [r3, #4]
200010be:	627b      	str	r3, [r7, #36]	@ 0x24
200010c0:	f3ef 8310 	mrs	r3, PRIMASK
200010c4:	b672      	cpsid	i
200010c6:	623b      	str	r3, [r7, #32]
200010c8:	6a3b      	ldr	r3, [r7, #32]
200010ca:	61fb      	str	r3, [r7, #28]
200010cc:	6a7b      	ldr	r3, [r7, #36]	@ 0x24
200010ce:	61bb      	str	r3, [r7, #24]
200010d0:	46c0      	nop			@ (mov r8, r8)
200010d2:	69bb      	ldr	r3, [r7, #24]
200010d4:	681b      	ldr	r3, [r3, #0]
200010d6:	425a      	negs	r2, r3
200010d8:	4153      	adcs	r3, r2
200010da:	b2db      	uxtb	r3, r3
200010dc:	2b00      	cmp	r3, #0
200010de:	d1f8      	bne.n	200010d2 <alarm_pool_alarm_callback+0x1a6>
200010e0:	f3bf 8f5f 	dmb	sy
200010e4:	46c0      	nop			@ (mov r8, r8)
200010e6:	46c0      	nop			@ (mov r8, r8)
200010e8:	46c0      	nop			@ (mov r8, r8)
200010ea:	69fb      	ldr	r3, [r7, #28]
200010ec:	65fb      	str	r3, [r7, #92]	@ 0x5c
200010ee:	6cfb      	ldr	r3, [r7, #76]	@ 0x4c
200010f0:	2b00      	cmp	r3, #0
200010f2:	da23      	bge.n	2000113c <alarm_pool_alarm_callback+0x210>
200010f4:	6efb      	ldr	r3, [r7, #108]	@ 0x6c
200010f6:	691b      	ldr	r3, [r3, #16]
200010f8:	2b00      	cmp	r3, #0
200010fa:	d01f      	beq.n	2000113c <alarm_pool_alarm_callback+0x210>
200010fc:	6cba      	ldr	r2, [r7, #72]	@ 0x48
200010fe:	6cfb      	ldr	r3, [r7, #76]	@ 0x4c
20001100:	2000      	movs	r0, #0
20001102:	2100      	movs	r1, #0
20001104:	1a80      	subs	r0, r0, r2
20001106:	4199      	sbcs	r1, r3
20001108:	0002      	movs	r2, r0
2000110a:	000b      	movs	r3, r1
2000110c:	6fb8      	ldr	r0, [r7, #120]	@ 0x78
2000110e:	6ff9      	ldr	r1, [r7, #124]	@ 0x7c
20001110:	f7ff fc28 	bl	20000964 <delayed_by_us>
20001114:	0002      	movs	r2, r0
20001116:	000b      	movs	r3, r1
20001118:	6ef8      	ldr	r0, [r7, #108]	@ 0x6c
2000111a:	2100      	movs	r1, #0
2000111c:	9104      	str	r1, [sp, #16]
2000111e:	2101      	movs	r1, #1
20001120:	9103      	str	r1, [sp, #12]
20001122:	215b      	movs	r1, #91	@ 0x5b
20001124:	1879      	adds	r1, r7, r1
20001126:	7809      	ldrb	r1, [r1, #0]
20001128:	9102      	str	r1, [sp, #8]
2000112a:	6f79      	ldr	r1, [r7, #116]	@ 0x74
2000112c:	9101      	str	r1, [sp, #4]
2000112e:	2180      	movs	r1, #128	@ 0x80
20001130:	1879      	adds	r1, r7, r1
20001132:	6809      	ldr	r1, [r1, #0]
20001134:	9100      	str	r1, [sp, #0]
20001136:	f7ff fe83 	bl	20000e40 <add_alarm_under_lock>
2000113a:	e03b      	b.n	200011b4 <alarm_pool_alarm_callback+0x288>
2000113c:	6cfb      	ldr	r3, [r7, #76]	@ 0x4c
2000113e:	2b00      	cmp	r3, #0
20001140:	dc05      	bgt.n	2000114e <alarm_pool_alarm_callback+0x222>
20001142:	6cfb      	ldr	r3, [r7, #76]	@ 0x4c
20001144:	2b00      	cmp	r3, #0
20001146:	d120      	bne.n	2000118a <alarm_pool_alarm_callback+0x25e>
20001148:	6cbb      	ldr	r3, [r7, #72]	@ 0x48
2000114a:	2b00      	cmp	r3, #0
2000114c:	d01d      	beq.n	2000118a <alarm_pool_alarm_callback+0x25e>
2000114e:	6efb      	ldr	r3, [r7, #108]	@ 0x6c
20001150:	691b      	ldr	r3, [r3, #16]
20001152:	2b00      	cmp	r3, #0
20001154:	d019      	beq.n	2000118a <alarm_pool_alarm_callback+0x25e>
20001156:	f7ff fbf3 	bl	20000940 <get_absolute_time>
2000115a:	6cba      	ldr	r2, [r7, #72]	@ 0x48
2000115c:	6cfb      	ldr	r3, [r7, #76]	@ 0x4c
2000115e:	f7ff fc01 	bl	20000964 <delayed_by_us>
20001162:	0002      	movs	r2, r0
20001164:	000b      	movs	r3, r1
20001166:	6ef8      	ldr	r0, [r7, #108]	@ 0x6c
20001168:	2100      	movs	r1, #0
2000116a:	9104      	str	r1, [sp, #16]
2000116c:	2101      	movs	r1, #1
2000116e:	9103      	str	r1, [sp, #12]
20001170:	215b      	movs	r1, #91	@ 0x5b
20001172:	1879      	adds	r1, r7, r1
20001174:	7809      	ldrb	r1, [r1, #0]
20001176:	9102      	str	r1, [sp, #8]
20001178:	6f79      	ldr	r1, [r7, #116]	@ 0x74
2000117a:	9101      	str	r1, [sp, #4]
2000117c:	2180      	movs	r1, #128	@ 0x80
2000117e:	1879      	adds	r1, r7, r1
20001180:	6809      	ldr	r1, [r1, #0]
20001182:	9100      	str	r1, [sp, #0]
20001184:	f7ff fe5c 	bl	20000e40 <add_alarm_under_lock>
20001188:	e014      	b.n	200011b4 <alarm_pool_alarm_callback+0x288>
2000118a:	6efb      	ldr	r3, [r7, #108]	@ 0x6c
2000118c:	681a      	ldr	r2, [r3, #0]
2000118e:	245b      	movs	r4, #91	@ 0x5b
20001190:	193b      	adds	r3, r7, r4
20001192:	781b      	ldrb	r3, [r3, #0]
20001194:	0019      	movs	r1, r3
20001196:	0010      	movs	r0, r2
20001198:	f7ff fd7a 	bl	20000c90 <ph_free_node>
2000119c:	193b      	adds	r3, r7, r4
2000119e:	781a      	ldrb	r2, [r3, #0]
200011a0:	6efb      	ldr	r3, [r7, #108]	@ 0x6c
200011a2:	0011      	movs	r1, r2
200011a4:	0018      	movs	r0, r3
200011a6:	f7ff fdbb 	bl	20000d20 <get_entry_id_high>
200011aa:	0003      	movs	r3, r0
200011ac:	781a      	ldrb	r2, [r3, #0]
200011ae:	3201      	adds	r2, #1
200011b0:	b2d2      	uxtb	r2, r2
200011b2:	701a      	strb	r2, [r3, #0]
200011b4:	6efb      	ldr	r3, [r7, #108]	@ 0x6c
200011b6:	2200      	movs	r2, #0
200011b8:	611a      	str	r2, [r3, #16]
200011ba:	6efb      	ldr	r3, [r7, #108]	@ 0x6c
200011bc:	685b      	ldr	r3, [r3, #4]
200011be:	617b      	str	r3, [r7, #20]
200011c0:	6dfb      	ldr	r3, [r7, #92]	@ 0x5c
200011c2:	613b      	str	r3, [r7, #16]
200011c4:	697b      	ldr	r3, [r7, #20]
200011c6:	60fb      	str	r3, [r7, #12]
200011c8:	f3bf 8f5f 	dmb	sy
200011cc:	46c0      	nop			@ (mov r8, r8)
200011ce:	46c0      	nop			@ (mov r8, r8)
200011d0:	68fb      	ldr	r3, [r7, #12]
200011d2:	2200      	movs	r2, #0
200011d4:	601a      	str	r2, [r3, #0]
200011d6:	46c0      	nop			@ (mov r8, r8)
200011d8:	693b      	ldr	r3, [r7, #16]
200011da:	60bb      	str	r3, [r7, #8]
200011dc:	68bb      	ldr	r3, [r7, #8]
200011de:	f383 8810 	msr	PRIMASK, r3
200011e2:	46c0      	nop			@ (mov r8, r8)
200011e4:	46c0      	nop			@ (mov r8, r8)
200011e6:	2387      	movs	r3, #135	@ 0x87
200011e8:	18fb      	adds	r3, r7, r3
200011ea:	2201      	movs	r2, #1
200011ec:	701a      	strb	r2, [r3, #0]
200011ee:	2387      	movs	r3, #135	@ 0x87
200011f0:	18fb      	adds	r3, r7, r3
200011f2:	781b      	ldrb	r3, [r3, #0]
200011f4:	2b00      	cmp	r3, #0
200011f6:	d000      	beq.n	200011fa <alarm_pool_alarm_callback+0x2ce>
200011f8:	e6a1      	b.n	20000f3e <alarm_pool_alarm_callback+0x12>
200011fa:	46c0      	nop			@ (mov r8, r8)
200011fc:	46c0      	nop			@ (mov r8, r8)
200011fe:	46bd      	mov	sp, r7
20001200:	b022      	add	sp, #136	@ 0x88
20001202:	bdb0      	pop	{r4, r5, r7, pc}
20001204:	2000bd00 	.word	0x2000bd00

20001208 <alarm_pool_post_alloc_init>:
20001208:	b580      	push	{r7, lr}
2000120a:	b084      	sub	sp, #16
2000120c:	af00      	add	r7, sp, #0
2000120e:	6078      	str	r0, [r7, #4]
20001210:	6039      	str	r1, [r7, #0]
20001212:	683b      	ldr	r3, [r7, #0]
20001214:	0018      	movs	r0, r3
20001216:	f000 fc65 	bl	20001ae4 <hardware_alarm_cancel>
2000121a:	4a12      	ldr	r2, [pc, #72]	@ (20001264 <alarm_pool_post_alloc_init+0x5c>)
2000121c:	683b      	ldr	r3, [r7, #0]
2000121e:	0011      	movs	r1, r2
20001220:	0018      	movs	r0, r3
20001222:	f000 faf7 	bl	20001814 <hardware_alarm_set_callback>
20001226:	f000 fdd9 	bl	20001ddc <next_striped_spin_lock_num>
2000122a:	0003      	movs	r3, r0
2000122c:	60fb      	str	r3, [r7, #12]
2000122e:	68fb      	ldr	r3, [r7, #12]
20001230:	4a0d      	ldr	r2, [pc, #52]	@ (20001268 <alarm_pool_post_alloc_init+0x60>)
20001232:	4694      	mov	ip, r2
20001234:	4463      	add	r3, ip
20001236:	009b      	lsls	r3, r3, #2
20001238:	001a      	movs	r2, r3
2000123a:	687b      	ldr	r3, [r7, #4]
2000123c:	605a      	str	r2, [r3, #4]
2000123e:	683b      	ldr	r3, [r7, #0]
20001240:	b2da      	uxtb	r2, r3
20001242:	687b      	ldr	r3, [r7, #4]
20001244:	751a      	strb	r2, [r3, #20]
20001246:	23d0      	movs	r3, #208	@ 0xd0
20001248:	061b      	lsls	r3, r3, #24
2000124a:	681b      	ldr	r3, [r3, #0]
2000124c:	b2da      	uxtb	r2, r3
2000124e:	687b      	ldr	r3, [r7, #4]
20001250:	755a      	strb	r2, [r3, #21]
20001252:	4b06      	ldr	r3, [pc, #24]	@ (2000126c <alarm_pool_post_alloc_init+0x64>)
20001254:	683a      	ldr	r2, [r7, #0]
20001256:	0092      	lsls	r2, r2, #2
20001258:	6879      	ldr	r1, [r7, #4]
2000125a:	50d1      	str	r1, [r2, r3]
2000125c:	46c0      	nop			@ (mov r8, r8)
2000125e:	46bd      	mov	sp, r7
20001260:	b004      	add	sp, #16
20001262:	bd80      	pop	{r7, pc}
20001264:	20000f2d 	.word	0x20000f2d
20001268:	34000040 	.word	0x34000040
2000126c:	2000bd00 	.word	0x2000bd00

20001270 <alarm_pool_add_alarm_at>:
20001270:	b5b0      	push	{r4, r5, r7, lr}
20001272:	b09a      	sub	sp, #104	@ 0x68
20001274:	af06      	add	r7, sp, #24
20001276:	60f8      	str	r0, [r7, #12]
20001278:	603a      	str	r2, [r7, #0]
2000127a:	607b      	str	r3, [r7, #4]
2000127c:	2317      	movs	r3, #23
2000127e:	18fb      	adds	r3, r7, r3
20001280:	2200      	movs	r2, #0
20001282:	701a      	strb	r2, [r3, #0]
20001284:	234b      	movs	r3, #75	@ 0x4b
20001286:	18fb      	adds	r3, r7, r3
20001288:	2200      	movs	r2, #0
2000128a:	701a      	strb	r2, [r3, #0]
2000128c:	68fb      	ldr	r3, [r7, #12]
2000128e:	685b      	ldr	r3, [r3, #4]
20001290:	637b      	str	r3, [r7, #52]	@ 0x34
20001292:	f3ef 8310 	mrs	r3, PRIMASK
20001296:	b672      	cpsid	i
20001298:	633b      	str	r3, [r7, #48]	@ 0x30
2000129a:	6b3b      	ldr	r3, [r7, #48]	@ 0x30
2000129c:	62fb      	str	r3, [r7, #44]	@ 0x2c
2000129e:	6b7b      	ldr	r3, [r7, #52]	@ 0x34
200012a0:	62bb      	str	r3, [r7, #40]	@ 0x28
200012a2:	46c0      	nop			@ (mov r8, r8)
200012a4:	6abb      	ldr	r3, [r7, #40]	@ 0x28
200012a6:	681b      	ldr	r3, [r3, #0]
200012a8:	425a      	negs	r2, r3
200012aa:	4153      	adcs	r3, r2
200012ac:	b2db      	uxtb	r3, r3
200012ae:	2b00      	cmp	r3, #0
200012b0:	d1f8      	bne.n	200012a4 <alarm_pool_add_alarm_at+0x34>
200012b2:	f3bf 8f5f 	dmb	sy
200012b6:	46c0      	nop			@ (mov r8, r8)
200012b8:	46c0      	nop			@ (mov r8, r8)
200012ba:	46c0      	nop			@ (mov r8, r8)
200012bc:	6afb      	ldr	r3, [r7, #44]	@ 0x2c
200012be:	647b      	str	r3, [r7, #68]	@ 0x44
200012c0:	2543      	movs	r5, #67	@ 0x43
200012c2:	197c      	adds	r4, r7, r5
200012c4:	683a      	ldr	r2, [r7, #0]
200012c6:	687b      	ldr	r3, [r7, #4]
200012c8:	68f8      	ldr	r0, [r7, #12]
200012ca:	2117      	movs	r1, #23
200012cc:	1879      	adds	r1, r7, r1
200012ce:	9104      	str	r1, [sp, #16]
200012d0:	2100      	movs	r1, #0
200012d2:	9103      	str	r1, [sp, #12]
200012d4:	2100      	movs	r1, #0
200012d6:	9102      	str	r1, [sp, #8]
200012d8:	6e79      	ldr	r1, [r7, #100]	@ 0x64
200012da:	9101      	str	r1, [sp, #4]
200012dc:	6e39      	ldr	r1, [r7, #96]	@ 0x60
200012de:	9100      	str	r1, [sp, #0]
200012e0:	f7ff fdae 	bl	20000e40 <add_alarm_under_lock>
200012e4:	0003      	movs	r3, r0
200012e6:	7023      	strb	r3, [r4, #0]
200012e8:	197b      	adds	r3, r7, r5
200012ea:	781b      	ldrb	r3, [r3, #0]
200012ec:	2b00      	cmp	r3, #0
200012ee:	d00b      	beq.n	20001308 <alarm_pool_add_alarm_at+0x98>
200012f0:	197b      	adds	r3, r7, r5
200012f2:	781a      	ldrb	r2, [r3, #0]
200012f4:	68fb      	ldr	r3, [r7, #12]
200012f6:	0011      	movs	r1, r2
200012f8:	0018      	movs	r0, r3
200012fa:	f7ff fd11 	bl	20000d20 <get_entry_id_high>
200012fe:	0002      	movs	r2, r0
20001300:	234b      	movs	r3, #75	@ 0x4b
20001302:	18fb      	adds	r3, r7, r3
20001304:	7812      	ldrb	r2, [r2, #0]
20001306:	701a      	strb	r2, [r3, #0]
20001308:	68fb      	ldr	r3, [r7, #12]
2000130a:	685b      	ldr	r3, [r3, #4]
2000130c:	627b      	str	r3, [r7, #36]	@ 0x24
2000130e:	6c7b      	ldr	r3, [r7, #68]	@ 0x44
20001310:	623b      	str	r3, [r7, #32]
20001312:	6a7b      	ldr	r3, [r7, #36]	@ 0x24
20001314:	61fb      	str	r3, [r7, #28]
20001316:	f3bf 8f5f 	dmb	sy
2000131a:	46c0      	nop			@ (mov r8, r8)
2000131c:	46c0      	nop			@ (mov r8, r8)
2000131e:	69fb      	ldr	r3, [r7, #28]
20001320:	2200      	movs	r2, #0
20001322:	601a      	str	r2, [r3, #0]
20001324:	46c0      	nop			@ (mov r8, r8)
20001326:	6a3b      	ldr	r3, [r7, #32]
20001328:	61bb      	str	r3, [r7, #24]
2000132a:	69bb      	ldr	r3, [r7, #24]
2000132c:	f383 8810 	msr	PRIMASK, r3
20001330:	46c0      	nop			@ (mov r8, r8)
20001332:	46c0      	nop			@ (mov r8, r8)
20001334:	2343      	movs	r3, #67	@ 0x43
20001336:	18fb      	adds	r3, r7, r3
20001338:	781b      	ldrb	r3, [r3, #0]
2000133a:	2b00      	cmp	r3, #0
2000133c:	d102      	bne.n	20001344 <alarm_pool_add_alarm_at+0xd4>
2000133e:	2301      	movs	r3, #1
20001340:	425b      	negs	r3, r3
20001342:	e04c      	b.n	200013de <alarm_pool_add_alarm_at+0x16e>
20001344:	2317      	movs	r3, #23
20001346:	18fb      	adds	r3, r7, r3
20001348:	781b      	ldrb	r3, [r3, #0]
2000134a:	2b00      	cmp	r3, #0
2000134c:	d10b      	bne.n	20001366 <alarm_pool_add_alarm_at+0xf6>
2000134e:	2343      	movs	r3, #67	@ 0x43
20001350:	18fb      	adds	r3, r7, r3
20001352:	781a      	ldrb	r2, [r3, #0]
20001354:	234b      	movs	r3, #75	@ 0x4b
20001356:	18fb      	adds	r3, r7, r3
20001358:	781b      	ldrb	r3, [r3, #0]
2000135a:	0011      	movs	r1, r2
2000135c:	0018      	movs	r0, r3
2000135e:	f7ff fd2b 	bl	20000db8 <make_public_id>
20001362:	0003      	movs	r3, r0
20001364:	e000      	b.n	20001368 <alarm_pool_add_alarm_at+0xf8>
20001366:	2300      	movs	r3, #0
20001368:	64fb      	str	r3, [r7, #76]	@ 0x4c
2000136a:	2317      	movs	r3, #23
2000136c:	18fb      	adds	r3, r7, r3
2000136e:	781b      	ldrb	r3, [r3, #0]
20001370:	2b00      	cmp	r3, #0
20001372:	d033      	beq.n	200013dc <alarm_pool_add_alarm_at+0x16c>
20001374:	2368      	movs	r3, #104	@ 0x68
20001376:	18fb      	adds	r3, r7, r3
20001378:	781b      	ldrb	r3, [r3, #0]
2000137a:	2b00      	cmp	r3, #0
2000137c:	d02e      	beq.n	200013dc <alarm_pool_add_alarm_at+0x16c>
2000137e:	6e79      	ldr	r1, [r7, #100]	@ 0x64
20001380:	6cfa      	ldr	r2, [r7, #76]	@ 0x4c
20001382:	6e3b      	ldr	r3, [r7, #96]	@ 0x60
20001384:	0010      	movs	r0, r2
20001386:	4798      	blx	r3
20001388:	0002      	movs	r2, r0
2000138a:	000b      	movs	r3, r1
2000138c:	63ba      	str	r2, [r7, #56]	@ 0x38
2000138e:	63fb      	str	r3, [r7, #60]	@ 0x3c
20001390:	6bbb      	ldr	r3, [r7, #56]	@ 0x38
20001392:	6bfa      	ldr	r2, [r7, #60]	@ 0x3c
20001394:	4313      	orrs	r3, r2
20001396:	d102      	bne.n	2000139e <alarm_pool_add_alarm_at+0x12e>
20001398:	2300      	movs	r3, #0
2000139a:	64fb      	str	r3, [r7, #76]	@ 0x4c
2000139c:	e01e      	b.n	200013dc <alarm_pool_add_alarm_at+0x16c>
2000139e:	6bfb      	ldr	r3, [r7, #60]	@ 0x3c
200013a0:	2b00      	cmp	r3, #0
200013a2:	da10      	bge.n	200013c6 <alarm_pool_add_alarm_at+0x156>
200013a4:	6bba      	ldr	r2, [r7, #56]	@ 0x38
200013a6:	6bfb      	ldr	r3, [r7, #60]	@ 0x3c
200013a8:	2000      	movs	r0, #0
200013aa:	2100      	movs	r1, #0
200013ac:	1a80      	subs	r0, r0, r2
200013ae:	4199      	sbcs	r1, r3
200013b0:	0002      	movs	r2, r0
200013b2:	000b      	movs	r3, r1
200013b4:	6838      	ldr	r0, [r7, #0]
200013b6:	6879      	ldr	r1, [r7, #4]
200013b8:	f7ff fad4 	bl	20000964 <delayed_by_us>
200013bc:	0002      	movs	r2, r0
200013be:	000b      	movs	r3, r1
200013c0:	603a      	str	r2, [r7, #0]
200013c2:	607b      	str	r3, [r7, #4]
200013c4:	e75e      	b.n	20001284 <alarm_pool_add_alarm_at+0x14>
200013c6:	f7ff fabb 	bl	20000940 <get_absolute_time>
200013ca:	6bba      	ldr	r2, [r7, #56]	@ 0x38
200013cc:	6bfb      	ldr	r3, [r7, #60]	@ 0x3c
200013ce:	f7ff fac9 	bl	20000964 <delayed_by_us>
200013d2:	0002      	movs	r2, r0
200013d4:	000b      	movs	r3, r1
200013d6:	603a      	str	r2, [r7, #0]
200013d8:	607b      	str	r3, [r7, #4]
200013da:	e753      	b.n	20001284 <alarm_pool_add_alarm_at+0x14>
200013dc:	6cfb      	ldr	r3, [r7, #76]	@ 0x4c
200013de:	0018      	movs	r0, r3
200013e0:	46bd      	mov	sp, r7
200013e2:	b014      	add	sp, #80	@ 0x50
200013e4:	bdb0      	pop	{r4, r5, r7, pc}

200013e6 <alarm_pool_cancel_alarm>:
200013e6:	b5b0      	push	{r4, r5, r7, lr}
200013e8:	b08e      	sub	sp, #56	@ 0x38
200013ea:	af00      	add	r7, sp, #0
200013ec:	6078      	str	r0, [r7, #4]
200013ee:	6039      	str	r1, [r7, #0]
200013f0:	683b      	ldr	r3, [r7, #0]
200013f2:	2b00      	cmp	r3, #0
200013f4:	d101      	bne.n	200013fa <alarm_pool_cancel_alarm+0x14>
200013f6:	2300      	movs	r3, #0
200013f8:	e06b      	b.n	200014d2 <alarm_pool_cancel_alarm+0xec>
200013fa:	2337      	movs	r3, #55	@ 0x37
200013fc:	18fb      	adds	r3, r7, r3
200013fe:	2200      	movs	r2, #0
20001400:	701a      	strb	r2, [r3, #0]
20001402:	687b      	ldr	r3, [r7, #4]
20001404:	685b      	ldr	r3, [r3, #4]
20001406:	62bb      	str	r3, [r7, #40]	@ 0x28
20001408:	f3ef 8310 	mrs	r3, PRIMASK
2000140c:	b672      	cpsid	i
2000140e:	627b      	str	r3, [r7, #36]	@ 0x24
20001410:	6a7b      	ldr	r3, [r7, #36]	@ 0x24
20001412:	623b      	str	r3, [r7, #32]
20001414:	6abb      	ldr	r3, [r7, #40]	@ 0x28
20001416:	61fb      	str	r3, [r7, #28]
20001418:	46c0      	nop			@ (mov r8, r8)
2000141a:	69fb      	ldr	r3, [r7, #28]
2000141c:	681b      	ldr	r3, [r3, #0]
2000141e:	425a      	negs	r2, r3
20001420:	4153      	adcs	r3, r2
20001422:	b2db      	uxtb	r3, r3
20001424:	2b00      	cmp	r3, #0
20001426:	d1f8      	bne.n	2000141a <alarm_pool_cancel_alarm+0x34>
20001428:	f3bf 8f5f 	dmb	sy
2000142c:	46c0      	nop			@ (mov r8, r8)
2000142e:	46c0      	nop			@ (mov r8, r8)
20001430:	46c0      	nop			@ (mov r8, r8)
20001432:	6a3b      	ldr	r3, [r7, #32]
20001434:	633b      	str	r3, [r7, #48]	@ 0x30
20001436:	252f      	movs	r5, #47	@ 0x2f
20001438:	197b      	adds	r3, r7, r5
2000143a:	683a      	ldr	r2, [r7, #0]
2000143c:	701a      	strb	r2, [r3, #0]
2000143e:	687b      	ldr	r3, [r7, #4]
20001440:	681a      	ldr	r2, [r3, #0]
20001442:	197b      	adds	r3, r7, r5
20001444:	781b      	ldrb	r3, [r3, #0]
20001446:	0019      	movs	r1, r3
20001448:	0010      	movs	r0, r2
2000144a:	f7ff fbfe 	bl	20000c4a <ph_contains_node>
2000144e:	1e03      	subs	r3, r0, #0
20001450:	d01e      	beq.n	20001490 <alarm_pool_cancel_alarm+0xaa>
20001452:	683b      	ldr	r3, [r7, #0]
20001454:	0a1a      	lsrs	r2, r3, #8
20001456:	242e      	movs	r4, #46	@ 0x2e
20001458:	193b      	adds	r3, r7, r4
2000145a:	701a      	strb	r2, [r3, #0]
2000145c:	197b      	adds	r3, r7, r5
2000145e:	781a      	ldrb	r2, [r3, #0]
20001460:	687b      	ldr	r3, [r7, #4]
20001462:	0011      	movs	r1, r2
20001464:	0018      	movs	r0, r3
20001466:	f7ff fc5b 	bl	20000d20 <get_entry_id_high>
2000146a:	0003      	movs	r3, r0
2000146c:	781b      	ldrb	r3, [r3, #0]
2000146e:	193a      	adds	r2, r7, r4
20001470:	7812      	ldrb	r2, [r2, #0]
20001472:	429a      	cmp	r2, r3
20001474:	d114      	bne.n	200014a0 <alarm_pool_cancel_alarm+0xba>
20001476:	687b      	ldr	r3, [r7, #4]
20001478:	681a      	ldr	r2, [r3, #0]
2000147a:	2337      	movs	r3, #55	@ 0x37
2000147c:	18fc      	adds	r4, r7, r3
2000147e:	197b      	adds	r3, r7, r5
20001480:	781b      	ldrb	r3, [r3, #0]
20001482:	0019      	movs	r1, r3
20001484:	0010      	movs	r0, r2
20001486:	f001 fc0f 	bl	20002ca8 <ph_remove_and_free_node>
2000148a:	0003      	movs	r3, r0
2000148c:	7023      	strb	r3, [r4, #0]
2000148e:	e007      	b.n	200014a0 <alarm_pool_cancel_alarm+0xba>
20001490:	687b      	ldr	r3, [r7, #4]
20001492:	691b      	ldr	r3, [r3, #16]
20001494:	683a      	ldr	r2, [r7, #0]
20001496:	429a      	cmp	r2, r3
20001498:	d102      	bne.n	200014a0 <alarm_pool_cancel_alarm+0xba>
2000149a:	687b      	ldr	r3, [r7, #4]
2000149c:	2200      	movs	r2, #0
2000149e:	611a      	str	r2, [r3, #16]
200014a0:	687b      	ldr	r3, [r7, #4]
200014a2:	685b      	ldr	r3, [r3, #4]
200014a4:	61bb      	str	r3, [r7, #24]
200014a6:	6b3b      	ldr	r3, [r7, #48]	@ 0x30
200014a8:	617b      	str	r3, [r7, #20]
200014aa:	69bb      	ldr	r3, [r7, #24]
200014ac:	613b      	str	r3, [r7, #16]
200014ae:	f3bf 8f5f 	dmb	sy
200014b2:	46c0      	nop			@ (mov r8, r8)
200014b4:	46c0      	nop			@ (mov r8, r8)
200014b6:	693b      	ldr	r3, [r7, #16]
200014b8:	2200      	movs	r2, #0
200014ba:	601a      	str	r2, [r3, #0]
200014bc:	46c0      	nop			@ (mov r8, r8)
200014be:	697b      	ldr	r3, [r7, #20]
200014c0:	60fb      	str	r3, [r7, #12]
200014c2:	68fb      	ldr	r3, [r7, #12]
200014c4:	f383 8810 	msr	PRIMASK, r3
200014c8:	46c0      	nop			@ (mov r8, r8)
200014ca:	46c0      	nop			@ (mov r8, r8)
200014cc:	2337      	movs	r3, #55	@ 0x37
200014ce:	18fb      	adds	r3, r7, r3
200014d0:	781b      	ldrb	r3, [r3, #0]
200014d2:	0018      	movs	r0, r3
200014d4:	46bd      	mov	sp, r7
200014d6:	b00e      	add	sp, #56	@ 0x38
200014d8:	bdb0      	pop	{r4, r5, r7, pc}

200014da <alarm_pool_core_num>:
200014da:	b580      	push	{r7, lr}
200014dc:	b082      	sub	sp, #8
200014de:	af00      	add	r7, sp, #0
200014e0:	6078      	str	r0, [r7, #4]
200014e2:	687b      	ldr	r3, [r7, #4]
200014e4:	7d5b      	ldrb	r3, [r3, #21]
200014e6:	0018      	movs	r0, r3
200014e8:	46bd      	mov	sp, r7
200014ea:	b002      	add	sp, #8
200014ec:	bd80      	pop	{r7, pc}
	...

200014f0 <sleep_until_callback>:
200014f0:	b580      	push	{r7, lr}
200014f2:	b08c      	sub	sp, #48	@ 0x30
200014f4:	af00      	add	r7, sp, #0
200014f6:	6078      	str	r0, [r7, #4]
200014f8:	6039      	str	r1, [r7, #0]
200014fa:	4b1c      	ldr	r3, [pc, #112]	@ (2000156c <sleep_until_callback+0x7c>)
200014fc:	681b      	ldr	r3, [r3, #0]
200014fe:	61bb      	str	r3, [r7, #24]
20001500:	f3ef 8310 	mrs	r3, PRIMASK
20001504:	b672      	cpsid	i
20001506:	617b      	str	r3, [r7, #20]
20001508:	697b      	ldr	r3, [r7, #20]
2000150a:	613b      	str	r3, [r7, #16]
2000150c:	69bb      	ldr	r3, [r7, #24]
2000150e:	60fb      	str	r3, [r7, #12]
20001510:	46c0      	nop			@ (mov r8, r8)
20001512:	68fb      	ldr	r3, [r7, #12]
20001514:	681b      	ldr	r3, [r3, #0]
20001516:	425a      	negs	r2, r3
20001518:	4153      	adcs	r3, r2
2000151a:	b2db      	uxtb	r3, r3
2000151c:	2b00      	cmp	r3, #0
2000151e:	d1f8      	bne.n	20001512 <sleep_until_callback+0x22>
20001520:	f3bf 8f5f 	dmb	sy
20001524:	46c0      	nop			@ (mov r8, r8)
20001526:	46c0      	nop			@ (mov r8, r8)
20001528:	46c0      	nop			@ (mov r8, r8)
2000152a:	693b      	ldr	r3, [r7, #16]
2000152c:	62fb      	str	r3, [r7, #44]	@ 0x2c
2000152e:	4b0f      	ldr	r3, [pc, #60]	@ (2000156c <sleep_until_callback+0x7c>)
20001530:	681b      	ldr	r3, [r3, #0]
20001532:	62bb      	str	r3, [r7, #40]	@ 0x28
20001534:	6afb      	ldr	r3, [r7, #44]	@ 0x2c
20001536:	627b      	str	r3, [r7, #36]	@ 0x24
20001538:	6abb      	ldr	r3, [r7, #40]	@ 0x28
2000153a:	623b      	str	r3, [r7, #32]
2000153c:	f3bf 8f5f 	dmb	sy
20001540:	46c0      	nop			@ (mov r8, r8)
20001542:	46c0      	nop			@ (mov r8, r8)
20001544:	6a3b      	ldr	r3, [r7, #32]
20001546:	2200      	movs	r2, #0
20001548:	601a      	str	r2, [r3, #0]
2000154a:	46c0      	nop			@ (mov r8, r8)
2000154c:	6a7b      	ldr	r3, [r7, #36]	@ 0x24
2000154e:	61fb      	str	r3, [r7, #28]
20001550:	69fb      	ldr	r3, [r7, #28]
20001552:	f383 8810 	msr	PRIMASK, r3
20001556:	46c0      	nop			@ (mov r8, r8)
20001558:	46c0      	nop			@ (mov r8, r8)
2000155a:	bf40      	sev
2000155c:	46c0      	nop			@ (mov r8, r8)
2000155e:	2200      	movs	r2, #0
20001560:	2300      	movs	r3, #0
20001562:	0010      	movs	r0, r2
20001564:	0019      	movs	r1, r3
20001566:	46bd      	mov	sp, r7
20001568:	b00c      	add	sp, #48	@ 0x30
2000156a:	bd80      	pop	{r7, pc}
2000156c:	2000bf1c 	.word	0x2000bf1c

20001570 <best_effort_wfe_or_timeout>:
20001570:	b580      	push	{r7, lr}
20001572:	b086      	sub	sp, #24
20001574:	af02      	add	r7, sp, #8
20001576:	6038      	str	r0, [r7, #0]
20001578:	6079      	str	r1, [r7, #4]
2000157a:	f3ef 8305 	mrs	r3, IPSR
2000157e:	60bb      	str	r3, [r7, #8]
20001580:	68bb      	ldr	r3, [r7, #8]
20001582:	2b00      	cmp	r3, #0
20001584:	d008      	beq.n	20001598 <best_effort_wfe_or_timeout+0x28>
20001586:	46c0      	nop			@ (mov r8, r8)
20001588:	683a      	ldr	r2, [r7, #0]
2000158a:	687b      	ldr	r3, [r7, #4]
2000158c:	0010      	movs	r0, r2
2000158e:	0019      	movs	r1, r3
20001590:	f7ff f9a4 	bl	200008dc <time_reached>
20001594:	0003      	movs	r3, r0
20001596:	e022      	b.n	200015de <best_effort_wfe_or_timeout+0x6e>
20001598:	4a13      	ldr	r2, [pc, #76]	@ (200015e8 <best_effort_wfe_or_timeout+0x78>)
2000159a:	6838      	ldr	r0, [r7, #0]
2000159c:	6879      	ldr	r1, [r7, #4]
2000159e:	2300      	movs	r3, #0
200015a0:	9300      	str	r3, [sp, #0]
200015a2:	2300      	movs	r3, #0
200015a4:	f7ff fa30 	bl	20000a08 <add_alarm_at>
200015a8:	0003      	movs	r3, r0
200015aa:	60fb      	str	r3, [r7, #12]
200015ac:	68fb      	ldr	r3, [r7, #12]
200015ae:	2b00      	cmp	r3, #0
200015b0:	dc08      	bgt.n	200015c4 <best_effort_wfe_or_timeout+0x54>
200015b2:	46c0      	nop			@ (mov r8, r8)
200015b4:	683a      	ldr	r2, [r7, #0]
200015b6:	687b      	ldr	r3, [r7, #4]
200015b8:	0010      	movs	r0, r2
200015ba:	0019      	movs	r1, r3
200015bc:	f7ff f98e 	bl	200008dc <time_reached>
200015c0:	0003      	movs	r3, r0
200015c2:	e00c      	b.n	200015de <best_effort_wfe_or_timeout+0x6e>
200015c4:	bf20      	wfe
200015c6:	46c0      	nop			@ (mov r8, r8)
200015c8:	68fb      	ldr	r3, [r7, #12]
200015ca:	0018      	movs	r0, r3
200015cc:	f7ff fa36 	bl	20000a3c <cancel_alarm>
200015d0:	683a      	ldr	r2, [r7, #0]
200015d2:	687b      	ldr	r3, [r7, #4]
200015d4:	0010      	movs	r0, r2
200015d6:	0019      	movs	r1, r3
200015d8:	f7ff f980 	bl	200008dc <time_reached>
200015dc:	0003      	movs	r3, r0
200015de:	0018      	movs	r0, r3
200015e0:	46bd      	mov	sp, r7
200015e2:	b004      	add	sp, #16
200015e4:	bd80      	pop	{r7, pc}
200015e6:	46c0      	nop			@ (mov r8, r8)
200015e8:	200014f1 	.word	0x200014f1

200015ec <to_us_since_boot>:
200015ec:	b580      	push	{r7, lr}
200015ee:	b082      	sub	sp, #8
200015f0:	af00      	add	r7, sp, #0
200015f2:	6038      	str	r0, [r7, #0]
200015f4:	6079      	str	r1, [r7, #4]
200015f6:	683a      	ldr	r2, [r7, #0]
200015f8:	687b      	ldr	r3, [r7, #4]
200015fa:	0010      	movs	r0, r2
200015fc:	0019      	movs	r1, r3
200015fe:	46bd      	mov	sp, r7
20001600:	b002      	add	sp, #8
20001602:	bd80      	pop	{r7, pc}

20001604 <check_hardware_alarm_num_param>:
20001604:	b580      	push	{r7, lr}
20001606:	b082      	sub	sp, #8
20001608:	af00      	add	r7, sp, #0
2000160a:	6078      	str	r0, [r7, #4]
2000160c:	46c0      	nop			@ (mov r8, r8)
2000160e:	46bd      	mov	sp, r7
20001610:	b002      	add	sp, #8
20001612:	bd80      	pop	{r7, pc}

20001614 <irq_clear>:
20001614:	b580      	push	{r7, lr}
20001616:	b082      	sub	sp, #8
20001618:	af00      	add	r7, sp, #0
2000161a:	6078      	str	r0, [r7, #4]
2000161c:	687b      	ldr	r3, [r7, #4]
2000161e:	221f      	movs	r2, #31
20001620:	401a      	ands	r2, r3
20001622:	4b04      	ldr	r3, [pc, #16]	@ (20001634 <irq_clear+0x20>)
20001624:	2101      	movs	r1, #1
20001626:	4091      	lsls	r1, r2
20001628:	000a      	movs	r2, r1
2000162a:	601a      	str	r2, [r3, #0]
2000162c:	46c0      	nop			@ (mov r8, r8)
2000162e:	46bd      	mov	sp, r7
20001630:	b002      	add	sp, #8
20001632:	bd80      	pop	{r7, pc}
20001634:	e000e280 	.word	0xe000e280

20001638 <hardware_alarm_claim>:
20001638:	b580      	push	{r7, lr}
2000163a:	b082      	sub	sp, #8
2000163c:	af00      	add	r7, sp, #0
2000163e:	6078      	str	r0, [r7, #4]
20001640:	687b      	ldr	r3, [r7, #4]
20001642:	0018      	movs	r0, r3
20001644:	f7ff ffde 	bl	20001604 <check_hardware_alarm_num_param>
20001648:	4a04      	ldr	r2, [pc, #16]	@ (2000165c <hardware_alarm_claim+0x24>)
2000164a:	6879      	ldr	r1, [r7, #4]
2000164c:	4b04      	ldr	r3, [pc, #16]	@ (20001660 <hardware_alarm_claim+0x28>)
2000164e:	0018      	movs	r0, r3
20001650:	f000 fb19 	bl	20001c86 <hw_claim_or_assert>
20001654:	46c0      	nop			@ (mov r8, r8)
20001656:	46bd      	mov	sp, r7
20001658:	b002      	add	sp, #8
2000165a:	bd80      	pop	{r7, pc}
2000165c:	2000acc4 	.word	0x2000acc4
20001660:	2000bf4c 	.word	0x2000bf4c

20001664 <time_us_64>:
20001664:	b5f0      	push	{r4, r5, r6, r7, lr}
20001666:	b087      	sub	sp, #28
20001668:	af00      	add	r7, sp, #0
2000166a:	4e15      	ldr	r6, [pc, #84]	@ (200016c0 <time_us_64+0x5c>)
2000166c:	6a76      	ldr	r6, [r6, #36]	@ 0x24
2000166e:	617e      	str	r6, [r7, #20]
20001670:	4e13      	ldr	r6, [pc, #76]	@ (200016c0 <time_us_64+0x5c>)
20001672:	6ab6      	ldr	r6, [r6, #40]	@ 0x28
20001674:	613e      	str	r6, [r7, #16]
20001676:	4e12      	ldr	r6, [pc, #72]	@ (200016c0 <time_us_64+0x5c>)
20001678:	6a76      	ldr	r6, [r6, #36]	@ 0x24
2000167a:	60fe      	str	r6, [r7, #12]
2000167c:	697e      	ldr	r6, [r7, #20]
2000167e:	46b4      	mov	ip, r6
20001680:	68fe      	ldr	r6, [r7, #12]
20001682:	45b4      	cmp	ip, r6
20001684:	d002      	beq.n	2000168c <time_us_64+0x28>
20001686:	68fe      	ldr	r6, [r7, #12]
20001688:	617e      	str	r6, [r7, #20]
2000168a:	e7f1      	b.n	20001670 <time_us_64+0xc>
2000168c:	46c0      	nop			@ (mov r8, r8)
2000168e:	697e      	ldr	r6, [r7, #20]
20001690:	603e      	str	r6, [r7, #0]
20001692:	2600      	movs	r6, #0
20001694:	607e      	str	r6, [r7, #4]
20001696:	683e      	ldr	r6, [r7, #0]
20001698:	0033      	movs	r3, r6
2000169a:	2600      	movs	r6, #0
2000169c:	0032      	movs	r2, r6
2000169e:	693e      	ldr	r6, [r7, #16]
200016a0:	0030      	movs	r0, r6
200016a2:	2600      	movs	r6, #0
200016a4:	0031      	movs	r1, r6
200016a6:	0016      	movs	r6, r2
200016a8:	4306      	orrs	r6, r0
200016aa:	0034      	movs	r4, r6
200016ac:	430b      	orrs	r3, r1
200016ae:	001d      	movs	r5, r3
200016b0:	0022      	movs	r2, r4
200016b2:	002b      	movs	r3, r5
200016b4:	0010      	movs	r0, r2
200016b6:	0019      	movs	r1, r3
200016b8:	46bd      	mov	sp, r7
200016ba:	b007      	add	sp, #28
200016bc:	bdf0      	pop	{r4, r5, r6, r7, pc}
200016be:	46c0      	nop			@ (mov r8, r8)
200016c0:	40054000 	.word	0x40054000

200016c4 <harware_alarm_irq_number>:
200016c4:	b580      	push	{r7, lr}
200016c6:	b082      	sub	sp, #8
200016c8:	af00      	add	r7, sp, #0
200016ca:	6078      	str	r0, [r7, #4]
200016cc:	687b      	ldr	r3, [r7, #4]
200016ce:	0018      	movs	r0, r3
200016d0:	46bd      	mov	sp, r7
200016d2:	b002      	add	sp, #8
200016d4:	bd80      	pop	{r7, pc}
	...

200016d8 <hardware_alarm_irq_handler>:
200016d8:	b580      	push	{r7, lr}
200016da:	b090      	sub	sp, #64	@ 0x40
200016dc:	af00      	add	r7, sp, #0
200016de:	f3ef 8305 	mrs	r3, IPSR
200016e2:	613b      	str	r3, [r7, #16]
200016e4:	693b      	ldr	r3, [r7, #16]
200016e6:	3b10      	subs	r3, #16
200016e8:	63bb      	str	r3, [r7, #56]	@ 0x38
200016ea:	6bbb      	ldr	r3, [r7, #56]	@ 0x38
200016ec:	0018      	movs	r0, r3
200016ee:	f7ff ff89 	bl	20001604 <check_hardware_alarm_num_param>
200016f2:	2300      	movs	r3, #0
200016f4:	63fb      	str	r3, [r7, #60]	@ 0x3c
200016f6:	230a      	movs	r3, #10
200016f8:	617b      	str	r3, [r7, #20]
200016fa:	697b      	ldr	r3, [r7, #20]
200016fc:	4a3f      	ldr	r2, [pc, #252]	@ (200017fc <hardware_alarm_irq_handler+0x124>)
200016fe:	4694      	mov	ip, r2
20001700:	4463      	add	r3, ip
20001702:	009b      	lsls	r3, r3, #2
20001704:	637b      	str	r3, [r7, #52]	@ 0x34
20001706:	6b7b      	ldr	r3, [r7, #52]	@ 0x34
20001708:	627b      	str	r3, [r7, #36]	@ 0x24
2000170a:	f3ef 8310 	mrs	r3, PRIMASK
2000170e:	b672      	cpsid	i
20001710:	623b      	str	r3, [r7, #32]
20001712:	6a3b      	ldr	r3, [r7, #32]
20001714:	61fb      	str	r3, [r7, #28]
20001716:	6a7b      	ldr	r3, [r7, #36]	@ 0x24
20001718:	61bb      	str	r3, [r7, #24]
2000171a:	46c0      	nop			@ (mov r8, r8)
2000171c:	69bb      	ldr	r3, [r7, #24]
2000171e:	681b      	ldr	r3, [r3, #0]
20001720:	425a      	negs	r2, r3
20001722:	4153      	adcs	r3, r2
20001724:	b2db      	uxtb	r3, r3
20001726:	2b00      	cmp	r3, #0
20001728:	d1f8      	bne.n	2000171c <hardware_alarm_irq_handler+0x44>
2000172a:	f3bf 8f5f 	dmb	sy
2000172e:	46c0      	nop			@ (mov r8, r8)
20001730:	46c0      	nop			@ (mov r8, r8)
20001732:	46c0      	nop			@ (mov r8, r8)
20001734:	69fb      	ldr	r3, [r7, #28]
20001736:	633b      	str	r3, [r7, #48]	@ 0x30
20001738:	4b31      	ldr	r3, [pc, #196]	@ (20001800 <hardware_alarm_irq_handler+0x128>)
2000173a:	2101      	movs	r1, #1
2000173c:	6bba      	ldr	r2, [r7, #56]	@ 0x38
2000173e:	4091      	lsls	r1, r2
20001740:	000a      	movs	r2, r1
20001742:	635a      	str	r2, [r3, #52]	@ 0x34
20001744:	2201      	movs	r2, #1
20001746:	6bbb      	ldr	r3, [r7, #56]	@ 0x38
20001748:	409a      	lsls	r2, r3
2000174a:	0013      	movs	r3, r2
2000174c:	4a2d      	ldr	r2, [pc, #180]	@ (20001804 <hardware_alarm_irq_handler+0x12c>)
2000174e:	62fa      	str	r2, [r7, #44]	@ 0x2c
20001750:	62bb      	str	r3, [r7, #40]	@ 0x28
20001752:	6afb      	ldr	r3, [r7, #44]	@ 0x2c
20001754:	22c0      	movs	r2, #192	@ 0xc0
20001756:	0192      	lsls	r2, r2, #6
20001758:	4313      	orrs	r3, r2
2000175a:	6aba      	ldr	r2, [r7, #40]	@ 0x28
2000175c:	601a      	str	r2, [r3, #0]
2000175e:	46c0      	nop			@ (mov r8, r8)
20001760:	4b29      	ldr	r3, [pc, #164]	@ (20001808 <hardware_alarm_irq_handler+0x130>)
20001762:	781b      	ldrb	r3, [r3, #0]
20001764:	001a      	movs	r2, r3
20001766:	6bbb      	ldr	r3, [r7, #56]	@ 0x38
20001768:	40da      	lsrs	r2, r3
2000176a:	0013      	movs	r3, r2
2000176c:	2201      	movs	r2, #1
2000176e:	4013      	ands	r3, r2
20001770:	d024      	beq.n	200017bc <hardware_alarm_irq_handler+0xe4>
20001772:	4b23      	ldr	r3, [pc, #140]	@ (20001800 <hardware_alarm_irq_handler+0x128>)
20001774:	6a5a      	ldr	r2, [r3, #36]	@ 0x24
20001776:	4b25      	ldr	r3, [pc, #148]	@ (2000180c <hardware_alarm_irq_handler+0x134>)
20001778:	6bb9      	ldr	r1, [r7, #56]	@ 0x38
2000177a:	0089      	lsls	r1, r1, #2
2000177c:	58cb      	ldr	r3, [r1, r3]
2000177e:	429a      	cmp	r2, r3
20001780:	d312      	bcc.n	200017a8 <hardware_alarm_irq_handler+0xd0>
20001782:	4b23      	ldr	r3, [pc, #140]	@ (20001810 <hardware_alarm_irq_handler+0x138>)
20001784:	6bba      	ldr	r2, [r7, #56]	@ 0x38
20001786:	0092      	lsls	r2, r2, #2
20001788:	58d3      	ldr	r3, [r2, r3]
2000178a:	63fb      	str	r3, [r7, #60]	@ 0x3c
2000178c:	2201      	movs	r2, #1
2000178e:	6bbb      	ldr	r3, [r7, #56]	@ 0x38
20001790:	409a      	lsls	r2, r3
20001792:	0013      	movs	r3, r2
20001794:	b2db      	uxtb	r3, r3
20001796:	43db      	mvns	r3, r3
20001798:	b2db      	uxtb	r3, r3
2000179a:	4a1b      	ldr	r2, [pc, #108]	@ (20001808 <hardware_alarm_irq_handler+0x130>)
2000179c:	7812      	ldrb	r2, [r2, #0]
2000179e:	4013      	ands	r3, r2
200017a0:	b2da      	uxtb	r2, r3
200017a2:	4b19      	ldr	r3, [pc, #100]	@ (20001808 <hardware_alarm_irq_handler+0x130>)
200017a4:	701a      	strb	r2, [r3, #0]
200017a6:	e009      	b.n	200017bc <hardware_alarm_irq_handler+0xe4>
200017a8:	4a15      	ldr	r2, [pc, #84]	@ (20001800 <hardware_alarm_irq_handler+0x128>)
200017aa:	4915      	ldr	r1, [pc, #84]	@ (20001800 <hardware_alarm_irq_handler+0x128>)
200017ac:	6bbb      	ldr	r3, [r7, #56]	@ 0x38
200017ae:	3304      	adds	r3, #4
200017b0:	009b      	lsls	r3, r3, #2
200017b2:	589a      	ldr	r2, [r3, r2]
200017b4:	6bbb      	ldr	r3, [r7, #56]	@ 0x38
200017b6:	3304      	adds	r3, #4
200017b8:	009b      	lsls	r3, r3, #2
200017ba:	505a      	str	r2, [r3, r1]
200017bc:	6b7b      	ldr	r3, [r7, #52]	@ 0x34
200017be:	60fb      	str	r3, [r7, #12]
200017c0:	6b3b      	ldr	r3, [r7, #48]	@ 0x30
200017c2:	60bb      	str	r3, [r7, #8]
200017c4:	68fb      	ldr	r3, [r7, #12]
200017c6:	607b      	str	r3, [r7, #4]
200017c8:	f3bf 8f5f 	dmb	sy
200017cc:	46c0      	nop			@ (mov r8, r8)
200017ce:	46c0      	nop			@ (mov r8, r8)
200017d0:	687b      	ldr	r3, [r7, #4]
200017d2:	2200      	movs	r2, #0
200017d4:	601a      	str	r2, [r3, #0]
200017d6:	46c0      	nop			@ (mov r8, r8)
200017d8:	68bb      	ldr	r3, [r7, #8]
200017da:	603b      	str	r3, [r7, #0]
200017dc:	683b      	ldr	r3, [r7, #0]
200017de:	f383 8810 	msr	PRIMASK, r3
200017e2:	46c0      	nop			@ (mov r8, r8)
200017e4:	46c0      	nop			@ (mov r8, r8)
200017e6:	6bfb      	ldr	r3, [r7, #60]	@ 0x3c
200017e8:	2b00      	cmp	r3, #0
200017ea:	d003      	beq.n	200017f4 <hardware_alarm_irq_handler+0x11c>
200017ec:	6bba      	ldr	r2, [r7, #56]	@ 0x38
200017ee:	6bfb      	ldr	r3, [r7, #60]	@ 0x3c
200017f0:	0010      	movs	r0, r2
200017f2:	4798      	blx	r3
200017f4:	46c0      	nop			@ (mov r8, r8)
200017f6:	46bd      	mov	sp, r7
200017f8:	b010      	add	sp, #64	@ 0x40
200017fa:	bd80      	pop	{r7, pc}
200017fc:	34000040 	.word	0x34000040
20001800:	40054000 	.word	0x40054000
20001804:	4005403c 	.word	0x4005403c
20001808:	2000bf51 	.word	0x2000bf51
2000180c:	2000bf28 	.word	0x2000bf28
20001810:	2000b71c 	.word	0x2000b71c

20001814 <hardware_alarm_set_callback>:
20001814:	b580      	push	{r7, lr}
20001816:	b090      	sub	sp, #64	@ 0x40
20001818:	af00      	add	r7, sp, #0
2000181a:	6078      	str	r0, [r7, #4]
2000181c:	6039      	str	r1, [r7, #0]
2000181e:	687b      	ldr	r3, [r7, #4]
20001820:	0018      	movs	r0, r3
20001822:	f7ff feef 	bl	20001604 <check_hardware_alarm_num_param>
20001826:	687b      	ldr	r3, [r7, #4]
20001828:	0018      	movs	r0, r3
2000182a:	f7ff ff4b 	bl	200016c4 <harware_alarm_irq_number>
2000182e:	0003      	movs	r3, r0
20001830:	63fb      	str	r3, [r7, #60]	@ 0x3c
20001832:	230a      	movs	r3, #10
20001834:	623b      	str	r3, [r7, #32]
20001836:	6a3b      	ldr	r3, [r7, #32]
20001838:	4a3e      	ldr	r2, [pc, #248]	@ (20001934 <hardware_alarm_set_callback+0x120>)
2000183a:	4694      	mov	ip, r2
2000183c:	4463      	add	r3, ip
2000183e:	009b      	lsls	r3, r3, #2
20001840:	63bb      	str	r3, [r7, #56]	@ 0x38
20001842:	6bbb      	ldr	r3, [r7, #56]	@ 0x38
20001844:	633b      	str	r3, [r7, #48]	@ 0x30
20001846:	f3ef 8310 	mrs	r3, PRIMASK
2000184a:	b672      	cpsid	i
2000184c:	62fb      	str	r3, [r7, #44]	@ 0x2c
2000184e:	6afb      	ldr	r3, [r7, #44]	@ 0x2c
20001850:	62bb      	str	r3, [r7, #40]	@ 0x28
20001852:	6b3b      	ldr	r3, [r7, #48]	@ 0x30
20001854:	627b      	str	r3, [r7, #36]	@ 0x24
20001856:	46c0      	nop			@ (mov r8, r8)
20001858:	6a7b      	ldr	r3, [r7, #36]	@ 0x24
2000185a:	681b      	ldr	r3, [r3, #0]
2000185c:	425a      	negs	r2, r3
2000185e:	4153      	adcs	r3, r2
20001860:	b2db      	uxtb	r3, r3
20001862:	2b00      	cmp	r3, #0
20001864:	d1f8      	bne.n	20001858 <hardware_alarm_set_callback+0x44>
20001866:	f3bf 8f5f 	dmb	sy
2000186a:	46c0      	nop			@ (mov r8, r8)
2000186c:	46c0      	nop			@ (mov r8, r8)
2000186e:	46c0      	nop			@ (mov r8, r8)
20001870:	6abb      	ldr	r3, [r7, #40]	@ 0x28
20001872:	637b      	str	r3, [r7, #52]	@ 0x34
20001874:	683b      	ldr	r3, [r7, #0]
20001876:	2b00      	cmp	r3, #0
20001878:	d026      	beq.n	200018c8 <hardware_alarm_set_callback+0xb4>
2000187a:	6bfb      	ldr	r3, [r7, #60]	@ 0x3c
2000187c:	0018      	movs	r0, r3
2000187e:	f000 fbed 	bl	2000205c <irq_get_vtable_handler>
20001882:	0002      	movs	r2, r0
20001884:	4b2c      	ldr	r3, [pc, #176]	@ (20001938 <hardware_alarm_set_callback+0x124>)
20001886:	429a      	cmp	r2, r3
20001888:	d018      	beq.n	200018bc <hardware_alarm_set_callback+0xa8>
2000188a:	4a2b      	ldr	r2, [pc, #172]	@ (20001938 <hardware_alarm_set_callback+0x124>)
2000188c:	6bfb      	ldr	r3, [r7, #60]	@ 0x3c
2000188e:	0011      	movs	r1, r2
20001890:	0018      	movs	r0, r3
20001892:	f000 fbf7 	bl	20002084 <irq_set_exclusive_handler>
20001896:	6bfb      	ldr	r3, [r7, #60]	@ 0x3c
20001898:	2101      	movs	r1, #1
2000189a:	0018      	movs	r0, r3
2000189c:	f000 fb46 	bl	20001f2c <irq_set_enabled>
200018a0:	2201      	movs	r2, #1
200018a2:	687b      	ldr	r3, [r7, #4]
200018a4:	409a      	lsls	r2, r3
200018a6:	0013      	movs	r3, r2
200018a8:	4a24      	ldr	r2, [pc, #144]	@ (2000193c <hardware_alarm_set_callback+0x128>)
200018aa:	61fa      	str	r2, [r7, #28]
200018ac:	61bb      	str	r3, [r7, #24]
200018ae:	69fb      	ldr	r3, [r7, #28]
200018b0:	2280      	movs	r2, #128	@ 0x80
200018b2:	0192      	lsls	r2, r2, #6
200018b4:	4313      	orrs	r3, r2
200018b6:	69ba      	ldr	r2, [r7, #24]
200018b8:	601a      	str	r2, [r3, #0]
200018ba:	46c0      	nop			@ (mov r8, r8)
200018bc:	4b20      	ldr	r3, [pc, #128]	@ (20001940 <hardware_alarm_set_callback+0x12c>)
200018be:	687a      	ldr	r2, [r7, #4]
200018c0:	0092      	lsls	r2, r2, #2
200018c2:	6839      	ldr	r1, [r7, #0]
200018c4:	50d1      	str	r1, [r2, r3]
200018c6:	e01c      	b.n	20001902 <hardware_alarm_set_callback+0xee>
200018c8:	4b1d      	ldr	r3, [pc, #116]	@ (20001940 <hardware_alarm_set_callback+0x12c>)
200018ca:	687a      	ldr	r2, [r7, #4]
200018cc:	0092      	lsls	r2, r2, #2
200018ce:	2100      	movs	r1, #0
200018d0:	50d1      	str	r1, [r2, r3]
200018d2:	2201      	movs	r2, #1
200018d4:	687b      	ldr	r3, [r7, #4]
200018d6:	409a      	lsls	r2, r3
200018d8:	0013      	movs	r3, r2
200018da:	b2db      	uxtb	r3, r3
200018dc:	43db      	mvns	r3, r3
200018de:	b2db      	uxtb	r3, r3
200018e0:	4a18      	ldr	r2, [pc, #96]	@ (20001944 <hardware_alarm_set_callback+0x130>)
200018e2:	7812      	ldrb	r2, [r2, #0]
200018e4:	4013      	ands	r3, r2
200018e6:	b2da      	uxtb	r2, r3
200018e8:	4b16      	ldr	r3, [pc, #88]	@ (20001944 <hardware_alarm_set_callback+0x130>)
200018ea:	701a      	strb	r2, [r3, #0]
200018ec:	4a12      	ldr	r2, [pc, #72]	@ (20001938 <hardware_alarm_set_callback+0x124>)
200018ee:	6bfb      	ldr	r3, [r7, #60]	@ 0x3c
200018f0:	0011      	movs	r1, r2
200018f2:	0018      	movs	r0, r3
200018f4:	f000 fdf4 	bl	200024e0 <irq_remove_handler>
200018f8:	6bfb      	ldr	r3, [r7, #60]	@ 0x3c
200018fa:	2100      	movs	r1, #0
200018fc:	0018      	movs	r0, r3
200018fe:	f000 fb15 	bl	20001f2c <irq_set_enabled>
20001902:	6bbb      	ldr	r3, [r7, #56]	@ 0x38
20001904:	617b      	str	r3, [r7, #20]
20001906:	6b7b      	ldr	r3, [r7, #52]	@ 0x34
20001908:	613b      	str	r3, [r7, #16]
2000190a:	697b      	ldr	r3, [r7, #20]
2000190c:	60fb      	str	r3, [r7, #12]
2000190e:	f3bf 8f5f 	dmb	sy
20001912:	46c0      	nop			@ (mov r8, r8)
20001914:	46c0      	nop			@ (mov r8, r8)
20001916:	68fb      	ldr	r3, [r7, #12]
20001918:	2200      	movs	r2, #0
2000191a:	601a      	str	r2, [r3, #0]
2000191c:	46c0      	nop			@ (mov r8, r8)
2000191e:	693b      	ldr	r3, [r7, #16]
20001920:	60bb      	str	r3, [r7, #8]
20001922:	68bb      	ldr	r3, [r7, #8]
20001924:	f383 8810 	msr	PRIMASK, r3
20001928:	46c0      	nop			@ (mov r8, r8)
2000192a:	46c0      	nop			@ (mov r8, r8)
2000192c:	46c0      	nop			@ (mov r8, r8)
2000192e:	46bd      	mov	sp, r7
20001930:	b010      	add	sp, #64	@ 0x40
20001932:	bd80      	pop	{r7, pc}
20001934:	34000040 	.word	0x34000040
20001938:	200016d9 	.word	0x200016d9
2000193c:	40054038 	.word	0x40054038
20001940:	2000b71c 	.word	0x2000b71c
20001944:	2000bf51 	.word	0x2000bf51

20001948 <hardware_alarm_set_target>:
20001948:	b5b0      	push	{r4, r5, r7, lr}
2000194a:	b096      	sub	sp, #88	@ 0x58
2000194c:	af00      	add	r7, sp, #0
2000194e:	60f8      	str	r0, [r7, #12]
20001950:	603a      	str	r2, [r7, #0]
20001952:	607b      	str	r3, [r7, #4]
20001954:	f7ff fe86 	bl	20001664 <time_us_64>
20001958:	0002      	movs	r2, r0
2000195a:	000b      	movs	r3, r1
2000195c:	64ba      	str	r2, [r7, #72]	@ 0x48
2000195e:	64fb      	str	r3, [r7, #76]	@ 0x4c
20001960:	683a      	ldr	r2, [r7, #0]
20001962:	687b      	ldr	r3, [r7, #4]
20001964:	0010      	movs	r0, r2
20001966:	0019      	movs	r1, r3
20001968:	f7ff fe40 	bl	200015ec <to_us_since_boot>
2000196c:	0002      	movs	r2, r0
2000196e:	000b      	movs	r3, r1
20001970:	643a      	str	r2, [r7, #64]	@ 0x40
20001972:	647b      	str	r3, [r7, #68]	@ 0x44
20001974:	6c7a      	ldr	r2, [r7, #68]	@ 0x44
20001976:	6cfb      	ldr	r3, [r7, #76]	@ 0x4c
20001978:	429a      	cmp	r2, r3
2000197a:	d80c      	bhi.n	20001996 <hardware_alarm_set_target+0x4e>
2000197c:	6c7a      	ldr	r2, [r7, #68]	@ 0x44
2000197e:	6cfb      	ldr	r3, [r7, #76]	@ 0x4c
20001980:	429a      	cmp	r2, r3
20001982:	d103      	bne.n	2000198c <hardware_alarm_set_target+0x44>
20001984:	6c3a      	ldr	r2, [r7, #64]	@ 0x40
20001986:	6cbb      	ldr	r3, [r7, #72]	@ 0x48
20001988:	429a      	cmp	r2, r3
2000198a:	d804      	bhi.n	20001996 <hardware_alarm_set_target+0x4e>
2000198c:	2357      	movs	r3, #87	@ 0x57
2000198e:	18fb      	adds	r3, r7, r3
20001990:	2201      	movs	r2, #1
20001992:	701a      	strb	r2, [r3, #0]
20001994:	e096      	b.n	20001ac4 <hardware_alarm_set_target+0x17c>
20001996:	2357      	movs	r3, #87	@ 0x57
20001998:	18fb      	adds	r3, r7, r3
2000199a:	2200      	movs	r2, #0
2000199c:	701a      	strb	r2, [r3, #0]
2000199e:	230a      	movs	r3, #10
200019a0:	623b      	str	r3, [r7, #32]
200019a2:	6a3b      	ldr	r3, [r7, #32]
200019a4:	4a4b      	ldr	r2, [pc, #300]	@ (20001ad4 <hardware_alarm_set_target+0x18c>)
200019a6:	4694      	mov	ip, r2
200019a8:	4463      	add	r3, ip
200019aa:	009b      	lsls	r3, r3, #2
200019ac:	63fb      	str	r3, [r7, #60]	@ 0x3c
200019ae:	6bfb      	ldr	r3, [r7, #60]	@ 0x3c
200019b0:	633b      	str	r3, [r7, #48]	@ 0x30
200019b2:	f3ef 8310 	mrs	r3, PRIMASK
200019b6:	b672      	cpsid	i
200019b8:	62fb      	str	r3, [r7, #44]	@ 0x2c
200019ba:	6afb      	ldr	r3, [r7, #44]	@ 0x2c
200019bc:	62bb      	str	r3, [r7, #40]	@ 0x28
200019be:	6b3b      	ldr	r3, [r7, #48]	@ 0x30
200019c0:	627b      	str	r3, [r7, #36]	@ 0x24
200019c2:	46c0      	nop			@ (mov r8, r8)
200019c4:	6a7b      	ldr	r3, [r7, #36]	@ 0x24
200019c6:	681b      	ldr	r3, [r3, #0]
200019c8:	425a      	negs	r2, r3
200019ca:	4153      	adcs	r3, r2
200019cc:	b2db      	uxtb	r3, r3
200019ce:	2b00      	cmp	r3, #0
200019d0:	d1f8      	bne.n	200019c4 <hardware_alarm_set_target+0x7c>
200019d2:	f3bf 8f5f 	dmb	sy
200019d6:	46c0      	nop			@ (mov r8, r8)
200019d8:	46c0      	nop			@ (mov r8, r8)
200019da:	46c0      	nop			@ (mov r8, r8)
200019dc:	6abb      	ldr	r3, [r7, #40]	@ 0x28
200019de:	63bb      	str	r3, [r7, #56]	@ 0x38
200019e0:	2337      	movs	r3, #55	@ 0x37
200019e2:	18fb      	adds	r3, r7, r3
200019e4:	4a3c      	ldr	r2, [pc, #240]	@ (20001ad8 <hardware_alarm_set_target+0x190>)
200019e6:	7812      	ldrb	r2, [r2, #0]
200019e8:	701a      	strb	r2, [r3, #0]
200019ea:	2201      	movs	r2, #1
200019ec:	68fb      	ldr	r3, [r7, #12]
200019ee:	409a      	lsls	r2, r3
200019f0:	0013      	movs	r3, r2
200019f2:	b2da      	uxtb	r2, r3
200019f4:	4b38      	ldr	r3, [pc, #224]	@ (20001ad8 <hardware_alarm_set_target+0x190>)
200019f6:	781b      	ldrb	r3, [r3, #0]
200019f8:	4313      	orrs	r3, r2
200019fa:	b2da      	uxtb	r2, r3
200019fc:	4b36      	ldr	r3, [pc, #216]	@ (20001ad8 <hardware_alarm_set_target+0x190>)
200019fe:	701a      	strb	r2, [r3, #0]
20001a00:	4b36      	ldr	r3, [pc, #216]	@ (20001adc <hardware_alarm_set_target+0x194>)
20001a02:	2101      	movs	r1, #1
20001a04:	68fa      	ldr	r2, [r7, #12]
20001a06:	4091      	lsls	r1, r2
20001a08:	000a      	movs	r2, r1
20001a0a:	635a      	str	r2, [r3, #52]	@ 0x34
20001a0c:	4933      	ldr	r1, [pc, #204]	@ (20001adc <hardware_alarm_set_target+0x194>)
20001a0e:	6c3a      	ldr	r2, [r7, #64]	@ 0x40
20001a10:	68fb      	ldr	r3, [r7, #12]
20001a12:	3304      	adds	r3, #4
20001a14:	009b      	lsls	r3, r3, #2
20001a16:	505a      	str	r2, [r3, r1]
20001a18:	6c7b      	ldr	r3, [r7, #68]	@ 0x44
20001a1a:	001c      	movs	r4, r3
20001a1c:	2300      	movs	r3, #0
20001a1e:	001d      	movs	r5, r3
20001a20:	0021      	movs	r1, r4
20001a22:	4b2f      	ldr	r3, [pc, #188]	@ (20001ae0 <hardware_alarm_set_target+0x198>)
20001a24:	68fa      	ldr	r2, [r7, #12]
20001a26:	0092      	lsls	r2, r2, #2
20001a28:	50d1      	str	r1, [r2, r3]
20001a2a:	4b2c      	ldr	r3, [pc, #176]	@ (20001adc <hardware_alarm_set_target+0x194>)
20001a2c:	6a1b      	ldr	r3, [r3, #32]
20001a2e:	2101      	movs	r1, #1
20001a30:	68fa      	ldr	r2, [r7, #12]
20001a32:	4091      	lsls	r1, r2
20001a34:	000a      	movs	r2, r1
20001a36:	4013      	ands	r3, r2
20001a38:	d02f      	beq.n	20001a9a <hardware_alarm_set_target+0x152>
20001a3a:	f7ff fe13 	bl	20001664 <time_us_64>
20001a3e:	0002      	movs	r2, r0
20001a40:	000b      	movs	r3, r1
20001a42:	6c79      	ldr	r1, [r7, #68]	@ 0x44
20001a44:	4299      	cmp	r1, r3
20001a46:	d828      	bhi.n	20001a9a <hardware_alarm_set_target+0x152>
20001a48:	6c79      	ldr	r1, [r7, #68]	@ 0x44
20001a4a:	4299      	cmp	r1, r3
20001a4c:	d102      	bne.n	20001a54 <hardware_alarm_set_target+0x10c>
20001a4e:	6c39      	ldr	r1, [r7, #64]	@ 0x40
20001a50:	4291      	cmp	r1, r2
20001a52:	d822      	bhi.n	20001a9a <hardware_alarm_set_target+0x152>
20001a54:	2357      	movs	r3, #87	@ 0x57
20001a56:	18fb      	adds	r3, r7, r3
20001a58:	2201      	movs	r2, #1
20001a5a:	701a      	strb	r2, [r3, #0]
20001a5c:	4b1e      	ldr	r3, [pc, #120]	@ (20001ad8 <hardware_alarm_set_target+0x190>)
20001a5e:	781b      	ldrb	r3, [r3, #0]
20001a60:	2437      	movs	r4, #55	@ 0x37
20001a62:	193a      	adds	r2, r7, r4
20001a64:	7812      	ldrb	r2, [r2, #0]
20001a66:	429a      	cmp	r2, r3
20001a68:	d017      	beq.n	20001a9a <hardware_alarm_set_target+0x152>
20001a6a:	4b1c      	ldr	r3, [pc, #112]	@ (20001adc <hardware_alarm_set_target+0x194>)
20001a6c:	2101      	movs	r1, #1
20001a6e:	68fa      	ldr	r2, [r7, #12]
20001a70:	4091      	lsls	r1, r2
20001a72:	000a      	movs	r2, r1
20001a74:	621a      	str	r2, [r3, #32]
20001a76:	4b19      	ldr	r3, [pc, #100]	@ (20001adc <hardware_alarm_set_target+0x194>)
20001a78:	2101      	movs	r1, #1
20001a7a:	68fa      	ldr	r2, [r7, #12]
20001a7c:	4091      	lsls	r1, r2
20001a7e:	000a      	movs	r2, r1
20001a80:	635a      	str	r2, [r3, #52]	@ 0x34
20001a82:	68fb      	ldr	r3, [r7, #12]
20001a84:	0018      	movs	r0, r3
20001a86:	f7ff fe1d 	bl	200016c4 <harware_alarm_irq_number>
20001a8a:	0003      	movs	r3, r0
20001a8c:	0018      	movs	r0, r3
20001a8e:	f7ff fdc1 	bl	20001614 <irq_clear>
20001a92:	4b11      	ldr	r3, [pc, #68]	@ (20001ad8 <hardware_alarm_set_target+0x190>)
20001a94:	193a      	adds	r2, r7, r4
20001a96:	7812      	ldrb	r2, [r2, #0]
20001a98:	701a      	strb	r2, [r3, #0]
20001a9a:	6bfb      	ldr	r3, [r7, #60]	@ 0x3c
20001a9c:	61fb      	str	r3, [r7, #28]
20001a9e:	6bbb      	ldr	r3, [r7, #56]	@ 0x38
20001aa0:	61bb      	str	r3, [r7, #24]
20001aa2:	69fb      	ldr	r3, [r7, #28]
20001aa4:	617b      	str	r3, [r7, #20]
20001aa6:	f3bf 8f5f 	dmb	sy
20001aaa:	46c0      	nop			@ (mov r8, r8)
20001aac:	46c0      	nop			@ (mov r8, r8)
20001aae:	697b      	ldr	r3, [r7, #20]
20001ab0:	2200      	movs	r2, #0
20001ab2:	601a      	str	r2, [r3, #0]
20001ab4:	46c0      	nop			@ (mov r8, r8)
20001ab6:	69bb      	ldr	r3, [r7, #24]
20001ab8:	613b      	str	r3, [r7, #16]
20001aba:	693b      	ldr	r3, [r7, #16]
20001abc:	f383 8810 	msr	PRIMASK, r3
20001ac0:	46c0      	nop			@ (mov r8, r8)
20001ac2:	46c0      	nop			@ (mov r8, r8)
20001ac4:	2357      	movs	r3, #87	@ 0x57
20001ac6:	18fb      	adds	r3, r7, r3
20001ac8:	781b      	ldrb	r3, [r3, #0]
20001aca:	0018      	movs	r0, r3
20001acc:	46bd      	mov	sp, r7
20001ace:	b016      	add	sp, #88	@ 0x58
20001ad0:	bdb0      	pop	{r4, r5, r7, pc}
20001ad2:	46c0      	nop			@ (mov r8, r8)
20001ad4:	34000040 	.word	0x34000040
20001ad8:	2000bf51 	.word	0x2000bf51
20001adc:	40054000 	.word	0x40054000
20001ae0:	2000bf28 	.word	0x2000bf28

20001ae4 <hardware_alarm_cancel>:
20001ae4:	b580      	push	{r7, lr}
20001ae6:	b08e      	sub	sp, #56	@ 0x38
20001ae8:	af00      	add	r7, sp, #0
20001aea:	6078      	str	r0, [r7, #4]
20001aec:	687b      	ldr	r3, [r7, #4]
20001aee:	0018      	movs	r0, r3
20001af0:	f7ff fd88 	bl	20001604 <check_hardware_alarm_num_param>
20001af4:	230a      	movs	r3, #10
20001af6:	60fb      	str	r3, [r7, #12]
20001af8:	68fb      	ldr	r3, [r7, #12]
20001afa:	4a25      	ldr	r2, [pc, #148]	@ (20001b90 <hardware_alarm_cancel+0xac>)
20001afc:	4694      	mov	ip, r2
20001afe:	4463      	add	r3, ip
20001b00:	009b      	lsls	r3, r3, #2
20001b02:	637b      	str	r3, [r7, #52]	@ 0x34
20001b04:	6b7b      	ldr	r3, [r7, #52]	@ 0x34
20001b06:	61fb      	str	r3, [r7, #28]
20001b08:	f3ef 8310 	mrs	r3, PRIMASK
20001b0c:	b672      	cpsid	i
20001b0e:	61bb      	str	r3, [r7, #24]
20001b10:	69bb      	ldr	r3, [r7, #24]
20001b12:	617b      	str	r3, [r7, #20]
20001b14:	69fb      	ldr	r3, [r7, #28]
20001b16:	613b      	str	r3, [r7, #16]
20001b18:	46c0      	nop			@ (mov r8, r8)
20001b1a:	693b      	ldr	r3, [r7, #16]
20001b1c:	681b      	ldr	r3, [r3, #0]
20001b1e:	425a      	negs	r2, r3
20001b20:	4153      	adcs	r3, r2
20001b22:	b2db      	uxtb	r3, r3
20001b24:	2b00      	cmp	r3, #0
20001b26:	d1f8      	bne.n	20001b1a <hardware_alarm_cancel+0x36>
20001b28:	f3bf 8f5f 	dmb	sy
20001b2c:	46c0      	nop			@ (mov r8, r8)
20001b2e:	46c0      	nop			@ (mov r8, r8)
20001b30:	46c0      	nop			@ (mov r8, r8)
20001b32:	697b      	ldr	r3, [r7, #20]
20001b34:	633b      	str	r3, [r7, #48]	@ 0x30
20001b36:	4b17      	ldr	r3, [pc, #92]	@ (20001b94 <hardware_alarm_cancel+0xb0>)
20001b38:	2101      	movs	r1, #1
20001b3a:	687a      	ldr	r2, [r7, #4]
20001b3c:	4091      	lsls	r1, r2
20001b3e:	000a      	movs	r2, r1
20001b40:	621a      	str	r2, [r3, #32]
20001b42:	2201      	movs	r2, #1
20001b44:	687b      	ldr	r3, [r7, #4]
20001b46:	409a      	lsls	r2, r3
20001b48:	0013      	movs	r3, r2
20001b4a:	b2db      	uxtb	r3, r3
20001b4c:	43db      	mvns	r3, r3
20001b4e:	b2db      	uxtb	r3, r3
20001b50:	4a11      	ldr	r2, [pc, #68]	@ (20001b98 <hardware_alarm_cancel+0xb4>)
20001b52:	7812      	ldrb	r2, [r2, #0]
20001b54:	4013      	ands	r3, r2
20001b56:	b2da      	uxtb	r2, r3
20001b58:	4b0f      	ldr	r3, [pc, #60]	@ (20001b98 <hardware_alarm_cancel+0xb4>)
20001b5a:	701a      	strb	r2, [r3, #0]
20001b5c:	6b7b      	ldr	r3, [r7, #52]	@ 0x34
20001b5e:	62fb      	str	r3, [r7, #44]	@ 0x2c
20001b60:	6b3b      	ldr	r3, [r7, #48]	@ 0x30
20001b62:	62bb      	str	r3, [r7, #40]	@ 0x28
20001b64:	6afb      	ldr	r3, [r7, #44]	@ 0x2c
20001b66:	627b      	str	r3, [r7, #36]	@ 0x24
20001b68:	f3bf 8f5f 	dmb	sy
20001b6c:	46c0      	nop			@ (mov r8, r8)
20001b6e:	46c0      	nop			@ (mov r8, r8)
20001b70:	6a7b      	ldr	r3, [r7, #36]	@ 0x24
20001b72:	2200      	movs	r2, #0
20001b74:	601a      	str	r2, [r3, #0]
20001b76:	46c0      	nop			@ (mov r8, r8)
20001b78:	6abb      	ldr	r3, [r7, #40]	@ 0x28
20001b7a:	623b      	str	r3, [r7, #32]
20001b7c:	6a3b      	ldr	r3, [r7, #32]
20001b7e:	f383 8810 	msr	PRIMASK, r3
20001b82:	46c0      	nop			@ (mov r8, r8)
20001b84:	46c0      	nop			@ (mov r8, r8)
20001b86:	46c0      	nop			@ (mov r8, r8)
20001b88:	46bd      	mov	sp, r7
20001b8a:	b00e      	add	sp, #56	@ 0x38
20001b8c:	bd80      	pop	{r7, pc}
20001b8e:	46c0      	nop			@ (mov r8, r8)
20001b90:	34000040 	.word	0x34000040
20001b94:	40054000 	.word	0x40054000
20001b98:	2000bf51 	.word	0x2000bf51

20001b9c <running_on_fpga>:
20001b9c:	b580      	push	{r7, lr}
20001b9e:	af00      	add	r7, sp, #0
20001ba0:	4b04      	ldr	r3, [pc, #16]	@ (20001bb4 <running_on_fpga+0x18>)
20001ba2:	681b      	ldr	r3, [r3, #0]
20001ba4:	2202      	movs	r2, #2
20001ba6:	4013      	ands	r3, r2
20001ba8:	1e5a      	subs	r2, r3, #1
20001baa:	4193      	sbcs	r3, r2
20001bac:	b2db      	uxtb	r3, r3
20001bae:	0018      	movs	r0, r3
20001bb0:	46bd      	mov	sp, r7
20001bb2:	bd80      	pop	{r7, pc}
20001bb4:	4006c000 	.word	0x4006c000

20001bb8 <hw_claim_lock>:
20001bb8:	b580      	push	{r7, lr}
20001bba:	b086      	sub	sp, #24
20001bbc:	af00      	add	r7, sp, #0
20001bbe:	230b      	movs	r3, #11
20001bc0:	607b      	str	r3, [r7, #4]
20001bc2:	687b      	ldr	r3, [r7, #4]
20001bc4:	4a0f      	ldr	r2, [pc, #60]	@ (20001c04 <hw_claim_lock+0x4c>)
20001bc6:	4694      	mov	ip, r2
20001bc8:	4463      	add	r3, ip
20001bca:	009b      	lsls	r3, r3, #2
20001bcc:	617b      	str	r3, [r7, #20]
20001bce:	f3ef 8310 	mrs	r3, PRIMASK
20001bd2:	b672      	cpsid	i
20001bd4:	613b      	str	r3, [r7, #16]
20001bd6:	693b      	ldr	r3, [r7, #16]
20001bd8:	60fb      	str	r3, [r7, #12]
20001bda:	697b      	ldr	r3, [r7, #20]
20001bdc:	60bb      	str	r3, [r7, #8]
20001bde:	46c0      	nop			@ (mov r8, r8)
20001be0:	68bb      	ldr	r3, [r7, #8]
20001be2:	681b      	ldr	r3, [r3, #0]
20001be4:	425a      	negs	r2, r3
20001be6:	4153      	adcs	r3, r2
20001be8:	b2db      	uxtb	r3, r3
20001bea:	2b00      	cmp	r3, #0
20001bec:	d1f8      	bne.n	20001be0 <hw_claim_lock+0x28>
20001bee:	f3bf 8f5f 	dmb	sy
20001bf2:	46c0      	nop			@ (mov r8, r8)
20001bf4:	46c0      	nop			@ (mov r8, r8)
20001bf6:	46c0      	nop			@ (mov r8, r8)
20001bf8:	68fb      	ldr	r3, [r7, #12]
20001bfa:	0018      	movs	r0, r3
20001bfc:	46bd      	mov	sp, r7
20001bfe:	b006      	add	sp, #24
20001c00:	bd80      	pop	{r7, pc}
20001c02:	46c0      	nop			@ (mov r8, r8)
20001c04:	34000040 	.word	0x34000040

20001c08 <hw_claim_unlock>:
20001c08:	b580      	push	{r7, lr}
20001c0a:	b088      	sub	sp, #32
20001c0c:	af00      	add	r7, sp, #0
20001c0e:	6078      	str	r0, [r7, #4]
20001c10:	230b      	movs	r3, #11
20001c12:	60fb      	str	r3, [r7, #12]
20001c14:	68fb      	ldr	r3, [r7, #12]
20001c16:	4a0e      	ldr	r2, [pc, #56]	@ (20001c50 <hw_claim_unlock+0x48>)
20001c18:	4694      	mov	ip, r2
20001c1a:	4463      	add	r3, ip
20001c1c:	009b      	lsls	r3, r3, #2
20001c1e:	61fb      	str	r3, [r7, #28]
20001c20:	687b      	ldr	r3, [r7, #4]
20001c22:	61bb      	str	r3, [r7, #24]
20001c24:	69fb      	ldr	r3, [r7, #28]
20001c26:	617b      	str	r3, [r7, #20]
20001c28:	f3bf 8f5f 	dmb	sy
20001c2c:	46c0      	nop			@ (mov r8, r8)
20001c2e:	46c0      	nop			@ (mov r8, r8)
20001c30:	697b      	ldr	r3, [r7, #20]
20001c32:	2200      	movs	r2, #0
20001c34:	601a      	str	r2, [r3, #0]
20001c36:	46c0      	nop			@ (mov r8, r8)
20001c38:	69bb      	ldr	r3, [r7, #24]
20001c3a:	613b      	str	r3, [r7, #16]
20001c3c:	693b      	ldr	r3, [r7, #16]
20001c3e:	f383 8810 	msr	PRIMASK, r3
20001c42:	46c0      	nop			@ (mov r8, r8)
20001c44:	46c0      	nop			@ (mov r8, r8)
20001c46:	46c0      	nop			@ (mov r8, r8)
20001c48:	46bd      	mov	sp, r7
20001c4a:	b008      	add	sp, #32
20001c4c:	bd80      	pop	{r7, pc}
20001c4e:	46c0      	nop			@ (mov r8, r8)
20001c50:	34000040 	.word	0x34000040

20001c54 <hw_is_claimed>:
20001c54:	b580      	push	{r7, lr}
20001c56:	b082      	sub	sp, #8
20001c58:	af00      	add	r7, sp, #0
20001c5a:	6078      	str	r0, [r7, #4]
20001c5c:	6039      	str	r1, [r7, #0]
20001c5e:	683b      	ldr	r3, [r7, #0]
20001c60:	08db      	lsrs	r3, r3, #3
20001c62:	687a      	ldr	r2, [r7, #4]
20001c64:	18d3      	adds	r3, r2, r3
20001c66:	781b      	ldrb	r3, [r3, #0]
20001c68:	0019      	movs	r1, r3
20001c6a:	683b      	ldr	r3, [r7, #0]
20001c6c:	2207      	movs	r2, #7
20001c6e:	4013      	ands	r3, r2
20001c70:	2201      	movs	r2, #1
20001c72:	409a      	lsls	r2, r3
20001c74:	0013      	movs	r3, r2
20001c76:	400b      	ands	r3, r1
20001c78:	1e5a      	subs	r2, r3, #1
20001c7a:	4193      	sbcs	r3, r2
20001c7c:	b2db      	uxtb	r3, r3
20001c7e:	0018      	movs	r0, r3
20001c80:	46bd      	mov	sp, r7
20001c82:	b002      	add	sp, #8
20001c84:	bd80      	pop	{r7, pc}

20001c86 <hw_claim_or_assert>:
20001c86:	b580      	push	{r7, lr}
20001c88:	b086      	sub	sp, #24
20001c8a:	af00      	add	r7, sp, #0
20001c8c:	60f8      	str	r0, [r7, #12]
20001c8e:	60b9      	str	r1, [r7, #8]
20001c90:	607a      	str	r2, [r7, #4]
20001c92:	f7ff ff91 	bl	20001bb8 <hw_claim_lock>
20001c96:	0003      	movs	r3, r0
20001c98:	617b      	str	r3, [r7, #20]
20001c9a:	68ba      	ldr	r2, [r7, #8]
20001c9c:	68fb      	ldr	r3, [r7, #12]
20001c9e:	0011      	movs	r1, r2
20001ca0:	0018      	movs	r0, r3
20001ca2:	f7ff ffd7 	bl	20001c54 <hw_is_claimed>
20001ca6:	1e03      	subs	r3, r0, #0
20001ca8:	d005      	beq.n	20001cb6 <hw_claim_or_assert+0x30>
20001caa:	68ba      	ldr	r2, [r7, #8]
20001cac:	687b      	ldr	r3, [r7, #4]
20001cae:	0011      	movs	r1, r2
20001cb0:	0018      	movs	r0, r3
20001cb2:	f001 fe99 	bl	200039e8 <panic>
20001cb6:	68bb      	ldr	r3, [r7, #8]
20001cb8:	08db      	lsrs	r3, r3, #3
20001cba:	68fa      	ldr	r2, [r7, #12]
20001cbc:	18d3      	adds	r3, r2, r3
20001cbe:	7819      	ldrb	r1, [r3, #0]
20001cc0:	68bb      	ldr	r3, [r7, #8]
20001cc2:	2207      	movs	r2, #7
20001cc4:	4013      	ands	r3, r2
20001cc6:	2201      	movs	r2, #1
20001cc8:	409a      	lsls	r2, r3
20001cca:	0013      	movs	r3, r2
20001ccc:	b2da      	uxtb	r2, r3
20001cce:	68bb      	ldr	r3, [r7, #8]
20001cd0:	08db      	lsrs	r3, r3, #3
20001cd2:	68f8      	ldr	r0, [r7, #12]
20001cd4:	18c3      	adds	r3, r0, r3
20001cd6:	430a      	orrs	r2, r1
20001cd8:	b2d2      	uxtb	r2, r2
20001cda:	701a      	strb	r2, [r3, #0]
20001cdc:	697b      	ldr	r3, [r7, #20]
20001cde:	0018      	movs	r0, r3
20001ce0:	f7ff ff92 	bl	20001c08 <hw_claim_unlock>
20001ce4:	46c0      	nop			@ (mov r8, r8)
20001ce6:	46bd      	mov	sp, r7
20001ce8:	b006      	add	sp, #24
20001cea:	bd80      	pop	{r7, pc}

20001cec <hw_claim_unused_from_range>:
20001cec:	b580      	push	{r7, lr}
20001cee:	b088      	sub	sp, #32
20001cf0:	af00      	add	r7, sp, #0
20001cf2:	60f8      	str	r0, [r7, #12]
20001cf4:	607a      	str	r2, [r7, #4]
20001cf6:	603b      	str	r3, [r7, #0]
20001cf8:	230b      	movs	r3, #11
20001cfa:	18fb      	adds	r3, r7, r3
20001cfc:	1c0a      	adds	r2, r1, #0
20001cfe:	701a      	strb	r2, [r3, #0]
20001d00:	f7ff ff5a 	bl	20001bb8 <hw_claim_lock>
20001d04:	0003      	movs	r3, r0
20001d06:	617b      	str	r3, [r7, #20]
20001d08:	2301      	movs	r3, #1
20001d0a:	425b      	negs	r3, r3
20001d0c:	61fb      	str	r3, [r7, #28]
20001d0e:	687b      	ldr	r3, [r7, #4]
20001d10:	61bb      	str	r3, [r7, #24]
20001d12:	e025      	b.n	20001d60 <hw_claim_unused_from_range+0x74>
20001d14:	69ba      	ldr	r2, [r7, #24]
20001d16:	68fb      	ldr	r3, [r7, #12]
20001d18:	0011      	movs	r1, r2
20001d1a:	0018      	movs	r0, r3
20001d1c:	f7ff ff9a 	bl	20001c54 <hw_is_claimed>
20001d20:	0003      	movs	r3, r0
20001d22:	001a      	movs	r2, r3
20001d24:	2301      	movs	r3, #1
20001d26:	4053      	eors	r3, r2
20001d28:	b2db      	uxtb	r3, r3
20001d2a:	2b00      	cmp	r3, #0
20001d2c:	d015      	beq.n	20001d5a <hw_claim_unused_from_range+0x6e>
20001d2e:	69bb      	ldr	r3, [r7, #24]
20001d30:	08db      	lsrs	r3, r3, #3
20001d32:	68fa      	ldr	r2, [r7, #12]
20001d34:	18d3      	adds	r3, r2, r3
20001d36:	7819      	ldrb	r1, [r3, #0]
20001d38:	69bb      	ldr	r3, [r7, #24]
20001d3a:	2207      	movs	r2, #7
20001d3c:	4013      	ands	r3, r2
20001d3e:	2201      	movs	r2, #1
20001d40:	409a      	lsls	r2, r3
20001d42:	0013      	movs	r3, r2
20001d44:	b2da      	uxtb	r2, r3
20001d46:	69bb      	ldr	r3, [r7, #24]
20001d48:	08db      	lsrs	r3, r3, #3
20001d4a:	68f8      	ldr	r0, [r7, #12]
20001d4c:	18c3      	adds	r3, r0, r3
20001d4e:	430a      	orrs	r2, r1
20001d50:	b2d2      	uxtb	r2, r2
20001d52:	701a      	strb	r2, [r3, #0]
20001d54:	69bb      	ldr	r3, [r7, #24]
20001d56:	61fb      	str	r3, [r7, #28]
20001d58:	e006      	b.n	20001d68 <hw_claim_unused_from_range+0x7c>
20001d5a:	69bb      	ldr	r3, [r7, #24]
20001d5c:	3301      	adds	r3, #1
20001d5e:	61bb      	str	r3, [r7, #24]
20001d60:	69ba      	ldr	r2, [r7, #24]
20001d62:	683b      	ldr	r3, [r7, #0]
20001d64:	429a      	cmp	r2, r3
20001d66:	d9d5      	bls.n	20001d14 <hw_claim_unused_from_range+0x28>
20001d68:	697b      	ldr	r3, [r7, #20]
20001d6a:	0018      	movs	r0, r3
20001d6c:	f7ff ff4c 	bl	20001c08 <hw_claim_unlock>
20001d70:	69fb      	ldr	r3, [r7, #28]
20001d72:	2b00      	cmp	r3, #0
20001d74:	da08      	bge.n	20001d88 <hw_claim_unused_from_range+0x9c>
20001d76:	230b      	movs	r3, #11
20001d78:	18fb      	adds	r3, r7, r3
20001d7a:	781b      	ldrb	r3, [r3, #0]
20001d7c:	2b00      	cmp	r3, #0
20001d7e:	d003      	beq.n	20001d88 <hw_claim_unused_from_range+0x9c>
20001d80:	6abb      	ldr	r3, [r7, #40]	@ 0x28
20001d82:	0018      	movs	r0, r3
20001d84:	f001 fe30 	bl	200039e8 <panic>
20001d88:	69fb      	ldr	r3, [r7, #28]
20001d8a:	0018      	movs	r0, r3
20001d8c:	46bd      	mov	sp, r7
20001d8e:	b008      	add	sp, #32
20001d90:	bd80      	pop	{r7, pc}
	...

20001d94 <spin_locks_reset>:
20001d94:	b580      	push	{r7, lr}
20001d96:	b084      	sub	sp, #16
20001d98:	af00      	add	r7, sp, #0
20001d9a:	2300      	movs	r3, #0
20001d9c:	60fb      	str	r3, [r7, #12]
20001d9e:	e012      	b.n	20001dc6 <spin_locks_reset+0x32>
20001da0:	68fb      	ldr	r3, [r7, #12]
20001da2:	607b      	str	r3, [r7, #4]
20001da4:	687b      	ldr	r3, [r7, #4]
20001da6:	4a0c      	ldr	r2, [pc, #48]	@ (20001dd8 <spin_locks_reset+0x44>)
20001da8:	4694      	mov	ip, r2
20001daa:	4463      	add	r3, ip
20001dac:	009b      	lsls	r3, r3, #2
20001dae:	60bb      	str	r3, [r7, #8]
20001db0:	f3bf 8f5f 	dmb	sy
20001db4:	46c0      	nop			@ (mov r8, r8)
20001db6:	46c0      	nop			@ (mov r8, r8)
20001db8:	68bb      	ldr	r3, [r7, #8]
20001dba:	2200      	movs	r2, #0
20001dbc:	601a      	str	r2, [r3, #0]
20001dbe:	46c0      	nop			@ (mov r8, r8)
20001dc0:	68fb      	ldr	r3, [r7, #12]
20001dc2:	3301      	adds	r3, #1
20001dc4:	60fb      	str	r3, [r7, #12]
20001dc6:	68fb      	ldr	r3, [r7, #12]
20001dc8:	2b1f      	cmp	r3, #31
20001dca:	d9e9      	bls.n	20001da0 <spin_locks_reset+0xc>
20001dcc:	46c0      	nop			@ (mov r8, r8)
20001dce:	46c0      	nop			@ (mov r8, r8)
20001dd0:	46bd      	mov	sp, r7
20001dd2:	b004      	add	sp, #16
20001dd4:	bd80      	pop	{r7, pc}
20001dd6:	46c0      	nop			@ (mov r8, r8)
20001dd8:	34000040 	.word	0x34000040

20001ddc <next_striped_spin_lock_num>:
20001ddc:	b580      	push	{r7, lr}
20001dde:	b082      	sub	sp, #8
20001de0:	af00      	add	r7, sp, #0
20001de2:	4b09      	ldr	r3, [pc, #36]	@ (20001e08 <next_striped_spin_lock_num+0x2c>)
20001de4:	781b      	ldrb	r3, [r3, #0]
20001de6:	1c5a      	adds	r2, r3, #1
20001de8:	b2d1      	uxtb	r1, r2
20001dea:	4a07      	ldr	r2, [pc, #28]	@ (20001e08 <next_striped_spin_lock_num+0x2c>)
20001dec:	7011      	strb	r1, [r2, #0]
20001dee:	607b      	str	r3, [r7, #4]
20001df0:	4b05      	ldr	r3, [pc, #20]	@ (20001e08 <next_striped_spin_lock_num+0x2c>)
20001df2:	781b      	ldrb	r3, [r3, #0]
20001df4:	2b17      	cmp	r3, #23
20001df6:	d902      	bls.n	20001dfe <next_striped_spin_lock_num+0x22>
20001df8:	4b03      	ldr	r3, [pc, #12]	@ (20001e08 <next_striped_spin_lock_num+0x2c>)
20001dfa:	2210      	movs	r2, #16
20001dfc:	701a      	strb	r2, [r3, #0]
20001dfe:	687b      	ldr	r3, [r7, #4]
20001e00:	0018      	movs	r0, r3
20001e02:	46bd      	mov	sp, r7
20001e04:	b002      	add	sp, #8
20001e06:	bd80      	pop	{r7, pc}
20001e08:	2000b0ec 	.word	0x2000b0ec

20001e0c <spin_lock_claim_unused>:
20001e0c:	b580      	push	{r7, lr}
20001e0e:	b084      	sub	sp, #16
20001e10:	af02      	add	r7, sp, #8
20001e12:	0002      	movs	r2, r0
20001e14:	1dfb      	adds	r3, r7, #7
20001e16:	701a      	strb	r2, [r3, #0]
20001e18:	1dfb      	adds	r3, r7, #7
20001e1a:	7819      	ldrb	r1, [r3, #0]
20001e1c:	4805      	ldr	r0, [pc, #20]	@ (20001e34 <spin_lock_claim_unused+0x28>)
20001e1e:	4b06      	ldr	r3, [pc, #24]	@ (20001e38 <spin_lock_claim_unused+0x2c>)
20001e20:	9300      	str	r3, [sp, #0]
20001e22:	231f      	movs	r3, #31
20001e24:	2218      	movs	r2, #24
20001e26:	f7ff ff61 	bl	20001cec <hw_claim_unused_from_range>
20001e2a:	0003      	movs	r3, r0
20001e2c:	0018      	movs	r0, r3
20001e2e:	46bd      	mov	sp, r7
20001e30:	b002      	add	sp, #8
20001e32:	bd80      	pop	{r7, pc}
20001e34:	2000b834 	.word	0x2000b834
20001e38:	2000ad1c 	.word	0x2000ad1c

20001e3c <hard_assert>:
20001e3c:	b40f      	push	{r0, r1, r2, r3}
20001e3e:	b580      	push	{r7, lr}
20001e40:	af00      	add	r7, sp, #0
20001e42:	2308      	movs	r3, #8
20001e44:	18fb      	adds	r3, r7, r3
20001e46:	781b      	ldrb	r3, [r3, #0]
20001e48:	2201      	movs	r2, #1
20001e4a:	4053      	eors	r3, r2
20001e4c:	b2db      	uxtb	r3, r3
20001e4e:	2b00      	cmp	r3, #0
20001e50:	d001      	beq.n	20001e56 <hard_assert+0x1a>
20001e52:	f001 fde9 	bl	20003a28 <hard_assertion_failure>
20001e56:	46c0      	nop			@ (mov r8, r8)
20001e58:	46bd      	mov	sp, r7
20001e5a:	bc80      	pop	{r7}
20001e5c:	bc08      	pop	{r3}
20001e5e:	b004      	add	sp, #16
20001e60:	4718      	bx	r3

20001e62 <check_irq_param>:
20001e62:	b580      	push	{r7, lr}
20001e64:	b082      	sub	sp, #8
20001e66:	af00      	add	r7, sp, #0
20001e68:	6078      	str	r0, [r7, #4]
20001e6a:	46c0      	nop			@ (mov r8, r8)
20001e6c:	46bd      	mov	sp, r7
20001e6e:	b002      	add	sp, #8
20001e70:	bd80      	pop	{r7, pc}
	...

20001e74 <user_irq_claimed_ptr>:
20001e74:	b580      	push	{r7, lr}
20001e76:	af00      	add	r7, sp, #0
20001e78:	4b01      	ldr	r3, [pc, #4]	@ (20001e80 <user_irq_claimed_ptr+0xc>)
20001e7a:	0018      	movs	r0, r3
20001e7c:	46bd      	mov	sp, r7
20001e7e:	bd80      	pop	{r7, pc}
20001e80:	2000bf52 	.word	0x2000bf52

20001e84 <get_vtable>:
20001e84:	b580      	push	{r7, lr}
20001e86:	af00      	add	r7, sp, #0
20001e88:	4b02      	ldr	r3, [pc, #8]	@ (20001e94 <get_vtable+0x10>)
20001e8a:	689b      	ldr	r3, [r3, #8]
20001e8c:	0018      	movs	r0, r3
20001e8e:	46bd      	mov	sp, r7
20001e90:	bd80      	pop	{r7, pc}
20001e92:	46c0      	nop			@ (mov r8, r8)
20001e94:	e000ed00 	.word	0xe000ed00

20001e98 <add_thumb_bit>:
20001e98:	b580      	push	{r7, lr}
20001e9a:	b082      	sub	sp, #8
20001e9c:	af00      	add	r7, sp, #0
20001e9e:	6078      	str	r0, [r7, #4]
20001ea0:	687b      	ldr	r3, [r7, #4]
20001ea2:	2201      	movs	r2, #1
20001ea4:	4313      	orrs	r3, r2
20001ea6:	0018      	movs	r0, r3
20001ea8:	46bd      	mov	sp, r7
20001eaa:	b002      	add	sp, #8
20001eac:	bd80      	pop	{r7, pc}

20001eae <remove_thumb_bit>:
20001eae:	b580      	push	{r7, lr}
20001eb0:	b082      	sub	sp, #8
20001eb2:	af00      	add	r7, sp, #0
20001eb4:	6078      	str	r0, [r7, #4]
20001eb6:	687b      	ldr	r3, [r7, #4]
20001eb8:	2201      	movs	r2, #1
20001eba:	4393      	bics	r3, r2
20001ebc:	0018      	movs	r0, r3
20001ebe:	46bd      	mov	sp, r7
20001ec0:	b002      	add	sp, #8
20001ec2:	bd80      	pop	{r7, pc}

20001ec4 <set_raw_irq_handler_and_unlock>:
20001ec4:	b580      	push	{r7, lr}
20001ec6:	b08a      	sub	sp, #40	@ 0x28
20001ec8:	af00      	add	r7, sp, #0
20001eca:	60f8      	str	r0, [r7, #12]
20001ecc:	60b9      	str	r1, [r7, #8]
20001ece:	607a      	str	r2, [r7, #4]
20001ed0:	f7ff ffd8 	bl	20001e84 <get_vtable>
20001ed4:	0002      	movs	r2, r0
20001ed6:	68fb      	ldr	r3, [r7, #12]
20001ed8:	3310      	adds	r3, #16
20001eda:	009b      	lsls	r3, r3, #2
20001edc:	18d3      	adds	r3, r2, r3
20001ede:	68ba      	ldr	r2, [r7, #8]
20001ee0:	601a      	str	r2, [r3, #0]
20001ee2:	f3bf 8f5f 	dmb	sy
20001ee6:	46c0      	nop			@ (mov r8, r8)
20001ee8:	2309      	movs	r3, #9
20001eea:	617b      	str	r3, [r7, #20]
20001eec:	697b      	ldr	r3, [r7, #20]
20001eee:	4a0e      	ldr	r2, [pc, #56]	@ (20001f28 <set_raw_irq_handler_and_unlock+0x64>)
20001ef0:	4694      	mov	ip, r2
20001ef2:	4463      	add	r3, ip
20001ef4:	009b      	lsls	r3, r3, #2
20001ef6:	627b      	str	r3, [r7, #36]	@ 0x24
20001ef8:	687b      	ldr	r3, [r7, #4]
20001efa:	623b      	str	r3, [r7, #32]
20001efc:	6a7b      	ldr	r3, [r7, #36]	@ 0x24
20001efe:	61fb      	str	r3, [r7, #28]
20001f00:	f3bf 8f5f 	dmb	sy
20001f04:	46c0      	nop			@ (mov r8, r8)
20001f06:	46c0      	nop			@ (mov r8, r8)
20001f08:	69fb      	ldr	r3, [r7, #28]
20001f0a:	2200      	movs	r2, #0
20001f0c:	601a      	str	r2, [r3, #0]
20001f0e:	46c0      	nop			@ (mov r8, r8)
20001f10:	6a3b      	ldr	r3, [r7, #32]
20001f12:	61bb      	str	r3, [r7, #24]
20001f14:	69bb      	ldr	r3, [r7, #24]
20001f16:	f383 8810 	msr	PRIMASK, r3
20001f1a:	46c0      	nop			@ (mov r8, r8)
20001f1c:	46c0      	nop			@ (mov r8, r8)
20001f1e:	46c0      	nop			@ (mov r8, r8)
20001f20:	46bd      	mov	sp, r7
20001f22:	b00a      	add	sp, #40	@ 0x28
20001f24:	bd80      	pop	{r7, pc}
20001f26:	46c0      	nop			@ (mov r8, r8)
20001f28:	34000040 	.word	0x34000040

20001f2c <irq_set_enabled>:
20001f2c:	b580      	push	{r7, lr}
20001f2e:	b082      	sub	sp, #8
20001f30:	af00      	add	r7, sp, #0
20001f32:	6078      	str	r0, [r7, #4]
20001f34:	000a      	movs	r2, r1
20001f36:	1cfb      	adds	r3, r7, #3
20001f38:	701a      	strb	r2, [r3, #0]
20001f3a:	687b      	ldr	r3, [r7, #4]
20001f3c:	0018      	movs	r0, r3
20001f3e:	f7ff ff90 	bl	20001e62 <check_irq_param>
20001f42:	2201      	movs	r2, #1
20001f44:	687b      	ldr	r3, [r7, #4]
20001f46:	409a      	lsls	r2, r3
20001f48:	1cfb      	adds	r3, r7, #3
20001f4a:	781b      	ldrb	r3, [r3, #0]
20001f4c:	0019      	movs	r1, r3
20001f4e:	0010      	movs	r0, r2
20001f50:	f000 f81c 	bl	20001f8c <irq_set_mask_enabled>
20001f54:	46c0      	nop			@ (mov r8, r8)
20001f56:	46bd      	mov	sp, r7
20001f58:	b002      	add	sp, #8
20001f5a:	bd80      	pop	{r7, pc}

20001f5c <irq_is_enabled>:
20001f5c:	b580      	push	{r7, lr}
20001f5e:	b082      	sub	sp, #8
20001f60:	af00      	add	r7, sp, #0
20001f62:	6078      	str	r0, [r7, #4]
20001f64:	687b      	ldr	r3, [r7, #4]
20001f66:	0018      	movs	r0, r3
20001f68:	f7ff ff7b 	bl	20001e62 <check_irq_param>
20001f6c:	2201      	movs	r2, #1
20001f6e:	687b      	ldr	r3, [r7, #4]
20001f70:	409a      	lsls	r2, r3
20001f72:	4b05      	ldr	r3, [pc, #20]	@ (20001f88 <irq_is_enabled+0x2c>)
20001f74:	681b      	ldr	r3, [r3, #0]
20001f76:	4013      	ands	r3, r2
20001f78:	1e5a      	subs	r2, r3, #1
20001f7a:	4193      	sbcs	r3, r2
20001f7c:	b2db      	uxtb	r3, r3
20001f7e:	0018      	movs	r0, r3
20001f80:	46bd      	mov	sp, r7
20001f82:	b002      	add	sp, #8
20001f84:	bd80      	pop	{r7, pc}
20001f86:	46c0      	nop			@ (mov r8, r8)
20001f88:	e000e100 	.word	0xe000e100

20001f8c <irq_set_mask_enabled>:
20001f8c:	b580      	push	{r7, lr}
20001f8e:	b082      	sub	sp, #8
20001f90:	af00      	add	r7, sp, #0
20001f92:	6078      	str	r0, [r7, #4]
20001f94:	000a      	movs	r2, r1
20001f96:	1cfb      	adds	r3, r7, #3
20001f98:	701a      	strb	r2, [r3, #0]
20001f9a:	1cfb      	adds	r3, r7, #3
20001f9c:	781b      	ldrb	r3, [r3, #0]
20001f9e:	2b00      	cmp	r3, #0
20001fa0:	d006      	beq.n	20001fb0 <irq_set_mask_enabled+0x24>
20001fa2:	4b07      	ldr	r3, [pc, #28]	@ (20001fc0 <irq_set_mask_enabled+0x34>)
20001fa4:	687a      	ldr	r2, [r7, #4]
20001fa6:	601a      	str	r2, [r3, #0]
20001fa8:	4b06      	ldr	r3, [pc, #24]	@ (20001fc4 <irq_set_mask_enabled+0x38>)
20001faa:	687a      	ldr	r2, [r7, #4]
20001fac:	601a      	str	r2, [r3, #0]
20001fae:	e002      	b.n	20001fb6 <irq_set_mask_enabled+0x2a>
20001fb0:	4b05      	ldr	r3, [pc, #20]	@ (20001fc8 <irq_set_mask_enabled+0x3c>)
20001fb2:	687a      	ldr	r2, [r7, #4]
20001fb4:	601a      	str	r2, [r3, #0]
20001fb6:	46c0      	nop			@ (mov r8, r8)
20001fb8:	46bd      	mov	sp, r7
20001fba:	b002      	add	sp, #8
20001fbc:	bd80      	pop	{r7, pc}
20001fbe:	46c0      	nop			@ (mov r8, r8)
20001fc0:	e000e280 	.word	0xe000e280
20001fc4:	e000e100 	.word	0xe000e100
20001fc8:	e000e180 	.word	0xe000e180

20001fcc <irq_set_pending>:
20001fcc:	b580      	push	{r7, lr}
20001fce:	b082      	sub	sp, #8
20001fd0:	af00      	add	r7, sp, #0
20001fd2:	6078      	str	r0, [r7, #4]
20001fd4:	687b      	ldr	r3, [r7, #4]
20001fd6:	0018      	movs	r0, r3
20001fd8:	f7ff ff43 	bl	20001e62 <check_irq_param>
20001fdc:	4b04      	ldr	r3, [pc, #16]	@ (20001ff0 <irq_set_pending+0x24>)
20001fde:	2101      	movs	r1, #1
20001fe0:	687a      	ldr	r2, [r7, #4]
20001fe2:	4091      	lsls	r1, r2
20001fe4:	000a      	movs	r2, r1
20001fe6:	601a      	str	r2, [r3, #0]
20001fe8:	46c0      	nop			@ (mov r8, r8)
20001fea:	46bd      	mov	sp, r7
20001fec:	b002      	add	sp, #8
20001fee:	bd80      	pop	{r7, pc}
20001ff0:	e000e200 	.word	0xe000e200

20001ff4 <is_shared_irq_raw_handler>:
20001ff4:	b580      	push	{r7, lr}
20001ff6:	b082      	sub	sp, #8
20001ff8:	af00      	add	r7, sp, #0
20001ffa:	6078      	str	r0, [r7, #4]
20001ffc:	687a      	ldr	r2, [r7, #4]
20001ffe:	4b05      	ldr	r3, [pc, #20]	@ (20002014 <is_shared_irq_raw_handler+0x20>)
20002000:	1ad2      	subs	r2, r2, r3
20002002:	212f      	movs	r1, #47	@ 0x2f
20002004:	2300      	movs	r3, #0
20002006:	4291      	cmp	r1, r2
20002008:	415b      	adcs	r3, r3
2000200a:	b2db      	uxtb	r3, r3
2000200c:	0018      	movs	r0, r3
2000200e:	46bd      	mov	sp, r7
20002010:	b002      	add	sp, #8
20002012:	bd80      	pop	{r7, pc}
20002014:	2000b0f0 	.word	0x2000b0f0

20002018 <irq_has_shared_handler>:
20002018:	b580      	push	{r7, lr}
2000201a:	b084      	sub	sp, #16
2000201c:	af00      	add	r7, sp, #0
2000201e:	6078      	str	r0, [r7, #4]
20002020:	687b      	ldr	r3, [r7, #4]
20002022:	0018      	movs	r0, r3
20002024:	f7ff ff1d 	bl	20001e62 <check_irq_param>
20002028:	687b      	ldr	r3, [r7, #4]
2000202a:	0018      	movs	r0, r3
2000202c:	f000 f816 	bl	2000205c <irq_get_vtable_handler>
20002030:	0003      	movs	r3, r0
20002032:	60fb      	str	r3, [r7, #12]
20002034:	68fb      	ldr	r3, [r7, #12]
20002036:	2b00      	cmp	r3, #0
20002038:	d007      	beq.n	2000204a <irq_has_shared_handler+0x32>
2000203a:	68fb      	ldr	r3, [r7, #12]
2000203c:	0018      	movs	r0, r3
2000203e:	f7ff ffd9 	bl	20001ff4 <is_shared_irq_raw_handler>
20002042:	1e03      	subs	r3, r0, #0
20002044:	d001      	beq.n	2000204a <irq_has_shared_handler+0x32>
20002046:	2301      	movs	r3, #1
20002048:	e000      	b.n	2000204c <irq_has_shared_handler+0x34>
2000204a:	2300      	movs	r3, #0
2000204c:	1c1a      	adds	r2, r3, #0
2000204e:	2301      	movs	r3, #1
20002050:	4013      	ands	r3, r2
20002052:	b2db      	uxtb	r3, r3
20002054:	0018      	movs	r0, r3
20002056:	46bd      	mov	sp, r7
20002058:	b004      	add	sp, #16
2000205a:	bd80      	pop	{r7, pc}

2000205c <irq_get_vtable_handler>:
2000205c:	b580      	push	{r7, lr}
2000205e:	b082      	sub	sp, #8
20002060:	af00      	add	r7, sp, #0
20002062:	6078      	str	r0, [r7, #4]
20002064:	687b      	ldr	r3, [r7, #4]
20002066:	0018      	movs	r0, r3
20002068:	f7ff fefb 	bl	20001e62 <check_irq_param>
2000206c:	f7ff ff0a 	bl	20001e84 <get_vtable>
20002070:	0002      	movs	r2, r0
20002072:	687b      	ldr	r3, [r7, #4]
20002074:	3310      	adds	r3, #16
20002076:	009b      	lsls	r3, r3, #2
20002078:	18d3      	adds	r3, r2, r3
2000207a:	681b      	ldr	r3, [r3, #0]
2000207c:	0018      	movs	r0, r3
2000207e:	46bd      	mov	sp, r7
20002080:	b002      	add	sp, #8
20002082:	bd80      	pop	{r7, pc}

20002084 <irq_set_exclusive_handler>:
20002084:	b580      	push	{r7, lr}
20002086:	b08a      	sub	sp, #40	@ 0x28
20002088:	af00      	add	r7, sp, #0
2000208a:	6078      	str	r0, [r7, #4]
2000208c:	6039      	str	r1, [r7, #0]
2000208e:	687b      	ldr	r3, [r7, #4]
20002090:	0018      	movs	r0, r3
20002092:	f7ff fee6 	bl	20001e62 <check_irq_param>
20002096:	2309      	movs	r3, #9
20002098:	60bb      	str	r3, [r7, #8]
2000209a:	68bb      	ldr	r3, [r7, #8]
2000209c:	4a1f      	ldr	r2, [pc, #124]	@ (2000211c <irq_set_exclusive_handler+0x98>)
2000209e:	4694      	mov	ip, r2
200020a0:	4463      	add	r3, ip
200020a2:	009b      	lsls	r3, r3, #2
200020a4:	627b      	str	r3, [r7, #36]	@ 0x24
200020a6:	6a7b      	ldr	r3, [r7, #36]	@ 0x24
200020a8:	61bb      	str	r3, [r7, #24]
200020aa:	f3ef 8310 	mrs	r3, PRIMASK
200020ae:	b672      	cpsid	i
200020b0:	617b      	str	r3, [r7, #20]
200020b2:	697b      	ldr	r3, [r7, #20]
200020b4:	613b      	str	r3, [r7, #16]
200020b6:	69bb      	ldr	r3, [r7, #24]
200020b8:	60fb      	str	r3, [r7, #12]
200020ba:	46c0      	nop			@ (mov r8, r8)
200020bc:	68fb      	ldr	r3, [r7, #12]
200020be:	681b      	ldr	r3, [r3, #0]
200020c0:	425a      	negs	r2, r3
200020c2:	4153      	adcs	r3, r2
200020c4:	b2db      	uxtb	r3, r3
200020c6:	2b00      	cmp	r3, #0
200020c8:	d1f8      	bne.n	200020bc <irq_set_exclusive_handler+0x38>
200020ca:	f3bf 8f5f 	dmb	sy
200020ce:	46c0      	nop			@ (mov r8, r8)
200020d0:	46c0      	nop			@ (mov r8, r8)
200020d2:	46c0      	nop			@ (mov r8, r8)
200020d4:	693b      	ldr	r3, [r7, #16]
200020d6:	623b      	str	r3, [r7, #32]
200020d8:	687b      	ldr	r3, [r7, #4]
200020da:	0018      	movs	r0, r3
200020dc:	f7ff ffbe 	bl	2000205c <irq_get_vtable_handler>
200020e0:	0003      	movs	r3, r0
200020e2:	61fb      	str	r3, [r7, #28]
200020e4:	69fa      	ldr	r2, [r7, #28]
200020e6:	4b0e      	ldr	r3, [pc, #56]	@ (20002120 <irq_set_exclusive_handler+0x9c>)
200020e8:	429a      	cmp	r2, r3
200020ea:	d003      	beq.n	200020f4 <irq_set_exclusive_handler+0x70>
200020ec:	69fa      	ldr	r2, [r7, #28]
200020ee:	683b      	ldr	r3, [r7, #0]
200020f0:	429a      	cmp	r2, r3
200020f2:	d101      	bne.n	200020f8 <irq_set_exclusive_handler+0x74>
200020f4:	2301      	movs	r3, #1
200020f6:	e000      	b.n	200020fa <irq_set_exclusive_handler+0x76>
200020f8:	2300      	movs	r3, #0
200020fa:	1c1a      	adds	r2, r3, #0
200020fc:	2301      	movs	r3, #1
200020fe:	4013      	ands	r3, r2
20002100:	b2db      	uxtb	r3, r3
20002102:	0018      	movs	r0, r3
20002104:	f7ff fe9a 	bl	20001e3c <hard_assert>
20002108:	6a3a      	ldr	r2, [r7, #32]
2000210a:	6839      	ldr	r1, [r7, #0]
2000210c:	687b      	ldr	r3, [r7, #4]
2000210e:	0018      	movs	r0, r3
20002110:	f7ff fed8 	bl	20001ec4 <set_raw_irq_handler_and_unlock>
20002114:	46c0      	nop			@ (mov r8, r8)
20002116:	46bd      	mov	sp, r7
20002118:	b00a      	add	sp, #40	@ 0x28
2000211a:	bd80      	pop	{r7, pc}
2000211c:	34000040 	.word	0x34000040
20002120:	100001cd 	.word	0x100001cd

20002124 <make_branch>:
20002124:	b580      	push	{r7, lr}
20002126:	b086      	sub	sp, #24
20002128:	af00      	add	r7, sp, #0
2000212a:	6078      	str	r0, [r7, #4]
2000212c:	6039      	str	r1, [r7, #0]
2000212e:	687b      	ldr	r3, [r7, #4]
20002130:	617b      	str	r3, [r7, #20]
20002132:	683b      	ldr	r3, [r7, #0]
20002134:	613b      	str	r3, [r7, #16]
20002136:	693a      	ldr	r2, [r7, #16]
20002138:	697b      	ldr	r3, [r7, #20]
2000213a:	1ad3      	subs	r3, r2, r3
2000213c:	3b04      	subs	r3, #4
2000213e:	60fb      	str	r3, [r7, #12]
20002140:	68fb      	ldr	r3, [r7, #12]
20002142:	105b      	asrs	r3, r3, #1
20002144:	b21b      	sxth	r3, r3
20002146:	055b      	lsls	r3, r3, #21
20002148:	0d5b      	lsrs	r3, r3, #21
2000214a:	b21b      	sxth	r3, r3
2000214c:	4a03      	ldr	r2, [pc, #12]	@ (2000215c <make_branch+0x38>)
2000214e:	4313      	orrs	r3, r2
20002150:	b21b      	sxth	r3, r3
20002152:	b29b      	uxth	r3, r3
20002154:	0018      	movs	r0, r3
20002156:	46bd      	mov	sp, r7
20002158:	b006      	add	sp, #24
2000215a:	bd80      	pop	{r7, pc}
2000215c:	ffffe000 	.word	0xffffe000

20002160 <insert_branch_and_link>:
20002160:	b580      	push	{r7, lr}
20002162:	b086      	sub	sp, #24
20002164:	af00      	add	r7, sp, #0
20002166:	6078      	str	r0, [r7, #4]
20002168:	6039      	str	r1, [r7, #0]
2000216a:	687b      	ldr	r3, [r7, #4]
2000216c:	617b      	str	r3, [r7, #20]
2000216e:	683b      	ldr	r3, [r7, #0]
20002170:	613b      	str	r3, [r7, #16]
20002172:	693a      	ldr	r2, [r7, #16]
20002174:	697b      	ldr	r3, [r7, #20]
20002176:	1ad3      	subs	r3, r2, r3
20002178:	3b04      	subs	r3, #4
2000217a:	085b      	lsrs	r3, r3, #1
2000217c:	60fb      	str	r3, [r7, #12]
2000217e:	68fb      	ldr	r3, [r7, #12]
20002180:	0adb      	lsrs	r3, r3, #11
20002182:	b29b      	uxth	r3, r3
20002184:	055b      	lsls	r3, r3, #21
20002186:	0d5b      	lsrs	r3, r3, #21
20002188:	b29b      	uxth	r3, r3
2000218a:	4a08      	ldr	r2, [pc, #32]	@ (200021ac <insert_branch_and_link+0x4c>)
2000218c:	4313      	orrs	r3, r2
2000218e:	b29a      	uxth	r2, r3
20002190:	687b      	ldr	r3, [r7, #4]
20002192:	801a      	strh	r2, [r3, #0]
20002194:	68fb      	ldr	r3, [r7, #12]
20002196:	b29a      	uxth	r2, r3
20002198:	687b      	ldr	r3, [r7, #4]
2000219a:	3302      	adds	r3, #2
2000219c:	4904      	ldr	r1, [pc, #16]	@ (200021b0 <insert_branch_and_link+0x50>)
2000219e:	430a      	orrs	r2, r1
200021a0:	b292      	uxth	r2, r2
200021a2:	801a      	strh	r2, [r3, #0]
200021a4:	46c0      	nop			@ (mov r8, r8)
200021a6:	46bd      	mov	sp, r7
200021a8:	b006      	add	sp, #24
200021aa:	bd80      	pop	{r7, pc}
200021ac:	fffff000 	.word	0xfffff000
200021b0:	fffff800 	.word	0xfffff800

200021b4 <resolve_branch>:
200021b4:	b580      	push	{r7, lr}
200021b6:	b084      	sub	sp, #16
200021b8:	af00      	add	r7, sp, #0
200021ba:	6078      	str	r0, [r7, #4]
200021bc:	687b      	ldr	r3, [r7, #4]
200021be:	881b      	ldrh	r3, [r3, #0]
200021c0:	055b      	lsls	r3, r3, #21
200021c2:	60fb      	str	r3, [r7, #12]
200021c4:	68fb      	ldr	r3, [r7, #12]
200021c6:	2b00      	cmp	r3, #0
200021c8:	da02      	bge.n	200021d0 <resolve_branch+0x1c>
200021ca:	4a07      	ldr	r2, [pc, #28]	@ (200021e8 <resolve_branch+0x34>)
200021cc:	4694      	mov	ip, r2
200021ce:	4463      	add	r3, ip
200021d0:	155b      	asrs	r3, r3, #21
200021d2:	60fb      	str	r3, [r7, #12]
200021d4:	68fb      	ldr	r3, [r7, #12]
200021d6:	3302      	adds	r3, #2
200021d8:	005b      	lsls	r3, r3, #1
200021da:	687a      	ldr	r2, [r7, #4]
200021dc:	18d3      	adds	r3, r2, r3
200021de:	0018      	movs	r0, r3
200021e0:	46bd      	mov	sp, r7
200021e2:	b004      	add	sp, #16
200021e4:	bd80      	pop	{r7, pc}
200021e6:	46c0      	nop			@ (mov r8, r8)
200021e8:	001fffff 	.word	0x001fffff

200021ec <slot_diff>:
200021ec:	b580      	push	{r7, lr}
200021ee:	b084      	sub	sp, #16
200021f0:	af00      	add	r7, sp, #0
200021f2:	6078      	str	r0, [r7, #4]
200021f4:	6039      	str	r1, [r7, #0]
200021f6:	4b08      	ldr	r3, [pc, #32]	@ (20002218 <slot_diff+0x2c>)
200021f8:	60fb      	str	r3, [r7, #12]
200021fa:	6839      	ldr	r1, [r7, #0]
200021fc:	68fa      	ldr	r2, [r7, #12]
200021fe:	687b      	ldr	r3, [r7, #4]
20002200:	1a5b      	subs	r3, r3, r1
20002202:	415b      	adcs	r3, r3
20002204:	435a      	muls	r2, r3
20002206:	0d12      	lsrs	r2, r2, #20
20002208:	60fa      	str	r2, [r7, #12]
2000220a:	607b      	str	r3, [r7, #4]
2000220c:	68fb      	ldr	r3, [r7, #12]
2000220e:	b25b      	sxtb	r3, r3
20002210:	0018      	movs	r0, r3
20002212:	46bd      	mov	sp, r7
20002214:	b004      	add	sp, #16
20002216:	bd80      	pop	{r7, pc}
20002218:	0000aaaa 	.word	0x0000aaaa

2000221c <get_slot_index>:
2000221c:	b580      	push	{r7, lr}
2000221e:	b082      	sub	sp, #8
20002220:	af00      	add	r7, sp, #0
20002222:	6078      	str	r0, [r7, #4]
20002224:	4a05      	ldr	r2, [pc, #20]	@ (2000223c <get_slot_index+0x20>)
20002226:	687b      	ldr	r3, [r7, #4]
20002228:	0011      	movs	r1, r2
2000222a:	0018      	movs	r0, r3
2000222c:	f7ff ffde 	bl	200021ec <slot_diff>
20002230:	0003      	movs	r3, r0
20002232:	0018      	movs	r0, r3
20002234:	46bd      	mov	sp, r7
20002236:	b002      	add	sp, #8
20002238:	bd80      	pop	{r7, pc}
2000223a:	46c0      	nop			@ (mov r8, r8)
2000223c:	2000b0f0 	.word	0x2000b0f0

20002240 <irq_add_shared_handler>:
20002240:	b590      	push	{r4, r7, lr}
20002242:	b09b      	sub	sp, #108	@ 0x6c
20002244:	af00      	add	r7, sp, #0
20002246:	60f8      	str	r0, [r7, #12]
20002248:	60b9      	str	r1, [r7, #8]
2000224a:	1dfb      	adds	r3, r7, #7
2000224c:	701a      	strb	r2, [r3, #0]
2000224e:	68fb      	ldr	r3, [r7, #12]
20002250:	0018      	movs	r0, r3
20002252:	f7ff fe06 	bl	20001e62 <check_irq_param>
20002256:	2309      	movs	r3, #9
20002258:	637b      	str	r3, [r7, #52]	@ 0x34
2000225a:	6b7b      	ldr	r3, [r7, #52]	@ 0x34
2000225c:	4a97      	ldr	r2, [pc, #604]	@ (200024bc <irq_add_shared_handler+0x27c>)
2000225e:	4694      	mov	ip, r2
20002260:	4463      	add	r3, ip
20002262:	009b      	lsls	r3, r3, #2
20002264:	65bb      	str	r3, [r7, #88]	@ 0x58
20002266:	6dbb      	ldr	r3, [r7, #88]	@ 0x58
20002268:	647b      	str	r3, [r7, #68]	@ 0x44
2000226a:	f3ef 8310 	mrs	r3, PRIMASK
2000226e:	b672      	cpsid	i
20002270:	643b      	str	r3, [r7, #64]	@ 0x40
20002272:	6c3b      	ldr	r3, [r7, #64]	@ 0x40
20002274:	63fb      	str	r3, [r7, #60]	@ 0x3c
20002276:	6c7b      	ldr	r3, [r7, #68]	@ 0x44
20002278:	63bb      	str	r3, [r7, #56]	@ 0x38
2000227a:	46c0      	nop			@ (mov r8, r8)
2000227c:	6bbb      	ldr	r3, [r7, #56]	@ 0x38
2000227e:	681b      	ldr	r3, [r3, #0]
20002280:	425a      	negs	r2, r3
20002282:	4153      	adcs	r3, r2
20002284:	b2db      	uxtb	r3, r3
20002286:	2b00      	cmp	r3, #0
20002288:	d1f8      	bne.n	2000227c <irq_add_shared_handler+0x3c>
2000228a:	f3bf 8f5f 	dmb	sy
2000228e:	46c0      	nop			@ (mov r8, r8)
20002290:	46c0      	nop			@ (mov r8, r8)
20002292:	46c0      	nop			@ (mov r8, r8)
20002294:	6bfb      	ldr	r3, [r7, #60]	@ 0x3c
20002296:	657b      	str	r3, [r7, #84]	@ 0x54
20002298:	4b89      	ldr	r3, [pc, #548]	@ (200024c0 <irq_add_shared_handler+0x280>)
2000229a:	781b      	ldrb	r3, [r3, #0]
2000229c:	b25b      	sxtb	r3, r3
2000229e:	43db      	mvns	r3, r3
200022a0:	b2db      	uxtb	r3, r3
200022a2:	09db      	lsrs	r3, r3, #7
200022a4:	b2db      	uxtb	r3, r3
200022a6:	0018      	movs	r0, r3
200022a8:	f7ff fdc8 	bl	20001e3c <hard_assert>
200022ac:	4b84      	ldr	r3, [pc, #528]	@ (200024c0 <irq_add_shared_handler+0x280>)
200022ae:	781b      	ldrb	r3, [r3, #0]
200022b0:	b25b      	sxtb	r3, r3
200022b2:	001a      	movs	r2, r3
200022b4:	0013      	movs	r3, r2
200022b6:	005b      	lsls	r3, r3, #1
200022b8:	189b      	adds	r3, r3, r2
200022ba:	009b      	lsls	r3, r3, #2
200022bc:	4a81      	ldr	r2, [pc, #516]	@ (200024c4 <irq_add_shared_handler+0x284>)
200022be:	189b      	adds	r3, r3, r2
200022c0:	653b      	str	r3, [r7, #80]	@ 0x50
200022c2:	234f      	movs	r3, #79	@ 0x4f
200022c4:	18fb      	adds	r3, r7, r3
200022c6:	4a7e      	ldr	r2, [pc, #504]	@ (200024c0 <irq_add_shared_handler+0x280>)
200022c8:	7812      	ldrb	r2, [r2, #0]
200022ca:	701a      	strb	r2, [r3, #0]
200022cc:	6d3b      	ldr	r3, [r7, #80]	@ 0x50
200022ce:	2206      	movs	r2, #6
200022d0:	569a      	ldrsb	r2, [r3, r2]
200022d2:	4b7b      	ldr	r3, [pc, #492]	@ (200024c0 <irq_add_shared_handler+0x280>)
200022d4:	701a      	strb	r2, [r3, #0]
200022d6:	f7ff fdd5 	bl	20001e84 <get_vtable>
200022da:	0002      	movs	r2, r0
200022dc:	68fb      	ldr	r3, [r7, #12]
200022de:	3310      	adds	r3, #16
200022e0:	009b      	lsls	r3, r3, #2
200022e2:	18d3      	adds	r3, r2, r3
200022e4:	681b      	ldr	r3, [r3, #0]
200022e6:	667b      	str	r3, [r7, #100]	@ 0x64
200022e8:	6e7b      	ldr	r3, [r7, #100]	@ 0x64
200022ea:	0018      	movs	r0, r3
200022ec:	f7ff fe82 	bl	20001ff4 <is_shared_irq_raw_handler>
200022f0:	0003      	movs	r3, r0
200022f2:	001a      	movs	r2, r3
200022f4:	2301      	movs	r3, #1
200022f6:	4053      	eors	r3, r2
200022f8:	b2db      	uxtb	r3, r3
200022fa:	2b00      	cmp	r3, #0
200022fc:	d030      	beq.n	20002360 <irq_add_shared_handler+0x120>
200022fe:	6e7a      	ldr	r2, [r7, #100]	@ 0x64
20002300:	4b71      	ldr	r3, [pc, #452]	@ (200024c8 <irq_add_shared_handler+0x288>)
20002302:	1ad3      	subs	r3, r2, r3
20002304:	425a      	negs	r2, r3
20002306:	4153      	adcs	r3, r2
20002308:	b2db      	uxtb	r3, r3
2000230a:	0018      	movs	r0, r3
2000230c:	f7ff fd96 	bl	20001e3c <hard_assert>
20002310:	2428      	movs	r4, #40	@ 0x28
20002312:	193b      	adds	r3, r7, r4
20002314:	4a6d      	ldr	r2, [pc, #436]	@ (200024cc <irq_add_shared_handler+0x28c>)
20002316:	801a      	strh	r2, [r3, #0]
20002318:	6d3b      	ldr	r3, [r7, #80]	@ 0x50
2000231a:	3302      	adds	r3, #2
2000231c:	4a6c      	ldr	r2, [pc, #432]	@ (200024d0 <irq_add_shared_handler+0x290>)
2000231e:	0011      	movs	r1, r2
20002320:	0018      	movs	r0, r3
20002322:	f7ff feff 	bl	20002124 <make_branch>
20002326:	0003      	movs	r3, r0
20002328:	001a      	movs	r2, r3
2000232a:	0021      	movs	r1, r4
2000232c:	187b      	adds	r3, r7, r1
2000232e:	805a      	strh	r2, [r3, #2]
20002330:	187b      	adds	r3, r7, r1
20002332:	4a68      	ldr	r2, [pc, #416]	@ (200024d4 <irq_add_shared_handler+0x294>)
20002334:	809a      	strh	r2, [r3, #4]
20002336:	187b      	adds	r3, r7, r1
20002338:	22ff      	movs	r2, #255	@ 0xff
2000233a:	719a      	strb	r2, [r3, #6]
2000233c:	187b      	adds	r3, r7, r1
2000233e:	1dfa      	adds	r2, r7, #7
20002340:	7812      	ldrb	r2, [r2, #0]
20002342:	71da      	strb	r2, [r3, #7]
20002344:	187b      	adds	r3, r7, r1
20002346:	68ba      	ldr	r2, [r7, #8]
20002348:	609a      	str	r2, [r3, #8]
2000234a:	6d3b      	ldr	r3, [r7, #80]	@ 0x50
2000234c:	187a      	adds	r2, r7, r1
2000234e:	ca13      	ldmia	r2!, {r0, r1, r4}
20002350:	c313      	stmia	r3!, {r0, r1, r4}
20002352:	6d3b      	ldr	r3, [r7, #80]	@ 0x50
20002354:	0018      	movs	r0, r3
20002356:	f7ff fd9f 	bl	20001e98 <add_thumb_bit>
2000235a:	0003      	movs	r3, r0
2000235c:	667b      	str	r3, [r7, #100]	@ 0x64
2000235e:	e0a2      	b.n	200024a6 <irq_add_shared_handler+0x266>
20002360:	2300      	movs	r3, #0
20002362:	663b      	str	r3, [r7, #96]	@ 0x60
20002364:	6e7b      	ldr	r3, [r7, #100]	@ 0x64
20002366:	0018      	movs	r0, r3
20002368:	f7ff fda1 	bl	20001eae <remove_thumb_bit>
2000236c:	0003      	movs	r3, r0
2000236e:	64bb      	str	r3, [r7, #72]	@ 0x48
20002370:	6cbb      	ldr	r3, [r7, #72]	@ 0x48
20002372:	65fb      	str	r3, [r7, #92]	@ 0x5c
20002374:	e011      	b.n	2000239a <irq_add_shared_handler+0x15a>
20002376:	6dfb      	ldr	r3, [r7, #92]	@ 0x5c
20002378:	663b      	str	r3, [r7, #96]	@ 0x60
2000237a:	6dfb      	ldr	r3, [r7, #92]	@ 0x5c
2000237c:	799b      	ldrb	r3, [r3, #6]
2000237e:	b25b      	sxtb	r3, r3
20002380:	2b00      	cmp	r3, #0
20002382:	db11      	blt.n	200023a8 <irq_add_shared_handler+0x168>
20002384:	6dfb      	ldr	r3, [r7, #92]	@ 0x5c
20002386:	799b      	ldrb	r3, [r3, #6]
20002388:	b25b      	sxtb	r3, r3
2000238a:	001a      	movs	r2, r3
2000238c:	0013      	movs	r3, r2
2000238e:	005b      	lsls	r3, r3, #1
20002390:	189b      	adds	r3, r3, r2
20002392:	009b      	lsls	r3, r3, #2
20002394:	4a4b      	ldr	r2, [pc, #300]	@ (200024c4 <irq_add_shared_handler+0x284>)
20002396:	189b      	adds	r3, r3, r2
20002398:	65fb      	str	r3, [r7, #92]	@ 0x5c
2000239a:	6dfb      	ldr	r3, [r7, #92]	@ 0x5c
2000239c:	79db      	ldrb	r3, [r3, #7]
2000239e:	1dfa      	adds	r2, r7, #7
200023a0:	7812      	ldrb	r2, [r2, #0]
200023a2:	429a      	cmp	r2, r3
200023a4:	d3e7      	bcc.n	20002376 <irq_add_shared_handler+0x136>
200023a6:	e000      	b.n	200023aa <irq_add_shared_handler+0x16a>
200023a8:	46c0      	nop			@ (mov r8, r8)
200023aa:	6e3b      	ldr	r3, [r7, #96]	@ 0x60
200023ac:	2b00      	cmp	r3, #0
200023ae:	d040      	beq.n	20002432 <irq_add_shared_handler+0x1f2>
200023b0:	211c      	movs	r1, #28
200023b2:	187b      	adds	r3, r7, r1
200023b4:	4a48      	ldr	r2, [pc, #288]	@ (200024d8 <irq_add_shared_handler+0x298>)
200023b6:	801a      	strh	r2, [r3, #0]
200023b8:	187b      	adds	r3, r7, r1
200023ba:	228f      	movs	r2, #143	@ 0x8f
200023bc:	01d2      	lsls	r2, r2, #7
200023be:	805a      	strh	r2, [r3, #2]
200023c0:	6e3b      	ldr	r3, [r7, #96]	@ 0x60
200023c2:	799b      	ldrb	r3, [r3, #6]
200023c4:	b25b      	sxtb	r3, r3
200023c6:	2b00      	cmp	r3, #0
200023c8:	db0e      	blt.n	200023e8 <irq_add_shared_handler+0x1a8>
200023ca:	6d3b      	ldr	r3, [r7, #80]	@ 0x50
200023cc:	1d1c      	adds	r4, r3, #4
200023ce:	6e3b      	ldr	r3, [r7, #96]	@ 0x60
200023d0:	3304      	adds	r3, #4
200023d2:	0018      	movs	r0, r3
200023d4:	f7ff feee 	bl	200021b4 <resolve_branch>
200023d8:	0003      	movs	r3, r0
200023da:	0019      	movs	r1, r3
200023dc:	0020      	movs	r0, r4
200023de:	f7ff fea1 	bl	20002124 <make_branch>
200023e2:	0003      	movs	r3, r0
200023e4:	001a      	movs	r2, r3
200023e6:	e000      	b.n	200023ea <irq_add_shared_handler+0x1aa>
200023e8:	4a3c      	ldr	r2, [pc, #240]	@ (200024dc <irq_add_shared_handler+0x29c>)
200023ea:	241c      	movs	r4, #28
200023ec:	193b      	adds	r3, r7, r4
200023ee:	809a      	strh	r2, [r3, #4]
200023f0:	6e3b      	ldr	r3, [r7, #96]	@ 0x60
200023f2:	2206      	movs	r2, #6
200023f4:	569a      	ldrsb	r2, [r3, r2]
200023f6:	193b      	adds	r3, r7, r4
200023f8:	719a      	strb	r2, [r3, #6]
200023fa:	193b      	adds	r3, r7, r4
200023fc:	1dfa      	adds	r2, r7, #7
200023fe:	7812      	ldrb	r2, [r2, #0]
20002400:	71da      	strb	r2, [r3, #7]
20002402:	193b      	adds	r3, r7, r4
20002404:	68ba      	ldr	r2, [r7, #8]
20002406:	609a      	str	r2, [r3, #8]
20002408:	6e3b      	ldr	r3, [r7, #96]	@ 0x60
2000240a:	3304      	adds	r3, #4
2000240c:	6d3a      	ldr	r2, [r7, #80]	@ 0x50
2000240e:	0011      	movs	r1, r2
20002410:	0018      	movs	r0, r3
20002412:	f7ff fe87 	bl	20002124 <make_branch>
20002416:	0003      	movs	r3, r0
20002418:	001a      	movs	r2, r3
2000241a:	6e3b      	ldr	r3, [r7, #96]	@ 0x60
2000241c:	809a      	strh	r2, [r3, #4]
2000241e:	6e3b      	ldr	r3, [r7, #96]	@ 0x60
20002420:	224f      	movs	r2, #79	@ 0x4f
20002422:	18ba      	adds	r2, r7, r2
20002424:	7812      	ldrb	r2, [r2, #0]
20002426:	719a      	strb	r2, [r3, #6]
20002428:	6d3b      	ldr	r3, [r7, #80]	@ 0x50
2000242a:	193a      	adds	r2, r7, r4
2000242c:	ca13      	ldmia	r2!, {r0, r1, r4}
2000242e:	c313      	stmia	r3!, {r0, r1, r4}
20002430:	e039      	b.n	200024a6 <irq_add_shared_handler+0x266>
20002432:	2410      	movs	r4, #16
20002434:	193b      	adds	r3, r7, r4
20002436:	4a25      	ldr	r2, [pc, #148]	@ (200024cc <irq_add_shared_handler+0x28c>)
20002438:	801a      	strh	r2, [r3, #0]
2000243a:	6d3b      	ldr	r3, [r7, #80]	@ 0x50
2000243c:	3302      	adds	r3, #2
2000243e:	4a24      	ldr	r2, [pc, #144]	@ (200024d0 <irq_add_shared_handler+0x290>)
20002440:	0011      	movs	r1, r2
20002442:	0018      	movs	r0, r3
20002444:	f7ff fe6e 	bl	20002124 <make_branch>
20002448:	0003      	movs	r3, r0
2000244a:	001a      	movs	r2, r3
2000244c:	193b      	adds	r3, r7, r4
2000244e:	805a      	strh	r2, [r3, #2]
20002450:	6d3b      	ldr	r3, [r7, #80]	@ 0x50
20002452:	3304      	adds	r3, #4
20002454:	6cba      	ldr	r2, [r7, #72]	@ 0x48
20002456:	0011      	movs	r1, r2
20002458:	0018      	movs	r0, r3
2000245a:	f7ff fe63 	bl	20002124 <make_branch>
2000245e:	0003      	movs	r3, r0
20002460:	001a      	movs	r2, r3
20002462:	193b      	adds	r3, r7, r4
20002464:	809a      	strh	r2, [r3, #4]
20002466:	6cbb      	ldr	r3, [r7, #72]	@ 0x48
20002468:	0018      	movs	r0, r3
2000246a:	f7ff fed7 	bl	2000221c <get_slot_index>
2000246e:	0003      	movs	r3, r0
20002470:	001a      	movs	r2, r3
20002472:	193b      	adds	r3, r7, r4
20002474:	719a      	strb	r2, [r3, #6]
20002476:	193b      	adds	r3, r7, r4
20002478:	1dfa      	adds	r2, r7, #7
2000247a:	7812      	ldrb	r2, [r2, #0]
2000247c:	71da      	strb	r2, [r3, #7]
2000247e:	193b      	adds	r3, r7, r4
20002480:	68ba      	ldr	r2, [r7, #8]
20002482:	609a      	str	r2, [r3, #8]
20002484:	6d3b      	ldr	r3, [r7, #80]	@ 0x50
20002486:	193a      	adds	r2, r7, r4
20002488:	ca13      	ldmia	r2!, {r0, r1, r4}
2000248a:	c313      	stmia	r3!, {r0, r1, r4}
2000248c:	6cbb      	ldr	r3, [r7, #72]	@ 0x48
2000248e:	4a12      	ldr	r2, [pc, #72]	@ (200024d8 <irq_add_shared_handler+0x298>)
20002490:	801a      	strh	r2, [r3, #0]
20002492:	6cbb      	ldr	r3, [r7, #72]	@ 0x48
20002494:	228f      	movs	r2, #143	@ 0x8f
20002496:	01d2      	lsls	r2, r2, #7
20002498:	805a      	strh	r2, [r3, #2]
2000249a:	6d3b      	ldr	r3, [r7, #80]	@ 0x50
2000249c:	0018      	movs	r0, r3
2000249e:	f7ff fcfb 	bl	20001e98 <add_thumb_bit>
200024a2:	0003      	movs	r3, r0
200024a4:	667b      	str	r3, [r7, #100]	@ 0x64
200024a6:	6d7a      	ldr	r2, [r7, #84]	@ 0x54
200024a8:	6e79      	ldr	r1, [r7, #100]	@ 0x64
200024aa:	68fb      	ldr	r3, [r7, #12]
200024ac:	0018      	movs	r0, r3
200024ae:	f7ff fd09 	bl	20001ec4 <set_raw_irq_handler_and_unlock>
200024b2:	46c0      	nop			@ (mov r8, r8)
200024b4:	46bd      	mov	sp, r7
200024b6:	b01b      	add	sp, #108	@ 0x6c
200024b8:	bd90      	pop	{r4, r7, pc}
200024ba:	46c0      	nop			@ (mov r8, r8)
200024bc:	34000040 	.word	0x34000040
200024c0:	2000bf4d 	.word	0x2000bf4d
200024c4:	2000b0f0 	.word	0x2000b0f0
200024c8:	100001cd 	.word	0x100001cd
200024cc:	ffffa100 	.word	0xffffa100
200024d0:	2000b120 	.word	0x2000b120
200024d4:	ffffbd01 	.word	0xffffbd01
200024d8:	00004801 	.word	0x00004801
200024dc:	0000bd01 	.word	0x0000bd01

200024e0 <irq_remove_handler>:
200024e0:	b590      	push	{r4, r7, lr}
200024e2:	b093      	sub	sp, #76	@ 0x4c
200024e4:	af00      	add	r7, sp, #0
200024e6:	6078      	str	r0, [r7, #4]
200024e8:	6039      	str	r1, [r7, #0]
200024ea:	2309      	movs	r3, #9
200024ec:	60fb      	str	r3, [r7, #12]
200024ee:	68fb      	ldr	r3, [r7, #12]
200024f0:	4a81      	ldr	r2, [pc, #516]	@ (200026f8 <irq_remove_handler+0x218>)
200024f2:	4694      	mov	ip, r2
200024f4:	4463      	add	r3, ip
200024f6:	009b      	lsls	r3, r3, #2
200024f8:	63bb      	str	r3, [r7, #56]	@ 0x38
200024fa:	6bbb      	ldr	r3, [r7, #56]	@ 0x38
200024fc:	61fb      	str	r3, [r7, #28]
200024fe:	f3ef 8310 	mrs	r3, PRIMASK
20002502:	b672      	cpsid	i
20002504:	61bb      	str	r3, [r7, #24]
20002506:	69bb      	ldr	r3, [r7, #24]
20002508:	617b      	str	r3, [r7, #20]
2000250a:	69fb      	ldr	r3, [r7, #28]
2000250c:	613b      	str	r3, [r7, #16]
2000250e:	46c0      	nop			@ (mov r8, r8)
20002510:	693b      	ldr	r3, [r7, #16]
20002512:	681b      	ldr	r3, [r3, #0]
20002514:	425a      	negs	r2, r3
20002516:	4153      	adcs	r3, r2
20002518:	b2db      	uxtb	r3, r3
2000251a:	2b00      	cmp	r3, #0
2000251c:	d1f8      	bne.n	20002510 <irq_remove_handler+0x30>
2000251e:	f3bf 8f5f 	dmb	sy
20002522:	46c0      	nop			@ (mov r8, r8)
20002524:	46c0      	nop			@ (mov r8, r8)
20002526:	46c0      	nop			@ (mov r8, r8)
20002528:	697b      	ldr	r3, [r7, #20]
2000252a:	637b      	str	r3, [r7, #52]	@ 0x34
2000252c:	f7ff fcaa 	bl	20001e84 <get_vtable>
20002530:	0002      	movs	r2, r0
20002532:	687b      	ldr	r3, [r7, #4]
20002534:	3310      	adds	r3, #16
20002536:	009b      	lsls	r3, r3, #2
20002538:	18d3      	adds	r3, r2, r3
2000253a:	681b      	ldr	r3, [r3, #0]
2000253c:	647b      	str	r3, [r7, #68]	@ 0x44
2000253e:	6c7a      	ldr	r2, [r7, #68]	@ 0x44
20002540:	4b6e      	ldr	r3, [pc, #440]	@ (200026fc <irq_remove_handler+0x21c>)
20002542:	429a      	cmp	r2, r3
20002544:	d100      	bne.n	20002548 <irq_remove_handler+0x68>
20002546:	e0cb      	b.n	200026e0 <irq_remove_handler+0x200>
20002548:	6c7a      	ldr	r2, [r7, #68]	@ 0x44
2000254a:	683b      	ldr	r3, [r7, #0]
2000254c:	429a      	cmp	r2, r3
2000254e:	d100      	bne.n	20002552 <irq_remove_handler+0x72>
20002550:	e0c6      	b.n	200026e0 <irq_remove_handler+0x200>
20002552:	6c7b      	ldr	r3, [r7, #68]	@ 0x44
20002554:	0018      	movs	r0, r3
20002556:	f7ff fd4d 	bl	20001ff4 <is_shared_irq_raw_handler>
2000255a:	1e03      	subs	r3, r0, #0
2000255c:	d100      	bne.n	20002560 <irq_remove_handler+0x80>
2000255e:	e0c1      	b.n	200026e4 <irq_remove_handler+0x204>
20002560:	2333      	movs	r3, #51	@ 0x33
20002562:	18fc      	adds	r4, r7, r3
20002564:	687b      	ldr	r3, [r7, #4]
20002566:	0018      	movs	r0, r3
20002568:	f7ff fcf8 	bl	20001f5c <irq_is_enabled>
2000256c:	0003      	movs	r3, r0
2000256e:	7023      	strb	r3, [r4, #0]
20002570:	687b      	ldr	r3, [r7, #4]
20002572:	2100      	movs	r1, #0
20002574:	0018      	movs	r0, r3
20002576:	f7ff fcd9 	bl	20001f2c <irq_set_enabled>
2000257a:	f3bf 8f5f 	dmb	sy
2000257e:	46c0      	nop			@ (mov r8, r8)
20002580:	f3ef 8305 	mrs	r3, IPSR
20002584:	60bb      	str	r3, [r7, #8]
20002586:	68bb      	ldr	r3, [r7, #8]
20002588:	62fb      	str	r3, [r7, #44]	@ 0x2c
2000258a:	6afb      	ldr	r3, [r7, #44]	@ 0x2c
2000258c:	2b00      	cmp	r3, #0
2000258e:	d004      	beq.n	2000259a <irq_remove_handler+0xba>
20002590:	687b      	ldr	r3, [r7, #4]
20002592:	3310      	adds	r3, #16
20002594:	6afa      	ldr	r2, [r7, #44]	@ 0x2c
20002596:	429a      	cmp	r2, r3
20002598:	d101      	bne.n	2000259e <irq_remove_handler+0xbe>
2000259a:	2301      	movs	r3, #1
2000259c:	e000      	b.n	200025a0 <irq_remove_handler+0xc0>
2000259e:	2300      	movs	r3, #0
200025a0:	1c1a      	adds	r2, r3, #0
200025a2:	2301      	movs	r3, #1
200025a4:	4013      	ands	r3, r2
200025a6:	b2db      	uxtb	r3, r3
200025a8:	0018      	movs	r0, r3
200025aa:	f7ff fc47 	bl	20001e3c <hard_assert>
200025ae:	2300      	movs	r3, #0
200025b0:	643b      	str	r3, [r7, #64]	@ 0x40
200025b2:	6c7b      	ldr	r3, [r7, #68]	@ 0x44
200025b4:	0018      	movs	r0, r3
200025b6:	f7ff fc7a 	bl	20001eae <remove_thumb_bit>
200025ba:	0003      	movs	r3, r0
200025bc:	62bb      	str	r3, [r7, #40]	@ 0x28
200025be:	6abb      	ldr	r3, [r7, #40]	@ 0x28
200025c0:	63fb      	str	r3, [r7, #60]	@ 0x3c
200025c2:	e011      	b.n	200025e8 <irq_remove_handler+0x108>
200025c4:	6bfb      	ldr	r3, [r7, #60]	@ 0x3c
200025c6:	643b      	str	r3, [r7, #64]	@ 0x40
200025c8:	6bfb      	ldr	r3, [r7, #60]	@ 0x3c
200025ca:	799b      	ldrb	r3, [r3, #6]
200025cc:	b25b      	sxtb	r3, r3
200025ce:	2b00      	cmp	r3, #0
200025d0:	db10      	blt.n	200025f4 <irq_remove_handler+0x114>
200025d2:	6bfb      	ldr	r3, [r7, #60]	@ 0x3c
200025d4:	799b      	ldrb	r3, [r3, #6]
200025d6:	b25b      	sxtb	r3, r3
200025d8:	001a      	movs	r2, r3
200025da:	0013      	movs	r3, r2
200025dc:	005b      	lsls	r3, r3, #1
200025de:	189b      	adds	r3, r3, r2
200025e0:	009b      	lsls	r3, r3, #2
200025e2:	4a47      	ldr	r2, [pc, #284]	@ (20002700 <irq_remove_handler+0x220>)
200025e4:	189b      	adds	r3, r3, r2
200025e6:	63fb      	str	r3, [r7, #60]	@ 0x3c
200025e8:	6bfb      	ldr	r3, [r7, #60]	@ 0x3c
200025ea:	689b      	ldr	r3, [r3, #8]
200025ec:	683a      	ldr	r2, [r7, #0]
200025ee:	429a      	cmp	r2, r3
200025f0:	d1e8      	bne.n	200025c4 <irq_remove_handler+0xe4>
200025f2:	e000      	b.n	200025f6 <irq_remove_handler+0x116>
200025f4:	46c0      	nop			@ (mov r8, r8)
200025f6:	6bfb      	ldr	r3, [r7, #60]	@ 0x3c
200025f8:	689b      	ldr	r3, [r3, #8]
200025fa:	683a      	ldr	r2, [r7, #0]
200025fc:	429a      	cmp	r2, r3
200025fe:	d166      	bne.n	200026ce <irq_remove_handler+0x1ee>
20002600:	2127      	movs	r1, #39	@ 0x27
20002602:	187b      	adds	r3, r7, r1
20002604:	6bfa      	ldr	r2, [r7, #60]	@ 0x3c
20002606:	7992      	ldrb	r2, [r2, #6]
20002608:	701a      	strb	r2, [r3, #0]
2000260a:	000a      	movs	r2, r1
2000260c:	18bb      	adds	r3, r7, r2
2000260e:	781b      	ldrb	r3, [r3, #0]
20002610:	2b7f      	cmp	r3, #127	@ 0x7f
20002612:	d838      	bhi.n	20002686 <irq_remove_handler+0x1a6>
20002614:	18bb      	adds	r3, r7, r2
20002616:	2200      	movs	r2, #0
20002618:	569a      	ldrsb	r2, [r3, r2]
2000261a:	0013      	movs	r3, r2
2000261c:	005b      	lsls	r3, r3, #1
2000261e:	189b      	adds	r3, r3, r2
20002620:	009b      	lsls	r3, r3, #2
20002622:	4a37      	ldr	r2, [pc, #220]	@ (20002700 <irq_remove_handler+0x220>)
20002624:	189b      	adds	r3, r3, r2
20002626:	623b      	str	r3, [r7, #32]
20002628:	6a3b      	ldr	r3, [r7, #32]
2000262a:	689a      	ldr	r2, [r3, #8]
2000262c:	6bfb      	ldr	r3, [r7, #60]	@ 0x3c
2000262e:	609a      	str	r2, [r3, #8]
20002630:	6a3b      	ldr	r3, [r7, #32]
20002632:	79da      	ldrb	r2, [r3, #7]
20002634:	6bfb      	ldr	r3, [r7, #60]	@ 0x3c
20002636:	71da      	strb	r2, [r3, #7]
20002638:	6a3b      	ldr	r3, [r7, #32]
2000263a:	2206      	movs	r2, #6
2000263c:	569a      	ldrsb	r2, [r3, r2]
2000263e:	6bfb      	ldr	r3, [r7, #60]	@ 0x3c
20002640:	719a      	strb	r2, [r3, #6]
20002642:	6a3b      	ldr	r3, [r7, #32]
20002644:	799b      	ldrb	r3, [r3, #6]
20002646:	b25b      	sxtb	r3, r3
20002648:	2b00      	cmp	r3, #0
2000264a:	db0e      	blt.n	2000266a <irq_remove_handler+0x18a>
2000264c:	6bfb      	ldr	r3, [r7, #60]	@ 0x3c
2000264e:	1d1c      	adds	r4, r3, #4
20002650:	6a3b      	ldr	r3, [r7, #32]
20002652:	3304      	adds	r3, #4
20002654:	0018      	movs	r0, r3
20002656:	f7ff fdad 	bl	200021b4 <resolve_branch>
2000265a:	0003      	movs	r3, r0
2000265c:	0019      	movs	r1, r3
2000265e:	0020      	movs	r0, r4
20002660:	f7ff fd60 	bl	20002124 <make_branch>
20002664:	0003      	movs	r3, r0
20002666:	001a      	movs	r2, r3
20002668:	e000      	b.n	2000266c <irq_remove_handler+0x18c>
2000266a:	4a26      	ldr	r2, [pc, #152]	@ (20002704 <irq_remove_handler+0x224>)
2000266c:	6bfb      	ldr	r3, [r7, #60]	@ 0x3c
2000266e:	809a      	strh	r2, [r3, #4]
20002670:	4b25      	ldr	r3, [pc, #148]	@ (20002708 <irq_remove_handler+0x228>)
20002672:	2200      	movs	r2, #0
20002674:	569a      	ldrsb	r2, [r3, r2]
20002676:	6a3b      	ldr	r3, [r7, #32]
20002678:	719a      	strb	r2, [r3, #6]
2000267a:	4b23      	ldr	r3, [pc, #140]	@ (20002708 <irq_remove_handler+0x228>)
2000267c:	2227      	movs	r2, #39	@ 0x27
2000267e:	18ba      	adds	r2, r7, r2
20002680:	7812      	ldrb	r2, [r2, #0]
20002682:	701a      	strb	r2, [r3, #0]
20002684:	e023      	b.n	200026ce <irq_remove_handler+0x1ee>
20002686:	6afb      	ldr	r3, [r7, #44]	@ 0x2c
20002688:	2b00      	cmp	r3, #0
2000268a:	d119      	bne.n	200026c0 <irq_remove_handler+0x1e0>
2000268c:	6c3b      	ldr	r3, [r7, #64]	@ 0x40
2000268e:	2b00      	cmp	r3, #0
20002690:	d006      	beq.n	200026a0 <irq_remove_handler+0x1c0>
20002692:	6c3b      	ldr	r3, [r7, #64]	@ 0x40
20002694:	22ff      	movs	r2, #255	@ 0xff
20002696:	719a      	strb	r2, [r3, #6]
20002698:	6c3b      	ldr	r3, [r7, #64]	@ 0x40
2000269a:	4a1c      	ldr	r2, [pc, #112]	@ (2000270c <irq_remove_handler+0x22c>)
2000269c:	809a      	strh	r2, [r3, #4]
2000269e:	e001      	b.n	200026a4 <irq_remove_handler+0x1c4>
200026a0:	4b16      	ldr	r3, [pc, #88]	@ (200026fc <irq_remove_handler+0x21c>)
200026a2:	647b      	str	r3, [r7, #68]	@ 0x44
200026a4:	4b18      	ldr	r3, [pc, #96]	@ (20002708 <irq_remove_handler+0x228>)
200026a6:	2200      	movs	r2, #0
200026a8:	569a      	ldrsb	r2, [r3, r2]
200026aa:	6bfb      	ldr	r3, [r7, #60]	@ 0x3c
200026ac:	719a      	strb	r2, [r3, #6]
200026ae:	6bfb      	ldr	r3, [r7, #60]	@ 0x3c
200026b0:	0018      	movs	r0, r3
200026b2:	f7ff fdb3 	bl	2000221c <get_slot_index>
200026b6:	0003      	movs	r3, r0
200026b8:	001a      	movs	r2, r3
200026ba:	4b13      	ldr	r3, [pc, #76]	@ (20002708 <irq_remove_handler+0x228>)
200026bc:	701a      	strb	r2, [r3, #0]
200026be:	e006      	b.n	200026ce <irq_remove_handler+0x1ee>
200026c0:	6bfb      	ldr	r3, [r7, #60]	@ 0x3c
200026c2:	3304      	adds	r3, #4
200026c4:	4a12      	ldr	r2, [pc, #72]	@ (20002710 <irq_remove_handler+0x230>)
200026c6:	0011      	movs	r1, r2
200026c8:	0018      	movs	r0, r3
200026ca:	f7ff fd49 	bl	20002160 <insert_branch_and_link>
200026ce:	2333      	movs	r3, #51	@ 0x33
200026d0:	18fb      	adds	r3, r7, r3
200026d2:	781a      	ldrb	r2, [r3, #0]
200026d4:	687b      	ldr	r3, [r7, #4]
200026d6:	0011      	movs	r1, r2
200026d8:	0018      	movs	r0, r3
200026da:	f7ff fc27 	bl	20001f2c <irq_set_enabled>
200026de:	e001      	b.n	200026e4 <irq_remove_handler+0x204>
200026e0:	4b06      	ldr	r3, [pc, #24]	@ (200026fc <irq_remove_handler+0x21c>)
200026e2:	647b      	str	r3, [r7, #68]	@ 0x44
200026e4:	6b7a      	ldr	r2, [r7, #52]	@ 0x34
200026e6:	6c79      	ldr	r1, [r7, #68]	@ 0x44
200026e8:	687b      	ldr	r3, [r7, #4]
200026ea:	0018      	movs	r0, r3
200026ec:	f7ff fbea 	bl	20001ec4 <set_raw_irq_handler_and_unlock>
200026f0:	46c0      	nop			@ (mov r8, r8)
200026f2:	46bd      	mov	sp, r7
200026f4:	b013      	add	sp, #76	@ 0x4c
200026f6:	bd90      	pop	{r4, r7, pc}
200026f8:	34000040 	.word	0x34000040
200026fc:	100001cd 	.word	0x100001cd
20002700:	2000b0f0 	.word	0x2000b0f0
20002704:	0000bd01 	.word	0x0000bd01
20002708:	2000bf4d 	.word	0x2000bf4d
2000270c:	ffffbd01 	.word	0xffffbd01
20002710:	2000b12a 	.word	0x2000b12a

20002714 <irq_add_tail_to_free_list>:
20002714:	b590      	push	{r4, r7, lr}
20002716:	b093      	sub	sp, #76	@ 0x4c
20002718:	af00      	add	r7, sp, #0
2000271a:	6078      	str	r0, [r7, #4]
2000271c:	687b      	ldr	r3, [r7, #4]
2000271e:	0018      	movs	r0, r3
20002720:	f7ff fbba 	bl	20001e98 <add_thumb_bit>
20002724:	0003      	movs	r3, r0
20002726:	643b      	str	r3, [r7, #64]	@ 0x40
20002728:	f3ef 8305 	mrs	r3, IPSR
2000272c:	61bb      	str	r3, [r7, #24]
2000272e:	69bb      	ldr	r3, [r7, #24]
20002730:	63fb      	str	r3, [r7, #60]	@ 0x3c
20002732:	2309      	movs	r3, #9
20002734:	61fb      	str	r3, [r7, #28]
20002736:	69fb      	ldr	r3, [r7, #28]
20002738:	4a48      	ldr	r2, [pc, #288]	@ (2000285c <irq_add_tail_to_free_list+0x148>)
2000273a:	4694      	mov	ip, r2
2000273c:	4463      	add	r3, ip
2000273e:	009b      	lsls	r3, r3, #2
20002740:	63bb      	str	r3, [r7, #56]	@ 0x38
20002742:	6bbb      	ldr	r3, [r7, #56]	@ 0x38
20002744:	62fb      	str	r3, [r7, #44]	@ 0x2c
20002746:	f3ef 8310 	mrs	r3, PRIMASK
2000274a:	b672      	cpsid	i
2000274c:	62bb      	str	r3, [r7, #40]	@ 0x28
2000274e:	6abb      	ldr	r3, [r7, #40]	@ 0x28
20002750:	627b      	str	r3, [r7, #36]	@ 0x24
20002752:	6afb      	ldr	r3, [r7, #44]	@ 0x2c
20002754:	623b      	str	r3, [r7, #32]
20002756:	46c0      	nop			@ (mov r8, r8)
20002758:	6a3b      	ldr	r3, [r7, #32]
2000275a:	681b      	ldr	r3, [r3, #0]
2000275c:	425a      	negs	r2, r3
2000275e:	4153      	adcs	r3, r2
20002760:	b2db      	uxtb	r3, r3
20002762:	2b00      	cmp	r3, #0
20002764:	d1f8      	bne.n	20002758 <irq_add_tail_to_free_list+0x44>
20002766:	f3bf 8f5f 	dmb	sy
2000276a:	46c0      	nop			@ (mov r8, r8)
2000276c:	46c0      	nop			@ (mov r8, r8)
2000276e:	46c0      	nop			@ (mov r8, r8)
20002770:	6a7b      	ldr	r3, [r7, #36]	@ 0x24
20002772:	637b      	str	r3, [r7, #52]	@ 0x34
20002774:	2333      	movs	r3, #51	@ 0x33
20002776:	18fc      	adds	r4, r7, r3
20002778:	687b      	ldr	r3, [r7, #4]
2000277a:	0018      	movs	r0, r3
2000277c:	f7ff fd4e 	bl	2000221c <get_slot_index>
20002780:	0003      	movs	r3, r0
20002782:	7023      	strb	r3, [r4, #0]
20002784:	f7ff fb7e 	bl	20001e84 <get_vtable>
20002788:	0002      	movs	r2, r0
2000278a:	6bfb      	ldr	r3, [r7, #60]	@ 0x3c
2000278c:	009b      	lsls	r3, r3, #2
2000278e:	18d3      	adds	r3, r2, r3
20002790:	681b      	ldr	r3, [r3, #0]
20002792:	6c3a      	ldr	r2, [r7, #64]	@ 0x40
20002794:	429a      	cmp	r2, r3
20002796:	d108      	bne.n	200027aa <irq_add_tail_to_free_list+0x96>
20002798:	f7ff fb74 	bl	20001e84 <get_vtable>
2000279c:	0002      	movs	r2, r0
2000279e:	6bfb      	ldr	r3, [r7, #60]	@ 0x3c
200027a0:	009b      	lsls	r3, r3, #2
200027a2:	18d3      	adds	r3, r2, r3
200027a4:	4a2e      	ldr	r2, [pc, #184]	@ (20002860 <irq_add_tail_to_free_list+0x14c>)
200027a6:	601a      	str	r2, [r3, #0]
200027a8:	e035      	b.n	20002816 <irq_add_tail_to_free_list+0x102>
200027aa:	2332      	movs	r3, #50	@ 0x32
200027ac:	18fb      	adds	r3, r7, r3
200027ae:	2200      	movs	r2, #0
200027b0:	701a      	strb	r2, [r3, #0]
200027b2:	2300      	movs	r3, #0
200027b4:	647b      	str	r3, [r7, #68]	@ 0x44
200027b6:	e02b      	b.n	20002810 <irq_add_tail_to_free_list+0xfc>
200027b8:	492a      	ldr	r1, [pc, #168]	@ (20002864 <irq_add_tail_to_free_list+0x150>)
200027ba:	6c7a      	ldr	r2, [r7, #68]	@ 0x44
200027bc:	0013      	movs	r3, r2
200027be:	005b      	lsls	r3, r3, #1
200027c0:	189b      	adds	r3, r3, r2
200027c2:	009b      	lsls	r3, r3, #2
200027c4:	18cb      	adds	r3, r1, r3
200027c6:	3306      	adds	r3, #6
200027c8:	781b      	ldrb	r3, [r3, #0]
200027ca:	b25b      	sxtb	r3, r3
200027cc:	2233      	movs	r2, #51	@ 0x33
200027ce:	18ba      	adds	r2, r7, r2
200027d0:	7812      	ldrb	r2, [r2, #0]
200027d2:	b252      	sxtb	r2, r2
200027d4:	429a      	cmp	r2, r3
200027d6:	d118      	bne.n	2000280a <irq_add_tail_to_free_list+0xf6>
200027d8:	4922      	ldr	r1, [pc, #136]	@ (20002864 <irq_add_tail_to_free_list+0x150>)
200027da:	6c7a      	ldr	r2, [r7, #68]	@ 0x44
200027dc:	0013      	movs	r3, r2
200027de:	005b      	lsls	r3, r3, #1
200027e0:	189b      	adds	r3, r3, r2
200027e2:	009b      	lsls	r3, r3, #2
200027e4:	18cb      	adds	r3, r1, r3
200027e6:	3306      	adds	r3, #6
200027e8:	22ff      	movs	r2, #255	@ 0xff
200027ea:	701a      	strb	r2, [r3, #0]
200027ec:	491d      	ldr	r1, [pc, #116]	@ (20002864 <irq_add_tail_to_free_list+0x150>)
200027ee:	6c7a      	ldr	r2, [r7, #68]	@ 0x44
200027f0:	0013      	movs	r3, r2
200027f2:	005b      	lsls	r3, r3, #1
200027f4:	189b      	adds	r3, r3, r2
200027f6:	009b      	lsls	r3, r3, #2
200027f8:	18cb      	adds	r3, r1, r3
200027fa:	3304      	adds	r3, #4
200027fc:	4a1a      	ldr	r2, [pc, #104]	@ (20002868 <irq_add_tail_to_free_list+0x154>)
200027fe:	801a      	strh	r2, [r3, #0]
20002800:	2332      	movs	r3, #50	@ 0x32
20002802:	18fb      	adds	r3, r7, r3
20002804:	2201      	movs	r2, #1
20002806:	701a      	strb	r2, [r3, #0]
20002808:	e005      	b.n	20002816 <irq_add_tail_to_free_list+0x102>
2000280a:	6c7b      	ldr	r3, [r7, #68]	@ 0x44
2000280c:	3301      	adds	r3, #1
2000280e:	647b      	str	r3, [r7, #68]	@ 0x44
20002810:	6c7b      	ldr	r3, [r7, #68]	@ 0x44
20002812:	2b03      	cmp	r3, #3
20002814:	d9d0      	bls.n	200027b8 <irq_add_tail_to_free_list+0xa4>
20002816:	4b15      	ldr	r3, [pc, #84]	@ (2000286c <irq_add_tail_to_free_list+0x158>)
20002818:	2200      	movs	r2, #0
2000281a:	569a      	ldrsb	r2, [r3, r2]
2000281c:	687b      	ldr	r3, [r7, #4]
2000281e:	719a      	strb	r2, [r3, #6]
20002820:	4b12      	ldr	r3, [pc, #72]	@ (2000286c <irq_add_tail_to_free_list+0x158>)
20002822:	2233      	movs	r2, #51	@ 0x33
20002824:	18ba      	adds	r2, r7, r2
20002826:	7812      	ldrb	r2, [r2, #0]
20002828:	701a      	strb	r2, [r3, #0]
2000282a:	6bbb      	ldr	r3, [r7, #56]	@ 0x38
2000282c:	617b      	str	r3, [r7, #20]
2000282e:	6b7b      	ldr	r3, [r7, #52]	@ 0x34
20002830:	613b      	str	r3, [r7, #16]
20002832:	697b      	ldr	r3, [r7, #20]
20002834:	60fb      	str	r3, [r7, #12]
20002836:	f3bf 8f5f 	dmb	sy
2000283a:	46c0      	nop			@ (mov r8, r8)
2000283c:	46c0      	nop			@ (mov r8, r8)
2000283e:	68fb      	ldr	r3, [r7, #12]
20002840:	2200      	movs	r2, #0
20002842:	601a      	str	r2, [r3, #0]
20002844:	46c0      	nop			@ (mov r8, r8)
20002846:	693b      	ldr	r3, [r7, #16]
20002848:	60bb      	str	r3, [r7, #8]
2000284a:	68bb      	ldr	r3, [r7, #8]
2000284c:	f383 8810 	msr	PRIMASK, r3
20002850:	46c0      	nop			@ (mov r8, r8)
20002852:	46c0      	nop			@ (mov r8, r8)
20002854:	46c0      	nop			@ (mov r8, r8)
20002856:	46bd      	mov	sp, r7
20002858:	b013      	add	sp, #76	@ 0x4c
2000285a:	bd90      	pop	{r4, r7, pc}
2000285c:	34000040 	.word	0x34000040
20002860:	100001cd 	.word	0x100001cd
20002864:	2000b0f0 	.word	0x2000b0f0
20002868:	ffffbd01 	.word	0xffffbd01
2000286c:	2000bf4d 	.word	0x2000bf4d

20002870 <irq_init_priorities>:
20002870:	b580      	push	{r7, lr}
20002872:	b084      	sub	sp, #16
20002874:	af00      	add	r7, sp, #0
20002876:	4b0b      	ldr	r3, [pc, #44]	@ (200028a4 <irq_init_priorities+0x34>)
20002878:	607b      	str	r3, [r7, #4]
2000287a:	4b0b      	ldr	r3, [pc, #44]	@ (200028a8 <irq_init_priorities+0x38>)
2000287c:	60fb      	str	r3, [r7, #12]
2000287e:	2300      	movs	r3, #0
20002880:	60bb      	str	r3, [r7, #8]
20002882:	e007      	b.n	20002894 <irq_init_priorities+0x24>
20002884:	68fb      	ldr	r3, [r7, #12]
20002886:	1d1a      	adds	r2, r3, #4
20002888:	60fa      	str	r2, [r7, #12]
2000288a:	687a      	ldr	r2, [r7, #4]
2000288c:	601a      	str	r2, [r3, #0]
2000288e:	68bb      	ldr	r3, [r7, #8]
20002890:	3301      	adds	r3, #1
20002892:	60bb      	str	r3, [r7, #8]
20002894:	68bb      	ldr	r3, [r7, #8]
20002896:	2b07      	cmp	r3, #7
20002898:	d9f4      	bls.n	20002884 <irq_init_priorities+0x14>
2000289a:	46c0      	nop			@ (mov r8, r8)
2000289c:	46c0      	nop			@ (mov r8, r8)
2000289e:	46bd      	mov	sp, r7
200028a0:	b004      	add	sp, #16
200028a2:	bd80      	pop	{r7, pc}
200028a4:	80808080 	.word	0x80808080
200028a8:	e000e400 	.word	0xe000e400

200028ac <user_irq_claim_unused>:
200028ac:	b580      	push	{r7, lr}
200028ae:	b086      	sub	sp, #24
200028b0:	af02      	add	r7, sp, #8
200028b2:	0002      	movs	r2, r0
200028b4:	1dfb      	adds	r3, r7, #7
200028b6:	701a      	strb	r2, [r3, #0]
200028b8:	f7ff fadc 	bl	20001e74 <user_irq_claimed_ptr>
200028bc:	1dfb      	adds	r3, r7, #7
200028be:	7819      	ldrb	r1, [r3, #0]
200028c0:	4b09      	ldr	r3, [pc, #36]	@ (200028e8 <user_irq_claim_unused+0x3c>)
200028c2:	9300      	str	r3, [sp, #0]
200028c4:	2305      	movs	r3, #5
200028c6:	2200      	movs	r2, #0
200028c8:	f7ff fa10 	bl	20001cec <hw_claim_unused_from_range>
200028cc:	0003      	movs	r3, r0
200028ce:	60fb      	str	r3, [r7, #12]
200028d0:	68fb      	ldr	r3, [r7, #12]
200028d2:	2b00      	cmp	r3, #0
200028d4:	db03      	blt.n	200028de <user_irq_claim_unused+0x32>
200028d6:	68fb      	ldr	r3, [r7, #12]
200028d8:	221f      	movs	r2, #31
200028da:	1ad3      	subs	r3, r2, r3
200028dc:	60fb      	str	r3, [r7, #12]
200028de:	68fb      	ldr	r3, [r7, #12]
200028e0:	0018      	movs	r0, r3
200028e2:	46bd      	mov	sp, r7
200028e4:	b004      	add	sp, #16
200028e6:	bd80      	pop	{r7, pc}
200028e8:	2000ad54 	.word	0x2000ad54

200028ec <ph_get_node>:
200028ec:	b580      	push	{r7, lr}
200028ee:	b082      	sub	sp, #8
200028f0:	af00      	add	r7, sp, #0
200028f2:	6078      	str	r0, [r7, #4]
200028f4:	000a      	movs	r2, r1
200028f6:	1cfb      	adds	r3, r7, #3
200028f8:	701a      	strb	r2, [r3, #0]
200028fa:	687b      	ldr	r3, [r7, #4]
200028fc:	6819      	ldr	r1, [r3, #0]
200028fe:	1cfb      	adds	r3, r7, #3
20002900:	781a      	ldrb	r2, [r3, #0]
20002902:	0013      	movs	r3, r2
20002904:	005b      	lsls	r3, r3, #1
20002906:	189b      	adds	r3, r3, r2
20002908:	3b03      	subs	r3, #3
2000290a:	18cb      	adds	r3, r1, r3
2000290c:	0018      	movs	r0, r3
2000290e:	46bd      	mov	sp, r7
20002910:	b002      	add	sp, #8
20002912:	bd80      	pop	{r7, pc}

20002914 <ph_add_child_node>:
20002914:	b580      	push	{r7, lr}
20002916:	b084      	sub	sp, #16
20002918:	af00      	add	r7, sp, #0
2000291a:	6078      	str	r0, [r7, #4]
2000291c:	0008      	movs	r0, r1
2000291e:	0011      	movs	r1, r2
20002920:	1cfb      	adds	r3, r7, #3
20002922:	1c02      	adds	r2, r0, #0
20002924:	701a      	strb	r2, [r3, #0]
20002926:	1cbb      	adds	r3, r7, #2
20002928:	1c0a      	adds	r2, r1, #0
2000292a:	701a      	strb	r2, [r3, #0]
2000292c:	1cfb      	adds	r3, r7, #3
2000292e:	781a      	ldrb	r2, [r3, #0]
20002930:	687b      	ldr	r3, [r7, #4]
20002932:	0011      	movs	r1, r2
20002934:	0018      	movs	r0, r3
20002936:	f7ff ffd9 	bl	200028ec <ph_get_node>
2000293a:	0003      	movs	r3, r0
2000293c:	60fb      	str	r3, [r7, #12]
2000293e:	1cbb      	adds	r3, r7, #2
20002940:	781a      	ldrb	r2, [r3, #0]
20002942:	687b      	ldr	r3, [r7, #4]
20002944:	0011      	movs	r1, r2
20002946:	0018      	movs	r0, r3
20002948:	f7ff ffd0 	bl	200028ec <ph_get_node>
2000294c:	0003      	movs	r3, r0
2000294e:	60bb      	str	r3, [r7, #8]
20002950:	68bb      	ldr	r3, [r7, #8]
20002952:	1cfa      	adds	r2, r7, #3
20002954:	7812      	ldrb	r2, [r2, #0]
20002956:	709a      	strb	r2, [r3, #2]
20002958:	68fb      	ldr	r3, [r7, #12]
2000295a:	781b      	ldrb	r3, [r3, #0]
2000295c:	2b00      	cmp	r3, #0
2000295e:	d104      	bne.n	2000296a <ph_add_child_node+0x56>
20002960:	68fb      	ldr	r3, [r7, #12]
20002962:	1cba      	adds	r2, r7, #2
20002964:	7812      	ldrb	r2, [r2, #0]
20002966:	701a      	strb	r2, [r3, #0]
20002968:	e007      	b.n	2000297a <ph_add_child_node+0x66>
2000296a:	68fb      	ldr	r3, [r7, #12]
2000296c:	781a      	ldrb	r2, [r3, #0]
2000296e:	68bb      	ldr	r3, [r7, #8]
20002970:	705a      	strb	r2, [r3, #1]
20002972:	68fb      	ldr	r3, [r7, #12]
20002974:	1cba      	adds	r2, r7, #2
20002976:	7812      	ldrb	r2, [r2, #0]
20002978:	701a      	strb	r2, [r3, #0]
2000297a:	46c0      	nop			@ (mov r8, r8)
2000297c:	46bd      	mov	sp, r7
2000297e:	b004      	add	sp, #16
20002980:	bd80      	pop	{r7, pc}

20002982 <ph_merge_nodes>:
20002982:	b590      	push	{r4, r7, lr}
20002984:	b083      	sub	sp, #12
20002986:	af00      	add	r7, sp, #0
20002988:	6078      	str	r0, [r7, #4]
2000298a:	0008      	movs	r0, r1
2000298c:	0011      	movs	r1, r2
2000298e:	1cfb      	adds	r3, r7, #3
20002990:	1c02      	adds	r2, r0, #0
20002992:	701a      	strb	r2, [r3, #0]
20002994:	1cbb      	adds	r3, r7, #2
20002996:	1c0a      	adds	r2, r1, #0
20002998:	701a      	strb	r2, [r3, #0]
2000299a:	1cfb      	adds	r3, r7, #3
2000299c:	781b      	ldrb	r3, [r3, #0]
2000299e:	2b00      	cmp	r3, #0
200029a0:	d102      	bne.n	200029a8 <ph_merge_nodes+0x26>
200029a2:	1cbb      	adds	r3, r7, #2
200029a4:	781b      	ldrb	r3, [r3, #0]
200029a6:	e027      	b.n	200029f8 <ph_merge_nodes+0x76>
200029a8:	1cbb      	adds	r3, r7, #2
200029aa:	781b      	ldrb	r3, [r3, #0]
200029ac:	2b00      	cmp	r3, #0
200029ae:	d102      	bne.n	200029b6 <ph_merge_nodes+0x34>
200029b0:	1cfb      	adds	r3, r7, #3
200029b2:	781b      	ldrb	r3, [r3, #0]
200029b4:	e020      	b.n	200029f8 <ph_merge_nodes+0x76>
200029b6:	687b      	ldr	r3, [r7, #4]
200029b8:	685c      	ldr	r4, [r3, #4]
200029ba:	687b      	ldr	r3, [r7, #4]
200029bc:	6898      	ldr	r0, [r3, #8]
200029be:	1cbb      	adds	r3, r7, #2
200029c0:	781a      	ldrb	r2, [r3, #0]
200029c2:	1cfb      	adds	r3, r7, #3
200029c4:	781b      	ldrb	r3, [r3, #0]
200029c6:	0019      	movs	r1, r3
200029c8:	47a0      	blx	r4
200029ca:	1e03      	subs	r3, r0, #0
200029cc:	d00a      	beq.n	200029e4 <ph_merge_nodes+0x62>
200029ce:	1cbb      	adds	r3, r7, #2
200029d0:	781a      	ldrb	r2, [r3, #0]
200029d2:	1cfb      	adds	r3, r7, #3
200029d4:	7819      	ldrb	r1, [r3, #0]
200029d6:	687b      	ldr	r3, [r7, #4]
200029d8:	0018      	movs	r0, r3
200029da:	f7ff ff9b 	bl	20002914 <ph_add_child_node>
200029de:	1cfb      	adds	r3, r7, #3
200029e0:	781b      	ldrb	r3, [r3, #0]
200029e2:	e009      	b.n	200029f8 <ph_merge_nodes+0x76>
200029e4:	1cfb      	adds	r3, r7, #3
200029e6:	781a      	ldrb	r2, [r3, #0]
200029e8:	1cbb      	adds	r3, r7, #2
200029ea:	7819      	ldrb	r1, [r3, #0]
200029ec:	687b      	ldr	r3, [r7, #4]
200029ee:	0018      	movs	r0, r3
200029f0:	f7ff ff90 	bl	20002914 <ph_add_child_node>
200029f4:	1cbb      	adds	r3, r7, #2
200029f6:	781b      	ldrb	r3, [r3, #0]
200029f8:	0018      	movs	r0, r3
200029fa:	46bd      	mov	sp, r7
200029fc:	b003      	add	sp, #12
200029fe:	bd90      	pop	{r4, r7, pc}

20002a00 <ph_peek_head>:
20002a00:	b580      	push	{r7, lr}
20002a02:	b082      	sub	sp, #8
20002a04:	af00      	add	r7, sp, #0
20002a06:	6078      	str	r0, [r7, #4]
20002a08:	687b      	ldr	r3, [r7, #4]
20002a0a:	7b5b      	ldrb	r3, [r3, #13]
20002a0c:	0018      	movs	r0, r3
20002a0e:	46bd      	mov	sp, r7
20002a10:	b002      	add	sp, #8
20002a12:	bd80      	pop	{r7, pc}

20002a14 <ph_remove_and_free_head>:
20002a14:	b580      	push	{r7, lr}
20002a16:	b082      	sub	sp, #8
20002a18:	af00      	add	r7, sp, #0
20002a1a:	6078      	str	r0, [r7, #4]
20002a1c:	687b      	ldr	r3, [r7, #4]
20002a1e:	2101      	movs	r1, #1
20002a20:	0018      	movs	r0, r3
20002a22:	f000 f91f 	bl	20002c64 <ph_remove_head>
20002a26:	0003      	movs	r3, r0
20002a28:	0018      	movs	r0, r3
20002a2a:	46bd      	mov	sp, r7
20002a2c:	b002      	add	sp, #8
20002a2e:	bd80      	pop	{r7, pc}

20002a30 <ph_post_alloc_init>:
20002a30:	b580      	push	{r7, lr}
20002a32:	b084      	sub	sp, #16
20002a34:	af00      	add	r7, sp, #0
20002a36:	60f8      	str	r0, [r7, #12]
20002a38:	60b9      	str	r1, [r7, #8]
20002a3a:	607a      	str	r2, [r7, #4]
20002a3c:	603b      	str	r3, [r7, #0]
20002a3e:	68bb      	ldr	r3, [r7, #8]
20002a40:	b2da      	uxtb	r2, r3
20002a42:	68fb      	ldr	r3, [r7, #12]
20002a44:	731a      	strb	r2, [r3, #12]
20002a46:	68fb      	ldr	r3, [r7, #12]
20002a48:	687a      	ldr	r2, [r7, #4]
20002a4a:	605a      	str	r2, [r3, #4]
20002a4c:	68fb      	ldr	r3, [r7, #12]
20002a4e:	683a      	ldr	r2, [r7, #0]
20002a50:	609a      	str	r2, [r3, #8]
20002a52:	68fb      	ldr	r3, [r7, #12]
20002a54:	0018      	movs	r0, r3
20002a56:	f000 f804 	bl	20002a62 <ph_clear>
20002a5a:	46c0      	nop			@ (mov r8, r8)
20002a5c:	46bd      	mov	sp, r7
20002a5e:	b004      	add	sp, #16
20002a60:	bd80      	pop	{r7, pc}

20002a62 <ph_clear>:
20002a62:	b590      	push	{r4, r7, lr}
20002a64:	b085      	sub	sp, #20
20002a66:	af00      	add	r7, sp, #0
20002a68:	6078      	str	r0, [r7, #4]
20002a6a:	687b      	ldr	r3, [r7, #4]
20002a6c:	2200      	movs	r2, #0
20002a6e:	735a      	strb	r2, [r3, #13]
20002a70:	687b      	ldr	r3, [r7, #4]
20002a72:	2201      	movs	r2, #1
20002a74:	739a      	strb	r2, [r3, #14]
20002a76:	687b      	ldr	r3, [r7, #4]
20002a78:	7b1a      	ldrb	r2, [r3, #12]
20002a7a:	687b      	ldr	r3, [r7, #4]
20002a7c:	73da      	strb	r2, [r3, #15]
20002a7e:	230f      	movs	r3, #15
20002a80:	18fb      	adds	r3, r7, r3
20002a82:	2201      	movs	r2, #1
20002a84:	701a      	strb	r2, [r3, #0]
20002a86:	e013      	b.n	20002ab0 <ph_clear+0x4e>
20002a88:	240f      	movs	r4, #15
20002a8a:	193b      	adds	r3, r7, r4
20002a8c:	781a      	ldrb	r2, [r3, #0]
20002a8e:	687b      	ldr	r3, [r7, #4]
20002a90:	0011      	movs	r1, r2
20002a92:	0018      	movs	r0, r3
20002a94:	f7ff ff2a 	bl	200028ec <ph_get_node>
20002a98:	0002      	movs	r2, r0
20002a9a:	0021      	movs	r1, r4
20002a9c:	187b      	adds	r3, r7, r1
20002a9e:	781b      	ldrb	r3, [r3, #0]
20002aa0:	3301      	adds	r3, #1
20002aa2:	b2db      	uxtb	r3, r3
20002aa4:	7053      	strb	r3, [r2, #1]
20002aa6:	187b      	adds	r3, r7, r1
20002aa8:	781a      	ldrb	r2, [r3, #0]
20002aaa:	187b      	adds	r3, r7, r1
20002aac:	3201      	adds	r2, #1
20002aae:	701a      	strb	r2, [r3, #0]
20002ab0:	687b      	ldr	r3, [r7, #4]
20002ab2:	7b1b      	ldrb	r3, [r3, #12]
20002ab4:	220f      	movs	r2, #15
20002ab6:	18ba      	adds	r2, r7, r2
20002ab8:	7812      	ldrb	r2, [r2, #0]
20002aba:	429a      	cmp	r2, r3
20002abc:	d3e4      	bcc.n	20002a88 <ph_clear+0x26>
20002abe:	687b      	ldr	r3, [r7, #4]
20002ac0:	7b1a      	ldrb	r2, [r3, #12]
20002ac2:	687b      	ldr	r3, [r7, #4]
20002ac4:	0011      	movs	r1, r2
20002ac6:	0018      	movs	r0, r3
20002ac8:	f7ff ff10 	bl	200028ec <ph_get_node>
20002acc:	0003      	movs	r3, r0
20002ace:	2200      	movs	r2, #0
20002ad0:	705a      	strb	r2, [r3, #1]
20002ad2:	46c0      	nop			@ (mov r8, r8)
20002ad4:	46bd      	mov	sp, r7
20002ad6:	b005      	add	sp, #20
20002ad8:	bd90      	pop	{r4, r7, pc}

20002ada <ph_merge_two_pass>:
20002ada:	b5f0      	push	{r4, r5, r6, r7, lr}
20002adc:	b085      	sub	sp, #20
20002ade:	af00      	add	r7, sp, #0
20002ae0:	6078      	str	r0, [r7, #4]
20002ae2:	000a      	movs	r2, r1
20002ae4:	1cfb      	adds	r3, r7, #3
20002ae6:	701a      	strb	r2, [r3, #0]
20002ae8:	1cfb      	adds	r3, r7, #3
20002aea:	781b      	ldrb	r3, [r3, #0]
20002aec:	2b00      	cmp	r3, #0
20002aee:	d00a      	beq.n	20002b06 <ph_merge_two_pass+0x2c>
20002af0:	1cfb      	adds	r3, r7, #3
20002af2:	781a      	ldrb	r2, [r3, #0]
20002af4:	687b      	ldr	r3, [r7, #4]
20002af6:	0011      	movs	r1, r2
20002af8:	0018      	movs	r0, r3
20002afa:	f7ff fef7 	bl	200028ec <ph_get_node>
20002afe:	0003      	movs	r3, r0
20002b00:	785b      	ldrb	r3, [r3, #1]
20002b02:	2b00      	cmp	r3, #0
20002b04:	d102      	bne.n	20002b0c <ph_merge_two_pass+0x32>
20002b06:	1cfb      	adds	r3, r7, #3
20002b08:	781b      	ldrb	r3, [r3, #0]
20002b0a:	e04a      	b.n	20002ba2 <ph_merge_two_pass+0xc8>
20002b0c:	260f      	movs	r6, #15
20002b0e:	19bb      	adds	r3, r7, r6
20002b10:	1cfa      	adds	r2, r7, #3
20002b12:	7812      	ldrb	r2, [r2, #0]
20002b14:	701a      	strb	r2, [r3, #0]
20002b16:	1cfb      	adds	r3, r7, #3
20002b18:	781a      	ldrb	r2, [r3, #0]
20002b1a:	687b      	ldr	r3, [r7, #4]
20002b1c:	0011      	movs	r1, r2
20002b1e:	0018      	movs	r0, r3
20002b20:	f7ff fee4 	bl	200028ec <ph_get_node>
20002b24:	0002      	movs	r2, r0
20002b26:	250e      	movs	r5, #14
20002b28:	197b      	adds	r3, r7, r5
20002b2a:	7852      	ldrb	r2, [r2, #1]
20002b2c:	701a      	strb	r2, [r3, #0]
20002b2e:	197b      	adds	r3, r7, r5
20002b30:	781a      	ldrb	r2, [r3, #0]
20002b32:	687b      	ldr	r3, [r7, #4]
20002b34:	0011      	movs	r1, r2
20002b36:	0018      	movs	r0, r3
20002b38:	f7ff fed8 	bl	200028ec <ph_get_node>
20002b3c:	0002      	movs	r2, r0
20002b3e:	230d      	movs	r3, #13
20002b40:	18fb      	adds	r3, r7, r3
20002b42:	7852      	ldrb	r2, [r2, #1]
20002b44:	701a      	strb	r2, [r3, #0]
20002b46:	197b      	adds	r3, r7, r5
20002b48:	781a      	ldrb	r2, [r3, #0]
20002b4a:	687b      	ldr	r3, [r7, #4]
20002b4c:	0011      	movs	r1, r2
20002b4e:	0018      	movs	r0, r3
20002b50:	f7ff fecc 	bl	200028ec <ph_get_node>
20002b54:	0004      	movs	r4, r0
20002b56:	2300      	movs	r3, #0
20002b58:	7063      	strb	r3, [r4, #1]
20002b5a:	19bb      	adds	r3, r7, r6
20002b5c:	781a      	ldrb	r2, [r3, #0]
20002b5e:	687b      	ldr	r3, [r7, #4]
20002b60:	0011      	movs	r1, r2
20002b62:	0018      	movs	r0, r3
20002b64:	f7ff fec2 	bl	200028ec <ph_get_node>
20002b68:	0003      	movs	r3, r0
20002b6a:	7862      	ldrb	r2, [r4, #1]
20002b6c:	705a      	strb	r2, [r3, #1]
20002b6e:	197b      	adds	r3, r7, r5
20002b70:	781a      	ldrb	r2, [r3, #0]
20002b72:	19bb      	adds	r3, r7, r6
20002b74:	7819      	ldrb	r1, [r3, #0]
20002b76:	687b      	ldr	r3, [r7, #4]
20002b78:	0018      	movs	r0, r3
20002b7a:	f7ff ff02 	bl	20002982 <ph_merge_nodes>
20002b7e:	0003      	movs	r3, r0
20002b80:	001c      	movs	r4, r3
20002b82:	230d      	movs	r3, #13
20002b84:	18fb      	adds	r3, r7, r3
20002b86:	781a      	ldrb	r2, [r3, #0]
20002b88:	687b      	ldr	r3, [r7, #4]
20002b8a:	0011      	movs	r1, r2
20002b8c:	0018      	movs	r0, r3
20002b8e:	f7ff ffa4 	bl	20002ada <ph_merge_two_pass>
20002b92:	0003      	movs	r3, r0
20002b94:	001a      	movs	r2, r3
20002b96:	687b      	ldr	r3, [r7, #4]
20002b98:	0021      	movs	r1, r4
20002b9a:	0018      	movs	r0, r3
20002b9c:	f7ff fef1 	bl	20002982 <ph_merge_nodes>
20002ba0:	0003      	movs	r3, r0
20002ba2:	0018      	movs	r0, r3
20002ba4:	46bd      	mov	sp, r7
20002ba6:	b005      	add	sp, #20
20002ba8:	bdf0      	pop	{r4, r5, r6, r7, pc}

20002baa <ph_remove_any_head>:
20002baa:	b590      	push	{r4, r7, lr}
20002bac:	b085      	sub	sp, #20
20002bae:	af00      	add	r7, sp, #0
20002bb0:	6078      	str	r0, [r7, #4]
20002bb2:	0008      	movs	r0, r1
20002bb4:	0011      	movs	r1, r2
20002bb6:	1cfb      	adds	r3, r7, #3
20002bb8:	1c02      	adds	r2, r0, #0
20002bba:	701a      	strb	r2, [r3, #0]
20002bbc:	1cbb      	adds	r3, r7, #2
20002bbe:	1c0a      	adds	r2, r1, #0
20002bc0:	701a      	strb	r2, [r3, #0]
20002bc2:	1cfb      	adds	r3, r7, #3
20002bc4:	781a      	ldrb	r2, [r3, #0]
20002bc6:	687b      	ldr	r3, [r7, #4]
20002bc8:	0011      	movs	r1, r2
20002bca:	0018      	movs	r0, r3
20002bcc:	f7ff fe8e 	bl	200028ec <ph_get_node>
20002bd0:	0003      	movs	r3, r0
20002bd2:	781a      	ldrb	r2, [r3, #0]
20002bd4:	230f      	movs	r3, #15
20002bd6:	18fc      	adds	r4, r7, r3
20002bd8:	687b      	ldr	r3, [r7, #4]
20002bda:	0011      	movs	r1, r2
20002bdc:	0018      	movs	r0, r3
20002bde:	f7ff ff7c 	bl	20002ada <ph_merge_two_pass>
20002be2:	0003      	movs	r3, r0
20002be4:	7023      	strb	r3, [r4, #0]
20002be6:	1cbb      	adds	r3, r7, #2
20002be8:	781b      	ldrb	r3, [r3, #0]
20002bea:	2b00      	cmp	r3, #0
20002bec:	d01a      	beq.n	20002c24 <ph_remove_any_head+0x7a>
20002bee:	687b      	ldr	r3, [r7, #4]
20002bf0:	7bdb      	ldrb	r3, [r3, #15]
20002bf2:	2b00      	cmp	r3, #0
20002bf4:	d00a      	beq.n	20002c0c <ph_remove_any_head+0x62>
20002bf6:	687b      	ldr	r3, [r7, #4]
20002bf8:	7bda      	ldrb	r2, [r3, #15]
20002bfa:	687b      	ldr	r3, [r7, #4]
20002bfc:	0011      	movs	r1, r2
20002bfe:	0018      	movs	r0, r3
20002c00:	f7ff fe74 	bl	200028ec <ph_get_node>
20002c04:	0002      	movs	r2, r0
20002c06:	1cfb      	adds	r3, r7, #3
20002c08:	781b      	ldrb	r3, [r3, #0]
20002c0a:	7053      	strb	r3, [r2, #1]
20002c0c:	687b      	ldr	r3, [r7, #4]
20002c0e:	7b9b      	ldrb	r3, [r3, #14]
20002c10:	2b00      	cmp	r3, #0
20002c12:	d103      	bne.n	20002c1c <ph_remove_any_head+0x72>
20002c14:	687b      	ldr	r3, [r7, #4]
20002c16:	1cfa      	adds	r2, r7, #3
20002c18:	7812      	ldrb	r2, [r2, #0]
20002c1a:	739a      	strb	r2, [r3, #14]
20002c1c:	687b      	ldr	r3, [r7, #4]
20002c1e:	1cfa      	adds	r2, r7, #3
20002c20:	7812      	ldrb	r2, [r2, #0]
20002c22:	73da      	strb	r2, [r3, #15]
20002c24:	220f      	movs	r2, #15
20002c26:	18bb      	adds	r3, r7, r2
20002c28:	781b      	ldrb	r3, [r3, #0]
20002c2a:	2b00      	cmp	r3, #0
20002c2c:	d009      	beq.n	20002c42 <ph_remove_any_head+0x98>
20002c2e:	18bb      	adds	r3, r7, r2
20002c30:	781a      	ldrb	r2, [r3, #0]
20002c32:	687b      	ldr	r3, [r7, #4]
20002c34:	0011      	movs	r1, r2
20002c36:	0018      	movs	r0, r3
20002c38:	f7ff fe58 	bl	200028ec <ph_get_node>
20002c3c:	0003      	movs	r3, r0
20002c3e:	2200      	movs	r2, #0
20002c40:	709a      	strb	r2, [r3, #2]
20002c42:	1cfb      	adds	r3, r7, #3
20002c44:	781a      	ldrb	r2, [r3, #0]
20002c46:	687b      	ldr	r3, [r7, #4]
20002c48:	0011      	movs	r1, r2
20002c4a:	0018      	movs	r0, r3
20002c4c:	f7ff fe4e 	bl	200028ec <ph_get_node>
20002c50:	0003      	movs	r3, r0
20002c52:	2200      	movs	r2, #0
20002c54:	705a      	strb	r2, [r3, #1]
20002c56:	230f      	movs	r3, #15
20002c58:	18fb      	adds	r3, r7, r3
20002c5a:	781b      	ldrb	r3, [r3, #0]
20002c5c:	0018      	movs	r0, r3
20002c5e:	46bd      	mov	sp, r7
20002c60:	b005      	add	sp, #20
20002c62:	bd90      	pop	{r4, r7, pc}

20002c64 <ph_remove_head>:
20002c64:	b5b0      	push	{r4, r5, r7, lr}
20002c66:	b084      	sub	sp, #16
20002c68:	af00      	add	r7, sp, #0
20002c6a:	6078      	str	r0, [r7, #4]
20002c6c:	000a      	movs	r2, r1
20002c6e:	1cfb      	adds	r3, r7, #3
20002c70:	701a      	strb	r2, [r3, #0]
20002c72:	250f      	movs	r5, #15
20002c74:	197c      	adds	r4, r7, r5
20002c76:	687b      	ldr	r3, [r7, #4]
20002c78:	0018      	movs	r0, r3
20002c7a:	f7ff fec1 	bl	20002a00 <ph_peek_head>
20002c7e:	0003      	movs	r3, r0
20002c80:	7023      	strb	r3, [r4, #0]
20002c82:	1cfb      	adds	r3, r7, #3
20002c84:	781a      	ldrb	r2, [r3, #0]
20002c86:	002c      	movs	r4, r5
20002c88:	193b      	adds	r3, r7, r4
20002c8a:	7819      	ldrb	r1, [r3, #0]
20002c8c:	687b      	ldr	r3, [r7, #4]
20002c8e:	0018      	movs	r0, r3
20002c90:	f7ff ff8b 	bl	20002baa <ph_remove_any_head>
20002c94:	0003      	movs	r3, r0
20002c96:	001a      	movs	r2, r3
20002c98:	687b      	ldr	r3, [r7, #4]
20002c9a:	735a      	strb	r2, [r3, #13]
20002c9c:	193b      	adds	r3, r7, r4
20002c9e:	781b      	ldrb	r3, [r3, #0]
20002ca0:	0018      	movs	r0, r3
20002ca2:	46bd      	mov	sp, r7
20002ca4:	b004      	add	sp, #16
20002ca6:	bdb0      	pop	{r4, r5, r7, pc}

20002ca8 <ph_remove_and_free_node>:
20002ca8:	b5b0      	push	{r4, r5, r7, lr}
20002caa:	b088      	sub	sp, #32
20002cac:	af00      	add	r7, sp, #0
20002cae:	6078      	str	r0, [r7, #4]
20002cb0:	000a      	movs	r2, r1
20002cb2:	1cfb      	adds	r3, r7, #3
20002cb4:	701a      	strb	r2, [r3, #0]
20002cb6:	1cfb      	adds	r3, r7, #3
20002cb8:	781b      	ldrb	r3, [r3, #0]
20002cba:	2b00      	cmp	r3, #0
20002cbc:	d101      	bne.n	20002cc2 <ph_remove_and_free_node+0x1a>
20002cbe:	2300      	movs	r3, #0
20002cc0:	e078      	b.n	20002db4 <ph_remove_and_free_node+0x10c>
20002cc2:	687b      	ldr	r3, [r7, #4]
20002cc4:	7b5b      	ldrb	r3, [r3, #13]
20002cc6:	1cfa      	adds	r2, r7, #3
20002cc8:	7812      	ldrb	r2, [r2, #0]
20002cca:	429a      	cmp	r2, r3
20002ccc:	d105      	bne.n	20002cda <ph_remove_and_free_node+0x32>
20002cce:	687b      	ldr	r3, [r7, #4]
20002cd0:	0018      	movs	r0, r3
20002cd2:	f7ff fe9f 	bl	20002a14 <ph_remove_and_free_head>
20002cd6:	2301      	movs	r3, #1
20002cd8:	e06c      	b.n	20002db4 <ph_remove_and_free_node+0x10c>
20002cda:	1cfb      	adds	r3, r7, #3
20002cdc:	781a      	ldrb	r2, [r3, #0]
20002cde:	687b      	ldr	r3, [r7, #4]
20002ce0:	0011      	movs	r1, r2
20002ce2:	0018      	movs	r0, r3
20002ce4:	f7ff fe02 	bl	200028ec <ph_get_node>
20002ce8:	0003      	movs	r3, r0
20002cea:	61bb      	str	r3, [r7, #24]
20002cec:	69bb      	ldr	r3, [r7, #24]
20002cee:	789b      	ldrb	r3, [r3, #2]
20002cf0:	2b00      	cmp	r3, #0
20002cf2:	d101      	bne.n	20002cf8 <ph_remove_and_free_node+0x50>
20002cf4:	2300      	movs	r3, #0
20002cf6:	e05d      	b.n	20002db4 <ph_remove_and_free_node+0x10c>
20002cf8:	69bb      	ldr	r3, [r7, #24]
20002cfa:	789a      	ldrb	r2, [r3, #2]
20002cfc:	687b      	ldr	r3, [r7, #4]
20002cfe:	0011      	movs	r1, r2
20002d00:	0018      	movs	r0, r3
20002d02:	f7ff fdf3 	bl	200028ec <ph_get_node>
20002d06:	0003      	movs	r3, r0
20002d08:	617b      	str	r3, [r7, #20]
20002d0a:	697b      	ldr	r3, [r7, #20]
20002d0c:	781b      	ldrb	r3, [r3, #0]
20002d0e:	1cfa      	adds	r2, r7, #3
20002d10:	7812      	ldrb	r2, [r2, #0]
20002d12:	429a      	cmp	r2, r3
20002d14:	d104      	bne.n	20002d20 <ph_remove_and_free_node+0x78>
20002d16:	69bb      	ldr	r3, [r7, #24]
20002d18:	785a      	ldrb	r2, [r3, #1]
20002d1a:	697b      	ldr	r3, [r7, #20]
20002d1c:	701a      	strb	r2, [r3, #0]
20002d1e:	e02a      	b.n	20002d76 <ph_remove_and_free_node+0xce>
20002d20:	231f      	movs	r3, #31
20002d22:	18fb      	adds	r3, r7, r3
20002d24:	697a      	ldr	r2, [r7, #20]
20002d26:	7812      	ldrb	r2, [r2, #0]
20002d28:	701a      	strb	r2, [r3, #0]
20002d2a:	2313      	movs	r3, #19
20002d2c:	18fb      	adds	r3, r7, r3
20002d2e:	2200      	movs	r2, #0
20002d30:	701a      	strb	r2, [r3, #0]
20002d32:	231f      	movs	r3, #31
20002d34:	18fb      	adds	r3, r7, r3
20002d36:	781a      	ldrb	r2, [r3, #0]
20002d38:	687b      	ldr	r3, [r7, #4]
20002d3a:	0011      	movs	r1, r2
20002d3c:	0018      	movs	r0, r3
20002d3e:	f7ff fdd5 	bl	200028ec <ph_get_node>
20002d42:	0003      	movs	r3, r0
20002d44:	60fb      	str	r3, [r7, #12]
20002d46:	68fb      	ldr	r3, [r7, #12]
20002d48:	785b      	ldrb	r3, [r3, #1]
20002d4a:	1cfa      	adds	r2, r7, #3
20002d4c:	7812      	ldrb	r2, [r2, #0]
20002d4e:	429a      	cmp	r2, r3
20002d50:	d108      	bne.n	20002d64 <ph_remove_and_free_node+0xbc>
20002d52:	69bb      	ldr	r3, [r7, #24]
20002d54:	785a      	ldrb	r2, [r3, #1]
20002d56:	68fb      	ldr	r3, [r7, #12]
20002d58:	705a      	strb	r2, [r3, #1]
20002d5a:	2313      	movs	r3, #19
20002d5c:	18fb      	adds	r3, r7, r3
20002d5e:	2201      	movs	r2, #1
20002d60:	701a      	strb	r2, [r3, #0]
20002d62:	e008      	b.n	20002d76 <ph_remove_and_free_node+0xce>
20002d64:	211f      	movs	r1, #31
20002d66:	187b      	adds	r3, r7, r1
20002d68:	68fa      	ldr	r2, [r7, #12]
20002d6a:	7852      	ldrb	r2, [r2, #1]
20002d6c:	701a      	strb	r2, [r3, #0]
20002d6e:	187b      	adds	r3, r7, r1
20002d70:	781b      	ldrb	r3, [r3, #0]
20002d72:	2b00      	cmp	r3, #0
20002d74:	d1dd      	bne.n	20002d32 <ph_remove_and_free_node+0x8a>
20002d76:	69bb      	ldr	r3, [r7, #24]
20002d78:	2200      	movs	r2, #0
20002d7a:	709a      	strb	r2, [r3, #2]
20002d7c:	69bb      	ldr	r3, [r7, #24]
20002d7e:	789a      	ldrb	r2, [r3, #2]
20002d80:	69bb      	ldr	r3, [r7, #24]
20002d82:	705a      	strb	r2, [r3, #1]
20002d84:	250b      	movs	r5, #11
20002d86:	197c      	adds	r4, r7, r5
20002d88:	1cfb      	adds	r3, r7, #3
20002d8a:	7819      	ldrb	r1, [r3, #0]
20002d8c:	687b      	ldr	r3, [r7, #4]
20002d8e:	2201      	movs	r2, #1
20002d90:	0018      	movs	r0, r3
20002d92:	f7ff ff0a 	bl	20002baa <ph_remove_any_head>
20002d96:	0003      	movs	r3, r0
20002d98:	7023      	strb	r3, [r4, #0]
20002d9a:	687b      	ldr	r3, [r7, #4]
20002d9c:	7b59      	ldrb	r1, [r3, #13]
20002d9e:	197b      	adds	r3, r7, r5
20002da0:	781a      	ldrb	r2, [r3, #0]
20002da2:	687b      	ldr	r3, [r7, #4]
20002da4:	0018      	movs	r0, r3
20002da6:	f7ff fdec 	bl	20002982 <ph_merge_nodes>
20002daa:	0003      	movs	r3, r0
20002dac:	001a      	movs	r2, r3
20002dae:	687b      	ldr	r3, [r7, #4]
20002db0:	735a      	strb	r2, [r3, #13]
20002db2:	2301      	movs	r3, #1
20002db4:	0018      	movs	r0, r3
20002db6:	46bd      	mov	sp, r7
20002db8:	b008      	add	sp, #32
20002dba:	bdb0      	pop	{r4, r5, r7, pc}

20002dbc <set_sys_clock_pll>:
20002dbc:	b580      	push	{r7, lr}
20002dbe:	b088      	sub	sp, #32
20002dc0:	af02      	add	r7, sp, #8
20002dc2:	60f8      	str	r0, [r7, #12]
20002dc4:	60b9      	str	r1, [r7, #8]
20002dc6:	607a      	str	r2, [r7, #4]
20002dc8:	f7fe fee8 	bl	20001b9c <running_on_fpga>
20002dcc:	0003      	movs	r3, r0
20002dce:	001a      	movs	r2, r3
20002dd0:	2301      	movs	r3, #1
20002dd2:	4053      	eors	r3, r2
20002dd4:	b2db      	uxtb	r3, r3
20002dd6:	2b00      	cmp	r3, #0
20002dd8:	d035      	beq.n	20002e46 <set_sys_clock_pll+0x8a>
20002dda:	4a1d      	ldr	r2, [pc, #116]	@ (20002e50 <set_sys_clock_pll+0x94>)
20002ddc:	4b1c      	ldr	r3, [pc, #112]	@ (20002e50 <set_sys_clock_pll+0x94>)
20002dde:	9300      	str	r3, [sp, #0]
20002de0:	0013      	movs	r3, r2
20002de2:	2201      	movs	r2, #1
20002de4:	2101      	movs	r1, #1
20002de6:	2005      	movs	r0, #5
20002de8:	f000 f9c2 	bl	20003170 <clock_configure>
20002dec:	68b9      	ldr	r1, [r7, #8]
20002dee:	68fa      	ldr	r2, [r7, #12]
20002df0:	4818      	ldr	r0, [pc, #96]	@ (20002e54 <set_sys_clock_pll+0x98>)
20002df2:	687b      	ldr	r3, [r7, #4]
20002df4:	9300      	str	r3, [sp, #0]
20002df6:	000b      	movs	r3, r1
20002df8:	2101      	movs	r1, #1
20002dfa:	f000 fbbb 	bl	20003574 <pll_init>
20002dfe:	68bb      	ldr	r3, [r7, #8]
20002e00:	687a      	ldr	r2, [r7, #4]
20002e02:	4353      	muls	r3, r2
20002e04:	0019      	movs	r1, r3
20002e06:	68f8      	ldr	r0, [r7, #12]
20002e08:	f000 fee4 	bl	20003bd4 <__wrap___aeabi_uidiv>
20002e0c:	0003      	movs	r3, r0
20002e0e:	617b      	str	r3, [r7, #20]
20002e10:	4a11      	ldr	r2, [pc, #68]	@ (20002e58 <set_sys_clock_pll+0x9c>)
20002e12:	4b11      	ldr	r3, [pc, #68]	@ (20002e58 <set_sys_clock_pll+0x9c>)
20002e14:	9300      	str	r3, [sp, #0]
20002e16:	0013      	movs	r3, r2
20002e18:	2200      	movs	r2, #0
20002e1a:	2102      	movs	r1, #2
20002e1c:	2004      	movs	r0, #4
20002e1e:	f000 f9a7 	bl	20003170 <clock_configure>
20002e22:	697a      	ldr	r2, [r7, #20]
20002e24:	697b      	ldr	r3, [r7, #20]
20002e26:	9300      	str	r3, [sp, #0]
20002e28:	0013      	movs	r3, r2
20002e2a:	2200      	movs	r2, #0
20002e2c:	2101      	movs	r1, #1
20002e2e:	2005      	movs	r0, #5
20002e30:	f000 f99e 	bl	20003170 <clock_configure>
20002e34:	4a06      	ldr	r2, [pc, #24]	@ (20002e50 <set_sys_clock_pll+0x94>)
20002e36:	4b06      	ldr	r3, [pc, #24]	@ (20002e50 <set_sys_clock_pll+0x94>)
20002e38:	9300      	str	r3, [sp, #0]
20002e3a:	0013      	movs	r3, r2
20002e3c:	2202      	movs	r2, #2
20002e3e:	2100      	movs	r1, #0
20002e40:	2006      	movs	r0, #6
20002e42:	f000 f995 	bl	20003170 <clock_configure>
20002e46:	46c0      	nop			@ (mov r8, r8)
20002e48:	46bd      	mov	sp, r7
20002e4a:	b006      	add	sp, #24
20002e4c:	bd80      	pop	{r7, pc}
20002e4e:	46c0      	nop			@ (mov r8, r8)
20002e50:	02dc6c00 	.word	0x02dc6c00
20002e54:	40028000 	.word	0x40028000
20002e58:	00b71b00 	.word	0x00b71b00

20002e5c <check_sys_clock_khz>:
20002e5c:	b580      	push	{r7, lr}
20002e5e:	b08a      	sub	sp, #40	@ 0x28
20002e60:	af00      	add	r7, sp, #0
20002e62:	60f8      	str	r0, [r7, #12]
20002e64:	60b9      	str	r1, [r7, #8]
20002e66:	607a      	str	r2, [r7, #4]
20002e68:	603b      	str	r3, [r7, #0]
20002e6a:	4b2d      	ldr	r3, [pc, #180]	@ (20002f20 <check_sys_clock_khz+0xc4>)
20002e6c:	61bb      	str	r3, [r7, #24]
20002e6e:	23a0      	movs	r3, #160	@ 0xa0
20002e70:	005b      	lsls	r3, r3, #1
20002e72:	627b      	str	r3, [r7, #36]	@ 0x24
20002e74:	e04b      	b.n	20002f0e <check_sys_clock_khz+0xb2>
20002e76:	6a7b      	ldr	r3, [r7, #36]	@ 0x24
20002e78:	69ba      	ldr	r2, [r7, #24]
20002e7a:	4353      	muls	r3, r2
20002e7c:	617b      	str	r3, [r7, #20]
20002e7e:	697b      	ldr	r3, [r7, #20]
20002e80:	4a28      	ldr	r2, [pc, #160]	@ (20002f24 <check_sys_clock_khz+0xc8>)
20002e82:	4293      	cmp	r3, r2
20002e84:	d93f      	bls.n	20002f06 <check_sys_clock_khz+0xaa>
20002e86:	697b      	ldr	r3, [r7, #20]
20002e88:	4a27      	ldr	r2, [pc, #156]	@ (20002f28 <check_sys_clock_khz+0xcc>)
20002e8a:	4293      	cmp	r3, r2
20002e8c:	d83b      	bhi.n	20002f06 <check_sys_clock_khz+0xaa>
20002e8e:	2307      	movs	r3, #7
20002e90:	623b      	str	r3, [r7, #32]
20002e92:	e034      	b.n	20002efe <check_sys_clock_khz+0xa2>
20002e94:	6a3b      	ldr	r3, [r7, #32]
20002e96:	61fb      	str	r3, [r7, #28]
20002e98:	e02b      	b.n	20002ef2 <check_sys_clock_khz+0x96>
20002e9a:	6a3b      	ldr	r3, [r7, #32]
20002e9c:	69fa      	ldr	r2, [r7, #28]
20002e9e:	4353      	muls	r3, r2
20002ea0:	0019      	movs	r1, r3
20002ea2:	6978      	ldr	r0, [r7, #20]
20002ea4:	f000 fe96 	bl	20003bd4 <__wrap___aeabi_uidiv>
20002ea8:	0003      	movs	r3, r0
20002eaa:	613b      	str	r3, [r7, #16]
20002eac:	693a      	ldr	r2, [r7, #16]
20002eae:	68fb      	ldr	r3, [r7, #12]
20002eb0:	429a      	cmp	r2, r3
20002eb2:	d11b      	bne.n	20002eec <check_sys_clock_khz+0x90>
20002eb4:	6a3b      	ldr	r3, [r7, #32]
20002eb6:	69fa      	ldr	r2, [r7, #28]
20002eb8:	435a      	muls	r2, r3
20002eba:	697b      	ldr	r3, [r7, #20]
20002ebc:	0011      	movs	r1, r2
20002ebe:	0018      	movs	r0, r3
20002ec0:	f000 fe88 	bl	20003bd4 <__wrap___aeabi_uidiv>
20002ec4:	1e0b      	subs	r3, r1, #0
20002ec6:	d111      	bne.n	20002eec <check_sys_clock_khz+0x90>
20002ec8:	697a      	ldr	r2, [r7, #20]
20002eca:	0013      	movs	r3, r2
20002ecc:	015b      	lsls	r3, r3, #5
20002ece:	1a9b      	subs	r3, r3, r2
20002ed0:	009b      	lsls	r3, r3, #2
20002ed2:	189b      	adds	r3, r3, r2
20002ed4:	00db      	lsls	r3, r3, #3
20002ed6:	001a      	movs	r2, r3
20002ed8:	68bb      	ldr	r3, [r7, #8]
20002eda:	601a      	str	r2, [r3, #0]
20002edc:	687b      	ldr	r3, [r7, #4]
20002ede:	6a3a      	ldr	r2, [r7, #32]
20002ee0:	601a      	str	r2, [r3, #0]
20002ee2:	683b      	ldr	r3, [r7, #0]
20002ee4:	69fa      	ldr	r2, [r7, #28]
20002ee6:	601a      	str	r2, [r3, #0]
20002ee8:	2301      	movs	r3, #1
20002eea:	e014      	b.n	20002f16 <check_sys_clock_khz+0xba>
20002eec:	69fb      	ldr	r3, [r7, #28]
20002eee:	3b01      	subs	r3, #1
20002ef0:	61fb      	str	r3, [r7, #28]
20002ef2:	69fb      	ldr	r3, [r7, #28]
20002ef4:	2b00      	cmp	r3, #0
20002ef6:	d1d0      	bne.n	20002e9a <check_sys_clock_khz+0x3e>
20002ef8:	6a3b      	ldr	r3, [r7, #32]
20002efa:	3b01      	subs	r3, #1
20002efc:	623b      	str	r3, [r7, #32]
20002efe:	6a3b      	ldr	r3, [r7, #32]
20002f00:	2b00      	cmp	r3, #0
20002f02:	d1c7      	bne.n	20002e94 <check_sys_clock_khz+0x38>
20002f04:	e000      	b.n	20002f08 <check_sys_clock_khz+0xac>
20002f06:	46c0      	nop			@ (mov r8, r8)
20002f08:	6a7b      	ldr	r3, [r7, #36]	@ 0x24
20002f0a:	3b01      	subs	r3, #1
20002f0c:	627b      	str	r3, [r7, #36]	@ 0x24
20002f0e:	6a7b      	ldr	r3, [r7, #36]	@ 0x24
20002f10:	2b0f      	cmp	r3, #15
20002f12:	d8b0      	bhi.n	20002e76 <check_sys_clock_khz+0x1a>
20002f14:	2300      	movs	r3, #0
20002f16:	0018      	movs	r0, r3
20002f18:	46bd      	mov	sp, r7
20002f1a:	b00a      	add	sp, #40	@ 0x28
20002f1c:	bd80      	pop	{r7, pc}
20002f1e:	46c0      	nop			@ (mov r8, r8)
20002f20:	00002ee0 	.word	0x00002ee0
20002f24:	000b71af 	.word	0x000b71af
20002f28:	00186a00 	.word	0x00186a00

20002f2c <check_gpio_param>:
20002f2c:	b580      	push	{r7, lr}
20002f2e:	b082      	sub	sp, #8
20002f30:	af00      	add	r7, sp, #0
20002f32:	6078      	str	r0, [r7, #4]
20002f34:	46c0      	nop			@ (mov r8, r8)
20002f36:	46bd      	mov	sp, r7
20002f38:	b002      	add	sp, #8
20002f3a:	bd80      	pop	{r7, pc}

20002f3c <gpio_set_mask>:
20002f3c:	b580      	push	{r7, lr}
20002f3e:	b082      	sub	sp, #8
20002f40:	af00      	add	r7, sp, #0
20002f42:	6078      	str	r0, [r7, #4]
20002f44:	23d0      	movs	r3, #208	@ 0xd0
20002f46:	061b      	lsls	r3, r3, #24
20002f48:	687a      	ldr	r2, [r7, #4]
20002f4a:	615a      	str	r2, [r3, #20]
20002f4c:	46c0      	nop			@ (mov r8, r8)
20002f4e:	46bd      	mov	sp, r7
20002f50:	b002      	add	sp, #8
20002f52:	bd80      	pop	{r7, pc}

20002f54 <gpio_clr_mask>:
20002f54:	b580      	push	{r7, lr}
20002f56:	b082      	sub	sp, #8
20002f58:	af00      	add	r7, sp, #0
20002f5a:	6078      	str	r0, [r7, #4]
20002f5c:	23d0      	movs	r3, #208	@ 0xd0
20002f5e:	061b      	lsls	r3, r3, #24
20002f60:	687a      	ldr	r2, [r7, #4]
20002f62:	619a      	str	r2, [r3, #24]
20002f64:	46c0      	nop			@ (mov r8, r8)
20002f66:	46bd      	mov	sp, r7
20002f68:	b002      	add	sp, #8
20002f6a:	bd80      	pop	{r7, pc}

20002f6c <gpio_put>:
20002f6c:	b580      	push	{r7, lr}
20002f6e:	b084      	sub	sp, #16
20002f70:	af00      	add	r7, sp, #0
20002f72:	6078      	str	r0, [r7, #4]
20002f74:	000a      	movs	r2, r1
20002f76:	1cfb      	adds	r3, r7, #3
20002f78:	701a      	strb	r2, [r3, #0]
20002f7a:	2201      	movs	r2, #1
20002f7c:	687b      	ldr	r3, [r7, #4]
20002f7e:	409a      	lsls	r2, r3
20002f80:	0013      	movs	r3, r2
20002f82:	60fb      	str	r3, [r7, #12]
20002f84:	1cfb      	adds	r3, r7, #3
20002f86:	781b      	ldrb	r3, [r3, #0]
20002f88:	2b00      	cmp	r3, #0
20002f8a:	d004      	beq.n	20002f96 <gpio_put+0x2a>
20002f8c:	68fb      	ldr	r3, [r7, #12]
20002f8e:	0018      	movs	r0, r3
20002f90:	f7ff ffd4 	bl	20002f3c <gpio_set_mask>
20002f94:	e003      	b.n	20002f9e <gpio_put+0x32>
20002f96:	68fb      	ldr	r3, [r7, #12]
20002f98:	0018      	movs	r0, r3
20002f9a:	f7ff ffdb 	bl	20002f54 <gpio_clr_mask>
20002f9e:	46c0      	nop			@ (mov r8, r8)
20002fa0:	46bd      	mov	sp, r7
20002fa2:	b004      	add	sp, #16
20002fa4:	bd80      	pop	{r7, pc}

20002fa6 <gpio_set_dir_out_masked>:
20002fa6:	b580      	push	{r7, lr}
20002fa8:	b082      	sub	sp, #8
20002faa:	af00      	add	r7, sp, #0
20002fac:	6078      	str	r0, [r7, #4]
20002fae:	23d0      	movs	r3, #208	@ 0xd0
20002fb0:	061b      	lsls	r3, r3, #24
20002fb2:	687a      	ldr	r2, [r7, #4]
20002fb4:	625a      	str	r2, [r3, #36]	@ 0x24
20002fb6:	46c0      	nop			@ (mov r8, r8)
20002fb8:	46bd      	mov	sp, r7
20002fba:	b002      	add	sp, #8
20002fbc:	bd80      	pop	{r7, pc}

20002fbe <gpio_set_dir_in_masked>:
20002fbe:	b580      	push	{r7, lr}
20002fc0:	b082      	sub	sp, #8
20002fc2:	af00      	add	r7, sp, #0
20002fc4:	6078      	str	r0, [r7, #4]
20002fc6:	23d0      	movs	r3, #208	@ 0xd0
20002fc8:	061b      	lsls	r3, r3, #24
20002fca:	687a      	ldr	r2, [r7, #4]
20002fcc:	629a      	str	r2, [r3, #40]	@ 0x28
20002fce:	46c0      	nop			@ (mov r8, r8)
20002fd0:	46bd      	mov	sp, r7
20002fd2:	b002      	add	sp, #8
20002fd4:	bd80      	pop	{r7, pc}

20002fd6 <gpio_set_dir>:
20002fd6:	b580      	push	{r7, lr}
20002fd8:	b084      	sub	sp, #16
20002fda:	af00      	add	r7, sp, #0
20002fdc:	6078      	str	r0, [r7, #4]
20002fde:	000a      	movs	r2, r1
20002fe0:	1cfb      	adds	r3, r7, #3
20002fe2:	701a      	strb	r2, [r3, #0]
20002fe4:	2201      	movs	r2, #1
20002fe6:	687b      	ldr	r3, [r7, #4]
20002fe8:	409a      	lsls	r2, r3
20002fea:	0013      	movs	r3, r2
20002fec:	60fb      	str	r3, [r7, #12]
20002fee:	1cfb      	adds	r3, r7, #3
20002ff0:	781b      	ldrb	r3, [r3, #0]
20002ff2:	2b00      	cmp	r3, #0
20002ff4:	d004      	beq.n	20003000 <gpio_set_dir+0x2a>
20002ff6:	68fb      	ldr	r3, [r7, #12]
20002ff8:	0018      	movs	r0, r3
20002ffa:	f7ff ffd4 	bl	20002fa6 <gpio_set_dir_out_masked>
20002ffe:	e003      	b.n	20003008 <gpio_set_dir+0x32>
20003000:	68fb      	ldr	r3, [r7, #12]
20003002:	0018      	movs	r0, r3
20003004:	f7ff ffdb 	bl	20002fbe <gpio_set_dir_in_masked>
20003008:	46c0      	nop			@ (mov r8, r8)
2000300a:	46bd      	mov	sp, r7
2000300c:	b004      	add	sp, #16
2000300e:	bd80      	pop	{r7, pc}

20003010 <gpio_set_function>:
20003010:	b580      	push	{r7, lr}
20003012:	b088      	sub	sp, #32
20003014:	af00      	add	r7, sp, #0
20003016:	6078      	str	r0, [r7, #4]
20003018:	000a      	movs	r2, r1
2000301a:	1cfb      	adds	r3, r7, #3
2000301c:	701a      	strb	r2, [r3, #0]
2000301e:	687b      	ldr	r3, [r7, #4]
20003020:	0018      	movs	r0, r3
20003022:	f7ff ff83 	bl	20002f2c <check_gpio_param>
20003026:	687b      	ldr	r3, [r7, #4]
20003028:	009b      	lsls	r3, r3, #2
2000302a:	4a12      	ldr	r2, [pc, #72]	@ (20003074 <gpio_set_function+0x64>)
2000302c:	4694      	mov	ip, r2
2000302e:	4463      	add	r3, ip
20003030:	61fb      	str	r3, [r7, #28]
20003032:	2340      	movs	r3, #64	@ 0x40
20003034:	61bb      	str	r3, [r7, #24]
20003036:	23c0      	movs	r3, #192	@ 0xc0
20003038:	617b      	str	r3, [r7, #20]
2000303a:	69fb      	ldr	r3, [r7, #28]
2000303c:	681a      	ldr	r2, [r3, #0]
2000303e:	69bb      	ldr	r3, [r7, #24]
20003040:	4053      	eors	r3, r2
20003042:	697a      	ldr	r2, [r7, #20]
20003044:	4013      	ands	r3, r2
20003046:	69fa      	ldr	r2, [r7, #28]
20003048:	613a      	str	r2, [r7, #16]
2000304a:	60fb      	str	r3, [r7, #12]
2000304c:	693b      	ldr	r3, [r7, #16]
2000304e:	2280      	movs	r2, #128	@ 0x80
20003050:	0152      	lsls	r2, r2, #5
20003052:	4313      	orrs	r3, r2
20003054:	68fa      	ldr	r2, [r7, #12]
20003056:	601a      	str	r2, [r3, #0]
20003058:	46c0      	nop			@ (mov r8, r8)
2000305a:	46c0      	nop			@ (mov r8, r8)
2000305c:	4906      	ldr	r1, [pc, #24]	@ (20003078 <gpio_set_function+0x68>)
2000305e:	1cfb      	adds	r3, r7, #3
20003060:	781a      	ldrb	r2, [r3, #0]
20003062:	687b      	ldr	r3, [r7, #4]
20003064:	00db      	lsls	r3, r3, #3
20003066:	18cb      	adds	r3, r1, r3
20003068:	3304      	adds	r3, #4
2000306a:	601a      	str	r2, [r3, #0]
2000306c:	46c0      	nop			@ (mov r8, r8)
2000306e:	46bd      	mov	sp, r7
20003070:	b008      	add	sp, #32
20003072:	bd80      	pop	{r7, pc}
20003074:	4001c004 	.word	0x4001c004
20003078:	40014000 	.word	0x40014000

2000307c <gpio_set_pulls>:
2000307c:	b580      	push	{r7, lr}
2000307e:	b088      	sub	sp, #32
20003080:	af00      	add	r7, sp, #0
20003082:	6078      	str	r0, [r7, #4]
20003084:	0008      	movs	r0, r1
20003086:	0011      	movs	r1, r2
20003088:	1cfb      	adds	r3, r7, #3
2000308a:	1c02      	adds	r2, r0, #0
2000308c:	701a      	strb	r2, [r3, #0]
2000308e:	1cbb      	adds	r3, r7, #2
20003090:	1c0a      	adds	r2, r1, #0
20003092:	701a      	strb	r2, [r3, #0]
20003094:	687b      	ldr	r3, [r7, #4]
20003096:	0018      	movs	r0, r3
20003098:	f7ff ff48 	bl	20002f2c <check_gpio_param>
2000309c:	687b      	ldr	r3, [r7, #4]
2000309e:	009b      	lsls	r3, r3, #2
200030a0:	4a14      	ldr	r2, [pc, #80]	@ (200030f4 <gpio_set_pulls+0x78>)
200030a2:	1899      	adds	r1, r3, r2
200030a4:	1cfb      	adds	r3, r7, #3
200030a6:	781b      	ldrb	r3, [r3, #0]
200030a8:	2b00      	cmp	r3, #0
200030aa:	d001      	beq.n	200030b0 <gpio_set_pulls+0x34>
200030ac:	2208      	movs	r2, #8
200030ae:	e000      	b.n	200030b2 <gpio_set_pulls+0x36>
200030b0:	2200      	movs	r2, #0
200030b2:	1cbb      	adds	r3, r7, #2
200030b4:	781b      	ldrb	r3, [r3, #0]
200030b6:	2b00      	cmp	r3, #0
200030b8:	d001      	beq.n	200030be <gpio_set_pulls+0x42>
200030ba:	2304      	movs	r3, #4
200030bc:	e000      	b.n	200030c0 <gpio_set_pulls+0x44>
200030be:	2300      	movs	r3, #0
200030c0:	4313      	orrs	r3, r2
200030c2:	61f9      	str	r1, [r7, #28]
200030c4:	61bb      	str	r3, [r7, #24]
200030c6:	230c      	movs	r3, #12
200030c8:	617b      	str	r3, [r7, #20]
200030ca:	69fb      	ldr	r3, [r7, #28]
200030cc:	681a      	ldr	r2, [r3, #0]
200030ce:	69bb      	ldr	r3, [r7, #24]
200030d0:	4053      	eors	r3, r2
200030d2:	697a      	ldr	r2, [r7, #20]
200030d4:	4013      	ands	r3, r2
200030d6:	69fa      	ldr	r2, [r7, #28]
200030d8:	613a      	str	r2, [r7, #16]
200030da:	60fb      	str	r3, [r7, #12]
200030dc:	693b      	ldr	r3, [r7, #16]
200030de:	2280      	movs	r2, #128	@ 0x80
200030e0:	0152      	lsls	r2, r2, #5
200030e2:	4313      	orrs	r3, r2
200030e4:	68fa      	ldr	r2, [r7, #12]
200030e6:	601a      	str	r2, [r3, #0]
200030e8:	46c0      	nop			@ (mov r8, r8)
200030ea:	46c0      	nop			@ (mov r8, r8)
200030ec:	46c0      	nop			@ (mov r8, r8)
200030ee:	46bd      	mov	sp, r7
200030f0:	b008      	add	sp, #32
200030f2:	bd80      	pop	{r7, pc}
200030f4:	4001c004 	.word	0x4001c004

200030f8 <gpio_init>:
200030f8:	b580      	push	{r7, lr}
200030fa:	b082      	sub	sp, #8
200030fc:	af00      	add	r7, sp, #0
200030fe:	6078      	str	r0, [r7, #4]
20003100:	687b      	ldr	r3, [r7, #4]
20003102:	2100      	movs	r1, #0
20003104:	0018      	movs	r0, r3
20003106:	f7ff ff66 	bl	20002fd6 <gpio_set_dir>
2000310a:	687b      	ldr	r3, [r7, #4]
2000310c:	2100      	movs	r1, #0
2000310e:	0018      	movs	r0, r3
20003110:	f7ff ff2c 	bl	20002f6c <gpio_put>
20003114:	687b      	ldr	r3, [r7, #4]
20003116:	2105      	movs	r1, #5
20003118:	0018      	movs	r0, r3
2000311a:	f7ff ff79 	bl	20003010 <gpio_set_function>
2000311e:	46c0      	nop			@ (mov r8, r8)
20003120:	46bd      	mov	sp, r7
20003122:	b002      	add	sp, #8
20003124:	bd80      	pop	{r7, pc}

20003126 <busy_wait_at_least_cycles>:
20003126:	b580      	push	{r7, lr}
20003128:	b082      	sub	sp, #8
2000312a:	af00      	add	r7, sp, #0
2000312c:	6078      	str	r0, [r7, #4]
2000312e:	687b      	ldr	r3, [r7, #4]
20003130:	3b03      	subs	r3, #3
20003132:	d2fd      	bcs.n	20003130 <busy_wait_at_least_cycles+0xa>
20003134:	607b      	str	r3, [r7, #4]
20003136:	46c0      	nop			@ (mov r8, r8)
20003138:	46bd      	mov	sp, r7
2000313a:	b002      	add	sp, #8
2000313c:	bd80      	pop	{r7, pc}

2000313e <has_glitchless_mux>:
2000313e:	b580      	push	{r7, lr}
20003140:	b082      	sub	sp, #8
20003142:	af00      	add	r7, sp, #0
20003144:	0002      	movs	r2, r0
20003146:	1dfb      	adds	r3, r7, #7
20003148:	701a      	strb	r2, [r3, #0]
2000314a:	1dfb      	adds	r3, r7, #7
2000314c:	781b      	ldrb	r3, [r3, #0]
2000314e:	2b05      	cmp	r3, #5
20003150:	d003      	beq.n	2000315a <has_glitchless_mux+0x1c>
20003152:	1dfb      	adds	r3, r7, #7
20003154:	781b      	ldrb	r3, [r3, #0]
20003156:	2b04      	cmp	r3, #4
20003158:	d101      	bne.n	2000315e <has_glitchless_mux+0x20>
2000315a:	2301      	movs	r3, #1
2000315c:	e000      	b.n	20003160 <has_glitchless_mux+0x22>
2000315e:	2300      	movs	r3, #0
20003160:	1c1a      	adds	r2, r3, #0
20003162:	2301      	movs	r3, #1
20003164:	4013      	ands	r3, r2
20003166:	b2db      	uxtb	r3, r3
20003168:	0018      	movs	r0, r3
2000316a:	46bd      	mov	sp, r7
2000316c:	b002      	add	sp, #8
2000316e:	bd80      	pop	{r7, pc}

20003170 <clock_configure>:
20003170:	b5f0      	push	{r4, r5, r6, r7, lr}
20003172:	b0a3      	sub	sp, #140	@ 0x8c
20003174:	af00      	add	r7, sp, #0
20003176:	6339      	str	r1, [r7, #48]	@ 0x30
20003178:	62fa      	str	r2, [r7, #44]	@ 0x2c
2000317a:	62bb      	str	r3, [r7, #40]	@ 0x28
2000317c:	230f      	movs	r3, #15
2000317e:	2228      	movs	r2, #40	@ 0x28
20003180:	189b      	adds	r3, r3, r2
20003182:	19da      	adds	r2, r3, r7
20003184:	1c03      	adds	r3, r0, #0
20003186:	7013      	strb	r3, [r2, #0]
20003188:	2398      	movs	r3, #152	@ 0x98
2000318a:	2208      	movs	r2, #8
2000318c:	189b      	adds	r3, r3, r2
2000318e:	19db      	adds	r3, r3, r7
20003190:	681a      	ldr	r2, [r3, #0]
20003192:	6abb      	ldr	r3, [r7, #40]	@ 0x28
20003194:	429a      	cmp	r2, r3
20003196:	d901      	bls.n	2000319c <clock_configure+0x2c>
20003198:	2300      	movs	r3, #0
2000319a:	e10a      	b.n	200033b2 <clock_configure+0x242>
2000319c:	6abb      	ldr	r3, [r7, #40]	@ 0x28
2000319e:	623b      	str	r3, [r7, #32]
200031a0:	2300      	movs	r3, #0
200031a2:	627b      	str	r3, [r7, #36]	@ 0x24
200031a4:	6a3a      	ldr	r2, [r7, #32]
200031a6:	6a7b      	ldr	r3, [r7, #36]	@ 0x24
200031a8:	0011      	movs	r1, r2
200031aa:	0e09      	lsrs	r1, r1, #24
200031ac:	61f9      	str	r1, [r7, #28]
200031ae:	0013      	movs	r3, r2
200031b0:	021b      	lsls	r3, r3, #8
200031b2:	61bb      	str	r3, [r7, #24]
200031b4:	2398      	movs	r3, #152	@ 0x98
200031b6:	2208      	movs	r2, #8
200031b8:	189b      	adds	r3, r3, r2
200031ba:	19db      	adds	r3, r3, r7
200031bc:	681b      	ldr	r3, [r3, #0]
200031be:	613b      	str	r3, [r7, #16]
200031c0:	2300      	movs	r3, #0
200031c2:	617b      	str	r3, [r7, #20]
200031c4:	693a      	ldr	r2, [r7, #16]
200031c6:	697b      	ldr	r3, [r7, #20]
200031c8:	69b8      	ldr	r0, [r7, #24]
200031ca:	69f9      	ldr	r1, [r7, #28]
200031cc:	f000 fd40 	bl	20003c50 <__wrap___aeabi_uldivmod>
200031d0:	0002      	movs	r2, r0
200031d2:	000b      	movs	r3, r1
200031d4:	0013      	movs	r3, r2
200031d6:	2084      	movs	r0, #132	@ 0x84
200031d8:	183a      	adds	r2, r7, r0
200031da:	6013      	str	r3, [r2, #0]
200031dc:	230f      	movs	r3, #15
200031de:	2228      	movs	r2, #40	@ 0x28
200031e0:	189b      	adds	r3, r3, r2
200031e2:	19db      	adds	r3, r3, r7
200031e4:	781a      	ldrb	r2, [r3, #0]
200031e6:	0013      	movs	r3, r2
200031e8:	005b      	lsls	r3, r3, #1
200031ea:	189b      	adds	r3, r3, r2
200031ec:	009b      	lsls	r3, r3, #2
200031ee:	4a73      	ldr	r2, [pc, #460]	@ (200033bc <clock_configure+0x24c>)
200031f0:	4694      	mov	ip, r2
200031f2:	4463      	add	r3, ip
200031f4:	2180      	movs	r1, #128	@ 0x80
200031f6:	187a      	adds	r2, r7, r1
200031f8:	6013      	str	r3, [r2, #0]
200031fa:	187b      	adds	r3, r7, r1
200031fc:	681b      	ldr	r3, [r3, #0]
200031fe:	685b      	ldr	r3, [r3, #4]
20003200:	183a      	adds	r2, r7, r0
20003202:	6812      	ldr	r2, [r2, #0]
20003204:	429a      	cmp	r2, r3
20003206:	d904      	bls.n	20003212 <clock_configure+0xa2>
20003208:	187b      	adds	r3, r7, r1
2000320a:	681b      	ldr	r3, [r3, #0]
2000320c:	183a      	adds	r2, r7, r0
2000320e:	6812      	ldr	r2, [r2, #0]
20003210:	605a      	str	r2, [r3, #4]
20003212:	230f      	movs	r3, #15
20003214:	2228      	movs	r2, #40	@ 0x28
20003216:	189b      	adds	r3, r3, r2
20003218:	19db      	adds	r3, r3, r7
2000321a:	781b      	ldrb	r3, [r3, #0]
2000321c:	0018      	movs	r0, r3
2000321e:	f7ff ff8e 	bl	2000313e <has_glitchless_mux>
20003222:	1e03      	subs	r3, r0, #0
20003224:	d019      	beq.n	2000325a <clock_configure+0xea>
20003226:	6b3b      	ldr	r3, [r7, #48]	@ 0x30
20003228:	2b01      	cmp	r3, #1
2000322a:	d116      	bne.n	2000325a <clock_configure+0xea>
2000322c:	2380      	movs	r3, #128	@ 0x80
2000322e:	18fb      	adds	r3, r7, r3
20003230:	681b      	ldr	r3, [r3, #0]
20003232:	67bb      	str	r3, [r7, #120]	@ 0x78
20003234:	2303      	movs	r3, #3
20003236:	677b      	str	r3, [r7, #116]	@ 0x74
20003238:	6fbb      	ldr	r3, [r7, #120]	@ 0x78
2000323a:	22c0      	movs	r2, #192	@ 0xc0
2000323c:	0192      	lsls	r2, r2, #6
2000323e:	4313      	orrs	r3, r2
20003240:	6f7a      	ldr	r2, [r7, #116]	@ 0x74
20003242:	601a      	str	r2, [r3, #0]
20003244:	46c0      	nop			@ (mov r8, r8)
20003246:	e000      	b.n	2000324a <clock_configure+0xda>
20003248:	46c0      	nop			@ (mov r8, r8)
2000324a:	2380      	movs	r3, #128	@ 0x80
2000324c:	18fb      	adds	r3, r7, r3
2000324e:	681b      	ldr	r3, [r3, #0]
20003250:	689b      	ldr	r3, [r3, #8]
20003252:	2201      	movs	r2, #1
20003254:	4013      	ands	r3, r2
20003256:	d0f7      	beq.n	20003248 <clock_configure+0xd8>
20003258:	e02c      	b.n	200032b4 <clock_configure+0x144>
2000325a:	2380      	movs	r3, #128	@ 0x80
2000325c:	18fb      	adds	r3, r7, r3
2000325e:	681b      	ldr	r3, [r3, #0]
20003260:	673b      	str	r3, [r7, #112]	@ 0x70
20003262:	2380      	movs	r3, #128	@ 0x80
20003264:	011b      	lsls	r3, r3, #4
20003266:	66fb      	str	r3, [r7, #108]	@ 0x6c
20003268:	6f3b      	ldr	r3, [r7, #112]	@ 0x70
2000326a:	22c0      	movs	r2, #192	@ 0xc0
2000326c:	0192      	lsls	r2, r2, #6
2000326e:	4313      	orrs	r3, r2
20003270:	6efa      	ldr	r2, [r7, #108]	@ 0x6c
20003272:	601a      	str	r2, [r3, #0]
20003274:	46c0      	nop			@ (mov r8, r8)
20003276:	210f      	movs	r1, #15
20003278:	2628      	movs	r6, #40	@ 0x28
2000327a:	198b      	adds	r3, r1, r6
2000327c:	19db      	adds	r3, r3, r7
2000327e:	781a      	ldrb	r2, [r3, #0]
20003280:	4b4f      	ldr	r3, [pc, #316]	@ (200033c0 <clock_configure+0x250>)
20003282:	0092      	lsls	r2, r2, #2
20003284:	58d3      	ldr	r3, [r2, r3]
20003286:	2b00      	cmp	r3, #0
20003288:	d014      	beq.n	200032b4 <clock_configure+0x144>
2000328a:	4b4d      	ldr	r3, [pc, #308]	@ (200033c0 <clock_configure+0x250>)
2000328c:	6958      	ldr	r0, [r3, #20]
2000328e:	198b      	adds	r3, r1, r6
20003290:	19db      	adds	r3, r3, r7
20003292:	781a      	ldrb	r2, [r3, #0]
20003294:	4b4a      	ldr	r3, [pc, #296]	@ (200033c0 <clock_configure+0x250>)
20003296:	0092      	lsls	r2, r2, #2
20003298:	58d3      	ldr	r3, [r2, r3]
2000329a:	0019      	movs	r1, r3
2000329c:	f000 fc9a 	bl	20003bd4 <__wrap___aeabi_uidiv>
200032a0:	0003      	movs	r3, r0
200032a2:	3301      	adds	r3, #1
200032a4:	67fb      	str	r3, [r7, #124]	@ 0x7c
200032a6:	6ffa      	ldr	r2, [r7, #124]	@ 0x7c
200032a8:	0013      	movs	r3, r2
200032aa:	005b      	lsls	r3, r3, #1
200032ac:	189b      	adds	r3, r3, r2
200032ae:	0018      	movs	r0, r3
200032b0:	f7ff ff39 	bl	20003126 <busy_wait_at_least_cycles>
200032b4:	2680      	movs	r6, #128	@ 0x80
200032b6:	19bb      	adds	r3, r7, r6
200032b8:	681a      	ldr	r2, [r3, #0]
200032ba:	6afb      	ldr	r3, [r7, #44]	@ 0x2c
200032bc:	015b      	lsls	r3, r3, #5
200032be:	66ba      	str	r2, [r7, #104]	@ 0x68
200032c0:	667b      	str	r3, [r7, #100]	@ 0x64
200032c2:	23e0      	movs	r3, #224	@ 0xe0
200032c4:	663b      	str	r3, [r7, #96]	@ 0x60
200032c6:	6ebb      	ldr	r3, [r7, #104]	@ 0x68
200032c8:	681a      	ldr	r2, [r3, #0]
200032ca:	6e7b      	ldr	r3, [r7, #100]	@ 0x64
200032cc:	4053      	eors	r3, r2
200032ce:	6e3a      	ldr	r2, [r7, #96]	@ 0x60
200032d0:	4013      	ands	r3, r2
200032d2:	6eba      	ldr	r2, [r7, #104]	@ 0x68
200032d4:	65fa      	str	r2, [r7, #92]	@ 0x5c
200032d6:	65bb      	str	r3, [r7, #88]	@ 0x58
200032d8:	6dfb      	ldr	r3, [r7, #92]	@ 0x5c
200032da:	2280      	movs	r2, #128	@ 0x80
200032dc:	0152      	lsls	r2, r2, #5
200032de:	4313      	orrs	r3, r2
200032e0:	6dba      	ldr	r2, [r7, #88]	@ 0x58
200032e2:	601a      	str	r2, [r3, #0]
200032e4:	46c0      	nop			@ (mov r8, r8)
200032e6:	46c0      	nop			@ (mov r8, r8)
200032e8:	230f      	movs	r3, #15
200032ea:	2228      	movs	r2, #40	@ 0x28
200032ec:	189b      	adds	r3, r3, r2
200032ee:	19db      	adds	r3, r3, r7
200032f0:	781b      	ldrb	r3, [r3, #0]
200032f2:	0018      	movs	r0, r3
200032f4:	f7ff ff23 	bl	2000313e <has_glitchless_mux>
200032f8:	1e03      	subs	r3, r0, #0
200032fa:	d023      	beq.n	20003344 <clock_configure+0x1d4>
200032fc:	19bb      	adds	r3, r7, r6
200032fe:	681b      	ldr	r3, [r3, #0]
20003300:	657b      	str	r3, [r7, #84]	@ 0x54
20003302:	6b3b      	ldr	r3, [r7, #48]	@ 0x30
20003304:	653b      	str	r3, [r7, #80]	@ 0x50
20003306:	2303      	movs	r3, #3
20003308:	64fb      	str	r3, [r7, #76]	@ 0x4c
2000330a:	6d7b      	ldr	r3, [r7, #84]	@ 0x54
2000330c:	681a      	ldr	r2, [r3, #0]
2000330e:	6d3b      	ldr	r3, [r7, #80]	@ 0x50
20003310:	4053      	eors	r3, r2
20003312:	6cfa      	ldr	r2, [r7, #76]	@ 0x4c
20003314:	4013      	ands	r3, r2
20003316:	6d7a      	ldr	r2, [r7, #84]	@ 0x54
20003318:	64ba      	str	r2, [r7, #72]	@ 0x48
2000331a:	647b      	str	r3, [r7, #68]	@ 0x44
2000331c:	6cbb      	ldr	r3, [r7, #72]	@ 0x48
2000331e:	2280      	movs	r2, #128	@ 0x80
20003320:	0152      	lsls	r2, r2, #5
20003322:	4313      	orrs	r3, r2
20003324:	6c7a      	ldr	r2, [r7, #68]	@ 0x44
20003326:	601a      	str	r2, [r3, #0]
20003328:	46c0      	nop			@ (mov r8, r8)
2000332a:	46c0      	nop			@ (mov r8, r8)
2000332c:	e000      	b.n	20003330 <clock_configure+0x1c0>
2000332e:	46c0      	nop			@ (mov r8, r8)
20003330:	2380      	movs	r3, #128	@ 0x80
20003332:	18fb      	adds	r3, r7, r3
20003334:	681b      	ldr	r3, [r3, #0]
20003336:	689b      	ldr	r3, [r3, #8]
20003338:	2101      	movs	r1, #1
2000333a:	6b3a      	ldr	r2, [r7, #48]	@ 0x30
2000333c:	4091      	lsls	r1, r2
2000333e:	000a      	movs	r2, r1
20003340:	4013      	ands	r3, r2
20003342:	d0f4      	beq.n	2000332e <clock_configure+0x1be>
20003344:	2180      	movs	r1, #128	@ 0x80
20003346:	187b      	adds	r3, r7, r1
20003348:	681b      	ldr	r3, [r3, #0]
2000334a:	643b      	str	r3, [r7, #64]	@ 0x40
2000334c:	2380      	movs	r3, #128	@ 0x80
2000334e:	011b      	lsls	r3, r3, #4
20003350:	63fb      	str	r3, [r7, #60]	@ 0x3c
20003352:	6c3b      	ldr	r3, [r7, #64]	@ 0x40
20003354:	2280      	movs	r2, #128	@ 0x80
20003356:	0192      	lsls	r2, r2, #6
20003358:	4313      	orrs	r3, r2
2000335a:	6bfa      	ldr	r2, [r7, #60]	@ 0x3c
2000335c:	601a      	str	r2, [r3, #0]
2000335e:	46c0      	nop			@ (mov r8, r8)
20003360:	187b      	adds	r3, r7, r1
20003362:	681b      	ldr	r3, [r3, #0]
20003364:	2084      	movs	r0, #132	@ 0x84
20003366:	183a      	adds	r2, r7, r0
20003368:	6812      	ldr	r2, [r2, #0]
2000336a:	605a      	str	r2, [r3, #4]
2000336c:	6abb      	ldr	r3, [r7, #40]	@ 0x28
2000336e:	60bb      	str	r3, [r7, #8]
20003370:	2300      	movs	r3, #0
20003372:	60fb      	str	r3, [r7, #12]
20003374:	68ba      	ldr	r2, [r7, #8]
20003376:	68fb      	ldr	r3, [r7, #12]
20003378:	0011      	movs	r1, r2
2000337a:	0e0d      	lsrs	r5, r1, #24
2000337c:	0013      	movs	r3, r2
2000337e:	021c      	lsls	r4, r3, #8
20003380:	183b      	adds	r3, r7, r0
20003382:	681b      	ldr	r3, [r3, #0]
20003384:	603b      	str	r3, [r7, #0]
20003386:	2300      	movs	r3, #0
20003388:	607b      	str	r3, [r7, #4]
2000338a:	683a      	ldr	r2, [r7, #0]
2000338c:	687b      	ldr	r3, [r7, #4]
2000338e:	0020      	movs	r0, r4
20003390:	0029      	movs	r1, r5
20003392:	f000 fc5d 	bl	20003c50 <__wrap___aeabi_uldivmod>
20003396:	0002      	movs	r2, r0
20003398:	000b      	movs	r3, r1
2000339a:	0010      	movs	r0, r2
2000339c:	0019      	movs	r1, r3
2000339e:	230f      	movs	r3, #15
200033a0:	2228      	movs	r2, #40	@ 0x28
200033a2:	189b      	adds	r3, r3, r2
200033a4:	19db      	adds	r3, r3, r7
200033a6:	781a      	ldrb	r2, [r3, #0]
200033a8:	0001      	movs	r1, r0
200033aa:	4b05      	ldr	r3, [pc, #20]	@ (200033c0 <clock_configure+0x250>)
200033ac:	0092      	lsls	r2, r2, #2
200033ae:	50d1      	str	r1, [r2, r3]
200033b0:	2301      	movs	r3, #1
200033b2:	0018      	movs	r0, r3
200033b4:	46bd      	mov	sp, r7
200033b6:	b023      	add	sp, #140	@ 0x8c
200033b8:	bdf0      	pop	{r4, r5, r6, r7, pc}
200033ba:	46c0      	nop			@ (mov r8, r8)
200033bc:	40008000 	.word	0x40008000
200033c0:	2000b838 	.word	0x2000b838

200033c4 <clocks_init>:
200033c4:	b580      	push	{r7, lr}
200033c6:	b088      	sub	sp, #32
200033c8:	af02      	add	r7, sp, #8
200033ca:	200c      	movs	r0, #12
200033cc:	f000 f948 	bl	20003660 <watchdog_start_tick>
200033d0:	f7fe fbe4 	bl	20001b9c <running_on_fpga>
200033d4:	1e03      	subs	r3, r0, #0
200033d6:	d011      	beq.n	200033fc <clocks_init+0x38>
200033d8:	2300      	movs	r3, #0
200033da:	617b      	str	r3, [r7, #20]
200033dc:	e007      	b.n	200033ee <clocks_init+0x2a>
200033de:	4b3f      	ldr	r3, [pc, #252]	@ (200034dc <clocks_init+0x118>)
200033e0:	697a      	ldr	r2, [r7, #20]
200033e2:	0092      	lsls	r2, r2, #2
200033e4:	493e      	ldr	r1, [pc, #248]	@ (200034e0 <clocks_init+0x11c>)
200033e6:	50d1      	str	r1, [r2, r3]
200033e8:	697b      	ldr	r3, [r7, #20]
200033ea:	3301      	adds	r3, #1
200033ec:	617b      	str	r3, [r7, #20]
200033ee:	697b      	ldr	r3, [r7, #20]
200033f0:	2b09      	cmp	r3, #9
200033f2:	d9f4      	bls.n	200033de <clocks_init+0x1a>
200033f4:	4b39      	ldr	r3, [pc, #228]	@ (200034dc <clocks_init+0x118>)
200033f6:	4a3b      	ldr	r2, [pc, #236]	@ (200034e4 <clocks_init+0x120>)
200033f8:	625a      	str	r2, [r3, #36]	@ 0x24
200033fa:	e06c      	b.n	200034d6 <clocks_init+0x112>
200033fc:	4b3a      	ldr	r3, [pc, #232]	@ (200034e8 <clocks_init+0x124>)
200033fe:	2200      	movs	r2, #0
20003400:	679a      	str	r2, [r3, #120]	@ 0x78
20003402:	f000 f9ff 	bl	20003804 <xosc_init>
20003406:	4b39      	ldr	r3, [pc, #228]	@ (200034ec <clocks_init+0x128>)
20003408:	613b      	str	r3, [r7, #16]
2000340a:	2301      	movs	r3, #1
2000340c:	60fb      	str	r3, [r7, #12]
2000340e:	693b      	ldr	r3, [r7, #16]
20003410:	22c0      	movs	r2, #192	@ 0xc0
20003412:	0192      	lsls	r2, r2, #6
20003414:	4313      	orrs	r3, r2
20003416:	68fa      	ldr	r2, [r7, #12]
20003418:	601a      	str	r2, [r3, #0]
2000341a:	46c0      	nop			@ (mov r8, r8)
2000341c:	e000      	b.n	20003420 <clocks_init+0x5c>
2000341e:	46c0      	nop			@ (mov r8, r8)
20003420:	4b31      	ldr	r3, [pc, #196]	@ (200034e8 <clocks_init+0x124>)
20003422:	6c5b      	ldr	r3, [r3, #68]	@ 0x44
20003424:	2b01      	cmp	r3, #1
20003426:	d1fa      	bne.n	2000341e <clocks_init+0x5a>
20003428:	4b31      	ldr	r3, [pc, #196]	@ (200034f0 <clocks_init+0x12c>)
2000342a:	60bb      	str	r3, [r7, #8]
2000342c:	2303      	movs	r3, #3
2000342e:	607b      	str	r3, [r7, #4]
20003430:	68bb      	ldr	r3, [r7, #8]
20003432:	22c0      	movs	r2, #192	@ 0xc0
20003434:	0192      	lsls	r2, r2, #6
20003436:	4313      	orrs	r3, r2
20003438:	687a      	ldr	r2, [r7, #4]
2000343a:	601a      	str	r2, [r3, #0]
2000343c:	46c0      	nop			@ (mov r8, r8)
2000343e:	e000      	b.n	20003442 <clocks_init+0x7e>
20003440:	46c0      	nop			@ (mov r8, r8)
20003442:	4b29      	ldr	r3, [pc, #164]	@ (200034e8 <clocks_init+0x124>)
20003444:	6b9b      	ldr	r3, [r3, #56]	@ 0x38
20003446:	2b01      	cmp	r3, #1
20003448:	d1fa      	bne.n	20003440 <clocks_init+0x7c>
2000344a:	4a2a      	ldr	r2, [pc, #168]	@ (200034f4 <clocks_init+0x130>)
2000344c:	482a      	ldr	r0, [pc, #168]	@ (200034f8 <clocks_init+0x134>)
2000344e:	2302      	movs	r3, #2
20003450:	9300      	str	r3, [sp, #0]
20003452:	2306      	movs	r3, #6
20003454:	2101      	movs	r1, #1
20003456:	f000 f88d 	bl	20003574 <pll_init>
2000345a:	4a28      	ldr	r2, [pc, #160]	@ (200034fc <clocks_init+0x138>)
2000345c:	4828      	ldr	r0, [pc, #160]	@ (20003500 <clocks_init+0x13c>)
2000345e:	2305      	movs	r3, #5
20003460:	9300      	str	r3, [sp, #0]
20003462:	2305      	movs	r3, #5
20003464:	2101      	movs	r1, #1
20003466:	f000 f885 	bl	20003574 <pll_init>
2000346a:	4a26      	ldr	r2, [pc, #152]	@ (20003504 <clocks_init+0x140>)
2000346c:	4b25      	ldr	r3, [pc, #148]	@ (20003504 <clocks_init+0x140>)
2000346e:	9300      	str	r3, [sp, #0]
20003470:	0013      	movs	r3, r2
20003472:	2200      	movs	r2, #0
20003474:	2102      	movs	r1, #2
20003476:	2004      	movs	r0, #4
20003478:	f7ff fe7a 	bl	20003170 <clock_configure>
2000347c:	4a22      	ldr	r2, [pc, #136]	@ (20003508 <clocks_init+0x144>)
2000347e:	4b22      	ldr	r3, [pc, #136]	@ (20003508 <clocks_init+0x144>)
20003480:	9300      	str	r3, [sp, #0]
20003482:	0013      	movs	r3, r2
20003484:	2200      	movs	r2, #0
20003486:	2101      	movs	r1, #1
20003488:	2005      	movs	r0, #5
2000348a:	f7ff fe71 	bl	20003170 <clock_configure>
2000348e:	4a14      	ldr	r2, [pc, #80]	@ (200034e0 <clocks_init+0x11c>)
20003490:	4b13      	ldr	r3, [pc, #76]	@ (200034e0 <clocks_init+0x11c>)
20003492:	9300      	str	r3, [sp, #0]
20003494:	0013      	movs	r3, r2
20003496:	2200      	movs	r2, #0
20003498:	2100      	movs	r1, #0
2000349a:	2007      	movs	r0, #7
2000349c:	f7ff fe68 	bl	20003170 <clock_configure>
200034a0:	4a0f      	ldr	r2, [pc, #60]	@ (200034e0 <clocks_init+0x11c>)
200034a2:	4b0f      	ldr	r3, [pc, #60]	@ (200034e0 <clocks_init+0x11c>)
200034a4:	9300      	str	r3, [sp, #0]
200034a6:	0013      	movs	r3, r2
200034a8:	2200      	movs	r2, #0
200034aa:	2100      	movs	r1, #0
200034ac:	2008      	movs	r0, #8
200034ae:	f7ff fe5f 	bl	20003170 <clock_configure>
200034b2:	4a0b      	ldr	r2, [pc, #44]	@ (200034e0 <clocks_init+0x11c>)
200034b4:	4b0b      	ldr	r3, [pc, #44]	@ (200034e4 <clocks_init+0x120>)
200034b6:	9300      	str	r3, [sp, #0]
200034b8:	0013      	movs	r3, r2
200034ba:	2200      	movs	r2, #0
200034bc:	2100      	movs	r1, #0
200034be:	2009      	movs	r0, #9
200034c0:	f7ff fe56 	bl	20003170 <clock_configure>
200034c4:	4a10      	ldr	r2, [pc, #64]	@ (20003508 <clocks_init+0x144>)
200034c6:	4b10      	ldr	r3, [pc, #64]	@ (20003508 <clocks_init+0x144>)
200034c8:	9300      	str	r3, [sp, #0]
200034ca:	0013      	movs	r3, r2
200034cc:	2200      	movs	r2, #0
200034ce:	2100      	movs	r1, #0
200034d0:	2006      	movs	r0, #6
200034d2:	f7ff fe4d 	bl	20003170 <clock_configure>
200034d6:	46bd      	mov	sp, r7
200034d8:	b006      	add	sp, #24
200034da:	bd80      	pop	{r7, pc}
200034dc:	2000b838 	.word	0x2000b838
200034e0:	02dc6c00 	.word	0x02dc6c00
200034e4:	0000b71b 	.word	0x0000b71b
200034e8:	40008000 	.word	0x40008000
200034ec:	4000803c 	.word	0x4000803c
200034f0:	40008030 	.word	0x40008030
200034f4:	59682f00 	.word	0x59682f00
200034f8:	40028000 	.word	0x40028000
200034fc:	47868c00 	.word	0x47868c00
20003500:	4002c000 	.word	0x4002c000
20003504:	00b71b00 	.word	0x00b71b00
20003508:	07735940 	.word	0x07735940

2000350c <reset_block>:
2000350c:	b580      	push	{r7, lr}
2000350e:	b084      	sub	sp, #16
20003510:	af00      	add	r7, sp, #0
20003512:	6078      	str	r0, [r7, #4]
20003514:	4b07      	ldr	r3, [pc, #28]	@ (20003534 <reset_block+0x28>)
20003516:	60fb      	str	r3, [r7, #12]
20003518:	687b      	ldr	r3, [r7, #4]
2000351a:	60bb      	str	r3, [r7, #8]
2000351c:	68fb      	ldr	r3, [r7, #12]
2000351e:	2280      	movs	r2, #128	@ 0x80
20003520:	0192      	lsls	r2, r2, #6
20003522:	4313      	orrs	r3, r2
20003524:	68ba      	ldr	r2, [r7, #8]
20003526:	601a      	str	r2, [r3, #0]
20003528:	46c0      	nop			@ (mov r8, r8)
2000352a:	46c0      	nop			@ (mov r8, r8)
2000352c:	46bd      	mov	sp, r7
2000352e:	b004      	add	sp, #16
20003530:	bd80      	pop	{r7, pc}
20003532:	46c0      	nop			@ (mov r8, r8)
20003534:	4000c000 	.word	0x4000c000

20003538 <unreset_block_wait>:
20003538:	b580      	push	{r7, lr}
2000353a:	b084      	sub	sp, #16
2000353c:	af00      	add	r7, sp, #0
2000353e:	6078      	str	r0, [r7, #4]
20003540:	4b0b      	ldr	r3, [pc, #44]	@ (20003570 <unreset_block_wait+0x38>)
20003542:	60fb      	str	r3, [r7, #12]
20003544:	687b      	ldr	r3, [r7, #4]
20003546:	60bb      	str	r3, [r7, #8]
20003548:	68fb      	ldr	r3, [r7, #12]
2000354a:	22c0      	movs	r2, #192	@ 0xc0
2000354c:	0192      	lsls	r2, r2, #6
2000354e:	4313      	orrs	r3, r2
20003550:	68ba      	ldr	r2, [r7, #8]
20003552:	601a      	str	r2, [r3, #0]
20003554:	46c0      	nop			@ (mov r8, r8)
20003556:	e000      	b.n	2000355a <unreset_block_wait+0x22>
20003558:	46c0      	nop			@ (mov r8, r8)
2000355a:	4b05      	ldr	r3, [pc, #20]	@ (20003570 <unreset_block_wait+0x38>)
2000355c:	689b      	ldr	r3, [r3, #8]
2000355e:	43db      	mvns	r3, r3
20003560:	687a      	ldr	r2, [r7, #4]
20003562:	4013      	ands	r3, r2
20003564:	d1f8      	bne.n	20003558 <unreset_block_wait+0x20>
20003566:	46c0      	nop			@ (mov r8, r8)
20003568:	46c0      	nop			@ (mov r8, r8)
2000356a:	46bd      	mov	sp, r7
2000356c:	b004      	add	sp, #16
2000356e:	bd80      	pop	{r7, pc}
20003570:	4000c000 	.word	0x4000c000

20003574 <pll_init>:
20003574:	b580      	push	{r7, lr}
20003576:	b08e      	sub	sp, #56	@ 0x38
20003578:	af00      	add	r7, sp, #0
2000357a:	60f8      	str	r0, [r7, #12]
2000357c:	60b9      	str	r1, [r7, #8]
2000357e:	607a      	str	r2, [r7, #4]
20003580:	603b      	str	r3, [r7, #0]
20003582:	68b9      	ldr	r1, [r7, #8]
20003584:	4834      	ldr	r0, [pc, #208]	@ (20003658 <pll_init+0xe4>)
20003586:	f000 fb25 	bl	20003bd4 <__wrap___aeabi_uidiv>
2000358a:	0003      	movs	r3, r0
2000358c:	637b      	str	r3, [r7, #52]	@ 0x34
2000358e:	6b79      	ldr	r1, [r7, #52]	@ 0x34
20003590:	6878      	ldr	r0, [r7, #4]
20003592:	f000 fb1f 	bl	20003bd4 <__wrap___aeabi_uidiv>
20003596:	0003      	movs	r3, r0
20003598:	633b      	str	r3, [r7, #48]	@ 0x30
2000359a:	683b      	ldr	r3, [r7, #0]
2000359c:	041a      	lsls	r2, r3, #16
2000359e:	6c3b      	ldr	r3, [r7, #64]	@ 0x40
200035a0:	031b      	lsls	r3, r3, #12
200035a2:	4313      	orrs	r3, r2
200035a4:	62fb      	str	r3, [r7, #44]	@ 0x2c
200035a6:	68fb      	ldr	r3, [r7, #12]
200035a8:	681b      	ldr	r3, [r3, #0]
200035aa:	2b00      	cmp	r3, #0
200035ac:	da15      	bge.n	200035da <pll_init+0x66>
200035ae:	68fb      	ldr	r3, [r7, #12]
200035b0:	681b      	ldr	r3, [r3, #0]
200035b2:	223f      	movs	r2, #63	@ 0x3f
200035b4:	4013      	ands	r3, r2
200035b6:	68ba      	ldr	r2, [r7, #8]
200035b8:	429a      	cmp	r2, r3
200035ba:	d10e      	bne.n	200035da <pll_init+0x66>
200035bc:	68fb      	ldr	r3, [r7, #12]
200035be:	689b      	ldr	r3, [r3, #8]
200035c0:	051b      	lsls	r3, r3, #20
200035c2:	0d1b      	lsrs	r3, r3, #20
200035c4:	6b3a      	ldr	r2, [r7, #48]	@ 0x30
200035c6:	429a      	cmp	r2, r3
200035c8:	d107      	bne.n	200035da <pll_init+0x66>
200035ca:	68fb      	ldr	r3, [r7, #12]
200035cc:	68da      	ldr	r2, [r3, #12]
200035ce:	23ee      	movs	r3, #238	@ 0xee
200035d0:	02db      	lsls	r3, r3, #11
200035d2:	4013      	ands	r3, r2
200035d4:	6afa      	ldr	r2, [r7, #44]	@ 0x2c
200035d6:	429a      	cmp	r2, r3
200035d8:	d03a      	beq.n	20003650 <pll_init+0xdc>
200035da:	68fb      	ldr	r3, [r7, #12]
200035dc:	4a1f      	ldr	r2, [pc, #124]	@ (2000365c <pll_init+0xe8>)
200035de:	4293      	cmp	r3, r2
200035e0:	d102      	bne.n	200035e8 <pll_init+0x74>
200035e2:	2380      	movs	r3, #128	@ 0x80
200035e4:	019b      	lsls	r3, r3, #6
200035e6:	e001      	b.n	200035ec <pll_init+0x78>
200035e8:	2380      	movs	r3, #128	@ 0x80
200035ea:	015b      	lsls	r3, r3, #5
200035ec:	62bb      	str	r3, [r7, #40]	@ 0x28
200035ee:	6abb      	ldr	r3, [r7, #40]	@ 0x28
200035f0:	0018      	movs	r0, r3
200035f2:	f7ff ff8b 	bl	2000350c <reset_block>
200035f6:	6abb      	ldr	r3, [r7, #40]	@ 0x28
200035f8:	0018      	movs	r0, r3
200035fa:	f7ff ff9d 	bl	20003538 <unreset_block_wait>
200035fe:	68fb      	ldr	r3, [r7, #12]
20003600:	68ba      	ldr	r2, [r7, #8]
20003602:	601a      	str	r2, [r3, #0]
20003604:	68fb      	ldr	r3, [r7, #12]
20003606:	6b3a      	ldr	r2, [r7, #48]	@ 0x30
20003608:	609a      	str	r2, [r3, #8]
2000360a:	2321      	movs	r3, #33	@ 0x21
2000360c:	627b      	str	r3, [r7, #36]	@ 0x24
2000360e:	68fb      	ldr	r3, [r7, #12]
20003610:	3304      	adds	r3, #4
20003612:	623b      	str	r3, [r7, #32]
20003614:	6a7b      	ldr	r3, [r7, #36]	@ 0x24
20003616:	61fb      	str	r3, [r7, #28]
20003618:	6a3b      	ldr	r3, [r7, #32]
2000361a:	22c0      	movs	r2, #192	@ 0xc0
2000361c:	0192      	lsls	r2, r2, #6
2000361e:	4313      	orrs	r3, r2
20003620:	69fa      	ldr	r2, [r7, #28]
20003622:	601a      	str	r2, [r3, #0]
20003624:	46c0      	nop			@ (mov r8, r8)
20003626:	e000      	b.n	2000362a <pll_init+0xb6>
20003628:	46c0      	nop			@ (mov r8, r8)
2000362a:	68fb      	ldr	r3, [r7, #12]
2000362c:	681b      	ldr	r3, [r3, #0]
2000362e:	2b00      	cmp	r3, #0
20003630:	dafa      	bge.n	20003628 <pll_init+0xb4>
20003632:	68fb      	ldr	r3, [r7, #12]
20003634:	6afa      	ldr	r2, [r7, #44]	@ 0x2c
20003636:	60da      	str	r2, [r3, #12]
20003638:	68fb      	ldr	r3, [r7, #12]
2000363a:	3304      	adds	r3, #4
2000363c:	61bb      	str	r3, [r7, #24]
2000363e:	2308      	movs	r3, #8
20003640:	617b      	str	r3, [r7, #20]
20003642:	69bb      	ldr	r3, [r7, #24]
20003644:	22c0      	movs	r2, #192	@ 0xc0
20003646:	0192      	lsls	r2, r2, #6
20003648:	4313      	orrs	r3, r2
2000364a:	697a      	ldr	r2, [r7, #20]
2000364c:	601a      	str	r2, [r3, #0]
2000364e:	e000      	b.n	20003652 <pll_init+0xde>
20003650:	46c0      	nop			@ (mov r8, r8)
20003652:	46bd      	mov	sp, r7
20003654:	b00e      	add	sp, #56	@ 0x38
20003656:	bd80      	pop	{r7, pc}
20003658:	00b71b00 	.word	0x00b71b00
2000365c:	4002c000 	.word	0x4002c000

20003660 <watchdog_start_tick>:
20003660:	b580      	push	{r7, lr}
20003662:	b082      	sub	sp, #8
20003664:	af00      	add	r7, sp, #0
20003666:	6078      	str	r0, [r7, #4]
20003668:	4b04      	ldr	r3, [pc, #16]	@ (2000367c <watchdog_start_tick+0x1c>)
2000366a:	687a      	ldr	r2, [r7, #4]
2000366c:	2180      	movs	r1, #128	@ 0x80
2000366e:	0089      	lsls	r1, r1, #2
20003670:	430a      	orrs	r2, r1
20003672:	62da      	str	r2, [r3, #44]	@ 0x2c
20003674:	46c0      	nop			@ (mov r8, r8)
20003676:	46bd      	mov	sp, r7
20003678:	b002      	add	sp, #8
2000367a:	bd80      	pop	{r7, pc}
2000367c:	40058000 	.word	0x40058000

20003680 <watchdog_update>:
20003680:	b580      	push	{r7, lr}
20003682:	af00      	add	r7, sp, #0
20003684:	4a03      	ldr	r2, [pc, #12]	@ (20003694 <watchdog_update+0x14>)
20003686:	4b04      	ldr	r3, [pc, #16]	@ (20003698 <watchdog_update+0x18>)
20003688:	681b      	ldr	r3, [r3, #0]
2000368a:	6053      	str	r3, [r2, #4]
2000368c:	46c0      	nop			@ (mov r8, r8)
2000368e:	46bd      	mov	sp, r7
20003690:	bd80      	pop	{r7, pc}
20003692:	46c0      	nop			@ (mov r8, r8)
20003694:	40058000 	.word	0x40058000
20003698:	2000bcd8 	.word	0x2000bcd8

2000369c <_watchdog_enable>:
2000369c:	b580      	push	{r7, lr}
2000369e:	b090      	sub	sp, #64	@ 0x40
200036a0:	af00      	add	r7, sp, #0
200036a2:	6078      	str	r0, [r7, #4]
200036a4:	000a      	movs	r2, r1
200036a6:	1cfb      	adds	r3, r7, #3
200036a8:	701a      	strb	r2, [r3, #0]
200036aa:	4b34      	ldr	r3, [pc, #208]	@ (2000377c <_watchdog_enable+0xe0>)
200036ac:	633b      	str	r3, [r7, #48]	@ 0x30
200036ae:	2380      	movs	r3, #128	@ 0x80
200036b0:	05db      	lsls	r3, r3, #23
200036b2:	62fb      	str	r3, [r7, #44]	@ 0x2c
200036b4:	6b3b      	ldr	r3, [r7, #48]	@ 0x30
200036b6:	22c0      	movs	r2, #192	@ 0xc0
200036b8:	0192      	lsls	r2, r2, #6
200036ba:	4313      	orrs	r3, r2
200036bc:	6afa      	ldr	r2, [r7, #44]	@ 0x2c
200036be:	601a      	str	r2, [r3, #0]
200036c0:	46c0      	nop			@ (mov r8, r8)
200036c2:	4b2f      	ldr	r3, [pc, #188]	@ (20003780 <_watchdog_enable+0xe4>)
200036c4:	63bb      	str	r3, [r7, #56]	@ 0x38
200036c6:	4b2f      	ldr	r3, [pc, #188]	@ (20003784 <_watchdog_enable+0xe8>)
200036c8:	637b      	str	r3, [r7, #52]	@ 0x34
200036ca:	6bbb      	ldr	r3, [r7, #56]	@ 0x38
200036cc:	2280      	movs	r2, #128	@ 0x80
200036ce:	0192      	lsls	r2, r2, #6
200036d0:	4313      	orrs	r3, r2
200036d2:	6b7a      	ldr	r2, [r7, #52]	@ 0x34
200036d4:	601a      	str	r2, [r3, #0]
200036d6:	46c0      	nop			@ (mov r8, r8)
200036d8:	23e0      	movs	r3, #224	@ 0xe0
200036da:	04db      	lsls	r3, r3, #19
200036dc:	63fb      	str	r3, [r7, #60]	@ 0x3c
200036de:	1cfb      	adds	r3, r7, #3
200036e0:	781b      	ldrb	r3, [r3, #0]
200036e2:	2b00      	cmp	r3, #0
200036e4:	d00a      	beq.n	200036fc <_watchdog_enable+0x60>
200036e6:	4b25      	ldr	r3, [pc, #148]	@ (2000377c <_watchdog_enable+0xe0>)
200036e8:	62bb      	str	r3, [r7, #40]	@ 0x28
200036ea:	6bfb      	ldr	r3, [r7, #60]	@ 0x3c
200036ec:	627b      	str	r3, [r7, #36]	@ 0x24
200036ee:	6abb      	ldr	r3, [r7, #40]	@ 0x28
200036f0:	2280      	movs	r2, #128	@ 0x80
200036f2:	0192      	lsls	r2, r2, #6
200036f4:	4313      	orrs	r3, r2
200036f6:	6a7a      	ldr	r2, [r7, #36]	@ 0x24
200036f8:	601a      	str	r2, [r3, #0]
200036fa:	e00a      	b.n	20003712 <_watchdog_enable+0x76>
200036fc:	4b1f      	ldr	r3, [pc, #124]	@ (2000377c <_watchdog_enable+0xe0>)
200036fe:	623b      	str	r3, [r7, #32]
20003700:	6bfb      	ldr	r3, [r7, #60]	@ 0x3c
20003702:	61fb      	str	r3, [r7, #28]
20003704:	6a3b      	ldr	r3, [r7, #32]
20003706:	22c0      	movs	r2, #192	@ 0xc0
20003708:	0192      	lsls	r2, r2, #6
2000370a:	4313      	orrs	r3, r2
2000370c:	69fa      	ldr	r2, [r7, #28]
2000370e:	601a      	str	r2, [r3, #0]
20003710:	46c0      	nop			@ (mov r8, r8)
20003712:	687b      	ldr	r3, [r7, #4]
20003714:	2b00      	cmp	r3, #0
20003716:	d10b      	bne.n	20003730 <_watchdog_enable+0x94>
20003718:	4b18      	ldr	r3, [pc, #96]	@ (2000377c <_watchdog_enable+0xe0>)
2000371a:	61bb      	str	r3, [r7, #24]
2000371c:	2380      	movs	r3, #128	@ 0x80
2000371e:	061b      	lsls	r3, r3, #24
20003720:	617b      	str	r3, [r7, #20]
20003722:	69bb      	ldr	r3, [r7, #24]
20003724:	2280      	movs	r2, #128	@ 0x80
20003726:	0192      	lsls	r2, r2, #6
20003728:	4313      	orrs	r3, r2
2000372a:	697a      	ldr	r2, [r7, #20]
2000372c:	601a      	str	r2, [r3, #0]
2000372e:	e020      	b.n	20003772 <_watchdog_enable+0xd6>
20003730:	687a      	ldr	r2, [r7, #4]
20003732:	0013      	movs	r3, r2
20003734:	015b      	lsls	r3, r3, #5
20003736:	1a9b      	subs	r3, r3, r2
20003738:	009b      	lsls	r3, r3, #2
2000373a:	189b      	adds	r3, r3, r2
2000373c:	011b      	lsls	r3, r3, #4
2000373e:	001a      	movs	r2, r3
20003740:	4b11      	ldr	r3, [pc, #68]	@ (20003788 <_watchdog_enable+0xec>)
20003742:	601a      	str	r2, [r3, #0]
20003744:	4b10      	ldr	r3, [pc, #64]	@ (20003788 <_watchdog_enable+0xec>)
20003746:	681a      	ldr	r2, [r3, #0]
20003748:	2380      	movs	r3, #128	@ 0x80
2000374a:	045b      	lsls	r3, r3, #17
2000374c:	429a      	cmp	r2, r3
2000374e:	d302      	bcc.n	20003756 <_watchdog_enable+0xba>
20003750:	4b0d      	ldr	r3, [pc, #52]	@ (20003788 <_watchdog_enable+0xec>)
20003752:	4a0e      	ldr	r2, [pc, #56]	@ (2000378c <_watchdog_enable+0xf0>)
20003754:	601a      	str	r2, [r3, #0]
20003756:	f7ff ff93 	bl	20003680 <watchdog_update>
2000375a:	4b08      	ldr	r3, [pc, #32]	@ (2000377c <_watchdog_enable+0xe0>)
2000375c:	613b      	str	r3, [r7, #16]
2000375e:	2380      	movs	r3, #128	@ 0x80
20003760:	05db      	lsls	r3, r3, #23
20003762:	60fb      	str	r3, [r7, #12]
20003764:	693b      	ldr	r3, [r7, #16]
20003766:	2280      	movs	r2, #128	@ 0x80
20003768:	0192      	lsls	r2, r2, #6
2000376a:	4313      	orrs	r3, r2
2000376c:	68fa      	ldr	r2, [r7, #12]
2000376e:	601a      	str	r2, [r3, #0]
20003770:	46c0      	nop			@ (mov r8, r8)
20003772:	46c0      	nop			@ (mov r8, r8)
20003774:	46bd      	mov	sp, r7
20003776:	b010      	add	sp, #64	@ 0x40
20003778:	bd80      	pop	{r7, pc}
2000377a:	46c0      	nop			@ (mov r8, r8)
2000377c:	40058000 	.word	0x40058000
20003780:	40010008 	.word	0x40010008
20003784:	0001fffc 	.word	0x0001fffc
20003788:	2000bcd8 	.word	0x2000bcd8
2000378c:	00ffffff 	.word	0x00ffffff

20003790 <watchdog_reboot>:
20003790:	b580      	push	{r7, lr}
20003792:	b086      	sub	sp, #24
20003794:	af00      	add	r7, sp, #0
20003796:	60f8      	str	r0, [r7, #12]
20003798:	60b9      	str	r1, [r7, #8]
2000379a:	607a      	str	r2, [r7, #4]
2000379c:	4b16      	ldr	r3, [pc, #88]	@ (200037f8 <watchdog_reboot+0x68>)
2000379e:	617b      	str	r3, [r7, #20]
200037a0:	2380      	movs	r3, #128	@ 0x80
200037a2:	05db      	lsls	r3, r3, #23
200037a4:	613b      	str	r3, [r7, #16]
200037a6:	697b      	ldr	r3, [r7, #20]
200037a8:	22c0      	movs	r2, #192	@ 0xc0
200037aa:	0192      	lsls	r2, r2, #6
200037ac:	4313      	orrs	r3, r2
200037ae:	693a      	ldr	r2, [r7, #16]
200037b0:	601a      	str	r2, [r3, #0]
200037b2:	46c0      	nop			@ (mov r8, r8)
200037b4:	68fb      	ldr	r3, [r7, #12]
200037b6:	2b00      	cmp	r3, #0
200037b8:	d012      	beq.n	200037e0 <watchdog_reboot+0x50>
200037ba:	68fb      	ldr	r3, [r7, #12]
200037bc:	2201      	movs	r2, #1
200037be:	4313      	orrs	r3, r2
200037c0:	60fb      	str	r3, [r7, #12]
200037c2:	4b0d      	ldr	r3, [pc, #52]	@ (200037f8 <watchdog_reboot+0x68>)
200037c4:	4a0d      	ldr	r2, [pc, #52]	@ (200037fc <watchdog_reboot+0x6c>)
200037c6:	61da      	str	r2, [r3, #28]
200037c8:	4b0b      	ldr	r3, [pc, #44]	@ (200037f8 <watchdog_reboot+0x68>)
200037ca:	68fa      	ldr	r2, [r7, #12]
200037cc:	490c      	ldr	r1, [pc, #48]	@ (20003800 <watchdog_reboot+0x70>)
200037ce:	404a      	eors	r2, r1
200037d0:	621a      	str	r2, [r3, #32]
200037d2:	4b09      	ldr	r3, [pc, #36]	@ (200037f8 <watchdog_reboot+0x68>)
200037d4:	68ba      	ldr	r2, [r7, #8]
200037d6:	625a      	str	r2, [r3, #36]	@ 0x24
200037d8:	4b07      	ldr	r3, [pc, #28]	@ (200037f8 <watchdog_reboot+0x68>)
200037da:	68fa      	ldr	r2, [r7, #12]
200037dc:	629a      	str	r2, [r3, #40]	@ 0x28
200037de:	e002      	b.n	200037e6 <watchdog_reboot+0x56>
200037e0:	4b05      	ldr	r3, [pc, #20]	@ (200037f8 <watchdog_reboot+0x68>)
200037e2:	2200      	movs	r2, #0
200037e4:	61da      	str	r2, [r3, #28]
200037e6:	687b      	ldr	r3, [r7, #4]
200037e8:	2100      	movs	r1, #0
200037ea:	0018      	movs	r0, r3
200037ec:	f7ff ff56 	bl	2000369c <_watchdog_enable>
200037f0:	46c0      	nop			@ (mov r8, r8)
200037f2:	46bd      	mov	sp, r7
200037f4:	b006      	add	sp, #24
200037f6:	bd80      	pop	{r7, pc}
200037f8:	40058000 	.word	0x40058000
200037fc:	b007c0d3 	.word	0xb007c0d3
20003800:	4ff83f2d 	.word	0x4ff83f2d

20003804 <xosc_init>:
20003804:	b580      	push	{r7, lr}
20003806:	b082      	sub	sp, #8
20003808:	af00      	add	r7, sp, #0
2000380a:	4b0e      	ldr	r3, [pc, #56]	@ (20003844 <xosc_init+0x40>)
2000380c:	22aa      	movs	r2, #170	@ 0xaa
2000380e:	0112      	lsls	r2, r2, #4
20003810:	601a      	str	r2, [r3, #0]
20003812:	4b0c      	ldr	r3, [pc, #48]	@ (20003844 <xosc_init+0x40>)
20003814:	222f      	movs	r2, #47	@ 0x2f
20003816:	60da      	str	r2, [r3, #12]
20003818:	4b0a      	ldr	r3, [pc, #40]	@ (20003844 <xosc_init+0x40>)
2000381a:	607b      	str	r3, [r7, #4]
2000381c:	4b0a      	ldr	r3, [pc, #40]	@ (20003848 <xosc_init+0x44>)
2000381e:	603b      	str	r3, [r7, #0]
20003820:	687b      	ldr	r3, [r7, #4]
20003822:	2280      	movs	r2, #128	@ 0x80
20003824:	0192      	lsls	r2, r2, #6
20003826:	4313      	orrs	r3, r2
20003828:	683a      	ldr	r2, [r7, #0]
2000382a:	601a      	str	r2, [r3, #0]
2000382c:	46c0      	nop			@ (mov r8, r8)
2000382e:	46c0      	nop			@ (mov r8, r8)
20003830:	4b04      	ldr	r3, [pc, #16]	@ (20003844 <xosc_init+0x40>)
20003832:	685b      	ldr	r3, [r3, #4]
20003834:	2b00      	cmp	r3, #0
20003836:	dafb      	bge.n	20003830 <xosc_init+0x2c>
20003838:	46c0      	nop			@ (mov r8, r8)
2000383a:	46c0      	nop			@ (mov r8, r8)
2000383c:	46bd      	mov	sp, r7
2000383e:	b002      	add	sp, #8
20003840:	bd80      	pop	{r7, pc}
20003842:	46c0      	nop			@ (mov r8, r8)
20003844:	40024000 	.word	0x40024000
20003848:	00fab000 	.word	0x00fab000

2000384c <__breakpoint>:
2000384c:	b580      	push	{r7, lr}
2000384e:	af00      	add	r7, sp, #0
20003850:	be00      	bkpt	0x0000
20003852:	46c0      	nop			@ (mov r8, r8)
20003854:	46bd      	mov	sp, r7
20003856:	bd80      	pop	{r7, pc}

20003858 <reset_block>:
20003858:	b580      	push	{r7, lr}
2000385a:	b084      	sub	sp, #16
2000385c:	af00      	add	r7, sp, #0
2000385e:	6078      	str	r0, [r7, #4]
20003860:	4b07      	ldr	r3, [pc, #28]	@ (20003880 <reset_block+0x28>)
20003862:	60fb      	str	r3, [r7, #12]
20003864:	687b      	ldr	r3, [r7, #4]
20003866:	60bb      	str	r3, [r7, #8]
20003868:	68fb      	ldr	r3, [r7, #12]
2000386a:	2280      	movs	r2, #128	@ 0x80
2000386c:	0192      	lsls	r2, r2, #6
2000386e:	4313      	orrs	r3, r2
20003870:	68ba      	ldr	r2, [r7, #8]
20003872:	601a      	str	r2, [r3, #0]
20003874:	46c0      	nop			@ (mov r8, r8)
20003876:	46c0      	nop			@ (mov r8, r8)
20003878:	46bd      	mov	sp, r7
2000387a:	b004      	add	sp, #16
2000387c:	bd80      	pop	{r7, pc}
2000387e:	46c0      	nop			@ (mov r8, r8)
20003880:	4000c000 	.word	0x4000c000

20003884 <unreset_block_wait>:
20003884:	b580      	push	{r7, lr}
20003886:	b084      	sub	sp, #16
20003888:	af00      	add	r7, sp, #0
2000388a:	6078      	str	r0, [r7, #4]
2000388c:	4b0b      	ldr	r3, [pc, #44]	@ (200038bc <unreset_block_wait+0x38>)
2000388e:	60fb      	str	r3, [r7, #12]
20003890:	687b      	ldr	r3, [r7, #4]
20003892:	60bb      	str	r3, [r7, #8]
20003894:	68fb      	ldr	r3, [r7, #12]
20003896:	22c0      	movs	r2, #192	@ 0xc0
20003898:	0192      	lsls	r2, r2, #6
2000389a:	4313      	orrs	r3, r2
2000389c:	68ba      	ldr	r2, [r7, #8]
2000389e:	601a      	str	r2, [r3, #0]
200038a0:	46c0      	nop			@ (mov r8, r8)
200038a2:	e000      	b.n	200038a6 <unreset_block_wait+0x22>
200038a4:	46c0      	nop			@ (mov r8, r8)
200038a6:	4b05      	ldr	r3, [pc, #20]	@ (200038bc <unreset_block_wait+0x38>)
200038a8:	689b      	ldr	r3, [r3, #8]
200038aa:	43db      	mvns	r3, r3
200038ac:	687a      	ldr	r2, [r7, #4]
200038ae:	4013      	ands	r3, r2
200038b0:	d1f8      	bne.n	200038a4 <unreset_block_wait+0x20>
200038b2:	46c0      	nop			@ (mov r8, r8)
200038b4:	46c0      	nop			@ (mov r8, r8)
200038b6:	46bd      	mov	sp, r7
200038b8:	b004      	add	sp, #16
200038ba:	bd80      	pop	{r7, pc}
200038bc:	4000c000 	.word	0x4000c000

200038c0 <runtime_init>:
200038c0:	b580      	push	{r7, lr}
200038c2:	b086      	sub	sp, #24
200038c4:	af00      	add	r7, sp, #0
200038c6:	4b34      	ldr	r3, [pc, #208]	@ (20003998 <runtime_init+0xd8>)
200038c8:	0018      	movs	r0, r3
200038ca:	f7ff ffc5 	bl	20003858 <reset_block>
200038ce:	4b33      	ldr	r3, [pc, #204]	@ (2000399c <runtime_init+0xdc>)
200038d0:	0018      	movs	r0, r3
200038d2:	f7ff ffd7 	bl	20003884 <unreset_block_wait>
200038d6:	4b32      	ldr	r3, [pc, #200]	@ (200039a0 <runtime_init+0xe0>)
200038d8:	617b      	str	r3, [r7, #20]
200038da:	e005      	b.n	200038e8 <runtime_init+0x28>
200038dc:	697b      	ldr	r3, [r7, #20]
200038de:	681b      	ldr	r3, [r3, #0]
200038e0:	4798      	blx	r3
200038e2:	697b      	ldr	r3, [r7, #20]
200038e4:	3304      	adds	r3, #4
200038e6:	617b      	str	r3, [r7, #20]
200038e8:	697a      	ldr	r2, [r7, #20]
200038ea:	4b2e      	ldr	r3, [pc, #184]	@ (200039a4 <runtime_init+0xe4>)
200038ec:	429a      	cmp	r2, r3
200038ee:	d3f5      	bcc.n	200038dc <runtime_init+0x1c>
200038f0:	f7ff fd68 	bl	200033c4 <clocks_init>
200038f4:	4b2c      	ldr	r3, [pc, #176]	@ (200039a8 <runtime_init+0xe8>)
200038f6:	0018      	movs	r0, r3
200038f8:	f7ff ffc4 	bl	20003884 <unreset_block_wait>
200038fc:	4b2b      	ldr	r3, [pc, #172]	@ (200039ac <runtime_init+0xec>)
200038fe:	60bb      	str	r3, [r7, #8]
20003900:	2340      	movs	r3, #64	@ 0x40
20003902:	68ba      	ldr	r2, [r7, #8]
20003904:	6793      	str	r3, [r2, #120]	@ 0x78
20003906:	68ba      	ldr	r2, [r7, #8]
20003908:	6753      	str	r3, [r2, #116]	@ 0x74
2000390a:	68ba      	ldr	r2, [r7, #8]
2000390c:	6713      	str	r3, [r2, #112]	@ 0x70
2000390e:	68ba      	ldr	r2, [r7, #8]
20003910:	66d3      	str	r3, [r2, #108]	@ 0x6c
20003912:	4b27      	ldr	r3, [pc, #156]	@ (200039b0 <runtime_init+0xf0>)
20003914:	613b      	str	r3, [r7, #16]
20003916:	e016      	b.n	20003946 <runtime_init+0x86>
20003918:	693b      	ldr	r3, [r7, #16]
2000391a:	681b      	ldr	r3, [r3, #0]
2000391c:	2b00      	cmp	r3, #0
2000391e:	d009      	beq.n	20003934 <runtime_init+0x74>
20003920:	693b      	ldr	r3, [r7, #16]
20003922:	603b      	str	r3, [r7, #0]
20003924:	683b      	ldr	r3, [r7, #0]
20003926:	0018      	movs	r0, r3
20003928:	f7fc ff76 	bl	20000818 <recursive_mutex_init>
2000392c:	683b      	ldr	r3, [r7, #0]
2000392e:	3308      	adds	r3, #8
20003930:	613b      	str	r3, [r7, #16]
20003932:	e008      	b.n	20003946 <runtime_init+0x86>
20003934:	693b      	ldr	r3, [r7, #16]
20003936:	607b      	str	r3, [r7, #4]
20003938:	687b      	ldr	r3, [r7, #4]
2000393a:	0018      	movs	r0, r3
2000393c:	f7fc ff55 	bl	200007ea <mutex_init>
20003940:	687b      	ldr	r3, [r7, #4]
20003942:	3308      	adds	r3, #8
20003944:	613b      	str	r3, [r7, #16]
20003946:	693a      	ldr	r2, [r7, #16]
20003948:	4b1a      	ldr	r3, [pc, #104]	@ (200039b4 <runtime_init+0xf4>)
2000394a:	429a      	cmp	r2, r3
2000394c:	d3e4      	bcc.n	20003918 <runtime_init+0x58>
2000394e:	4b1a      	ldr	r3, [pc, #104]	@ (200039b8 <runtime_init+0xf8>)
20003950:	689b      	ldr	r3, [r3, #8]
20003952:	001a      	movs	r2, r3
20003954:	4b19      	ldr	r3, [pc, #100]	@ (200039bc <runtime_init+0xfc>)
20003956:	0018      	movs	r0, r3
20003958:	0011      	movs	r1, r2
2000395a:	23c0      	movs	r3, #192	@ 0xc0
2000395c:	001a      	movs	r2, r3
2000395e:	f000 fc89 	bl	20004274 <__wrap___aeabi_memcpy>
20003962:	4b15      	ldr	r3, [pc, #84]	@ (200039b8 <runtime_init+0xf8>)
20003964:	4a15      	ldr	r2, [pc, #84]	@ (200039bc <runtime_init+0xfc>)
20003966:	609a      	str	r2, [r3, #8]
20003968:	f7fe fa14 	bl	20001d94 <spin_locks_reset>
2000396c:	f7fe ff80 	bl	20002870 <irq_init_priorities>
20003970:	f7fd fa36 	bl	20000de0 <alarm_pool_init_default>
20003974:	4b12      	ldr	r3, [pc, #72]	@ (200039c0 <runtime_init+0x100>)
20003976:	60fb      	str	r3, [r7, #12]
20003978:	e005      	b.n	20003986 <runtime_init+0xc6>
2000397a:	68fb      	ldr	r3, [r7, #12]
2000397c:	681b      	ldr	r3, [r3, #0]
2000397e:	4798      	blx	r3
20003980:	68fb      	ldr	r3, [r7, #12]
20003982:	3304      	adds	r3, #4
20003984:	60fb      	str	r3, [r7, #12]
20003986:	68fa      	ldr	r2, [r7, #12]
20003988:	4b0e      	ldr	r3, [pc, #56]	@ (200039c4 <runtime_init+0x104>)
2000398a:	429a      	cmp	r2, r3
2000398c:	d3f5      	bcc.n	2000397a <runtime_init+0xba>
2000398e:	46c0      	nop			@ (mov r8, r8)
20003990:	46c0      	nop			@ (mov r8, r8)
20003992:	46bd      	mov	sp, r7
20003994:	b006      	add	sp, #24
20003996:	bd80      	pop	{r7, pc}
20003998:	fefbcdbf 	.word	0xfefbcdbf
2000399c:	003c7ffe 	.word	0x003c7ffe
200039a0:	2000b1b0 	.word	0x2000b1b0
200039a4:	2000b1c0 	.word	0x2000b1c0
200039a8:	01ffffff 	.word	0x01ffffff
200039ac:	4001f000 	.word	0x4001f000
200039b0:	2000b1a0 	.word	0x2000b1a0
200039b4:	2000b1b0 	.word	0x2000b1b0
200039b8:	e000ed00 	.word	0xe000ed00
200039bc:	20000000 	.word	0x20000000
200039c0:	2000b1c0 	.word	0x2000b1c0
200039c4:	2000b1c8 	.word	0x2000b1c8

200039c8 <_exit>:
200039c8:	b580      	push	{r7, lr}
200039ca:	b082      	sub	sp, #8
200039cc:	af00      	add	r7, sp, #0
200039ce:	6078      	str	r0, [r7, #4]
200039d0:	f7ff ff3c 	bl	2000384c <__breakpoint>
200039d4:	e7fc      	b.n	200039d0 <_exit+0x8>

200039d6 <exit>:
200039d6:	b580      	push	{r7, lr}
200039d8:	b082      	sub	sp, #8
200039da:	af00      	add	r7, sp, #0
200039dc:	6078      	str	r0, [r7, #4]
200039de:	687b      	ldr	r3, [r7, #4]
200039e0:	0018      	movs	r0, r3
200039e2:	f7ff fff1 	bl	200039c8 <_exit>
	...

200039e8 <panic>:
200039e8:	b40f      	push	{r0, r1, r2, r3}
200039ea:	b580      	push	{r7, lr}
200039ec:	b082      	sub	sp, #8
200039ee:	af00      	add	r7, sp, #0
200039f0:	4b0b      	ldr	r3, [pc, #44]	@ (20003a20 <panic+0x38>)
200039f2:	0018      	movs	r0, r3
200039f4:	f000 fde6 	bl	200045c4 <__wrap_puts>
200039f8:	693b      	ldr	r3, [r7, #16]
200039fa:	2b00      	cmp	r3, #0
200039fc:	d00c      	beq.n	20003a18 <panic+0x30>
200039fe:	2314      	movs	r3, #20
20003a00:	18fb      	adds	r3, r7, r3
20003a02:	607b      	str	r3, [r7, #4]
20003a04:	687a      	ldr	r2, [r7, #4]
20003a06:	693b      	ldr	r3, [r7, #16]
20003a08:	0011      	movs	r1, r2
20003a0a:	0018      	movs	r0, r3
20003a0c:	f000 f83c 	bl	20003a88 <weak_raw_vprintf>
20003a10:	4b04      	ldr	r3, [pc, #16]	@ (20003a24 <panic+0x3c>)
20003a12:	0018      	movs	r0, r3
20003a14:	f000 fdd6 	bl	200045c4 <__wrap_puts>
20003a18:	2001      	movs	r0, #1
20003a1a:	f7ff ffd5 	bl	200039c8 <_exit>
20003a1e:	46c0      	nop			@ (mov r8, r8)
20003a20:	2000adc4 	.word	0x2000adc4
20003a24:	2000add4 	.word	0x2000add4

20003a28 <hard_assertion_failure>:
20003a28:	b580      	push	{r7, lr}
20003a2a:	af00      	add	r7, sp, #0
20003a2c:	4b01      	ldr	r3, [pc, #4]	@ (20003a34 <hard_assertion_failure+0xc>)
20003a2e:	0018      	movs	r0, r3
20003a30:	f7ff ffda 	bl	200039e8 <panic>
20003a34:	2000add8 	.word	0x2000add8

20003a38 <_putchar>:
20003a38:	b580      	push	{r7, lr}
20003a3a:	b082      	sub	sp, #8
20003a3c:	af00      	add	r7, sp, #0
20003a3e:	0002      	movs	r2, r0
20003a40:	1dfb      	adds	r3, r7, #7
20003a42:	701a      	strb	r2, [r3, #0]
20003a44:	1dfb      	adds	r3, r7, #7
20003a46:	781b      	ldrb	r3, [r3, #0]
20003a48:	0018      	movs	r0, r3
20003a4a:	f000 fda7 	bl	2000459c <__wrap_putchar>
20003a4e:	46c0      	nop			@ (mov r8, r8)
20003a50:	46bd      	mov	sp, r7
20003a52:	b002      	add	sp, #8
20003a54:	bd80      	pop	{r7, pc}

20003a56 <_out_char>:
20003a56:	b580      	push	{r7, lr}
20003a58:	b084      	sub	sp, #16
20003a5a:	af00      	add	r7, sp, #0
20003a5c:	60b9      	str	r1, [r7, #8]
20003a5e:	607a      	str	r2, [r7, #4]
20003a60:	603b      	str	r3, [r7, #0]
20003a62:	210f      	movs	r1, #15
20003a64:	187b      	adds	r3, r7, r1
20003a66:	1c02      	adds	r2, r0, #0
20003a68:	701a      	strb	r2, [r3, #0]
20003a6a:	000a      	movs	r2, r1
20003a6c:	18bb      	adds	r3, r7, r2
20003a6e:	781b      	ldrb	r3, [r3, #0]
20003a70:	2b00      	cmp	r3, #0
20003a72:	d004      	beq.n	20003a7e <_out_char+0x28>
20003a74:	18bb      	adds	r3, r7, r2
20003a76:	781b      	ldrb	r3, [r3, #0]
20003a78:	0018      	movs	r0, r3
20003a7a:	f7ff ffdd 	bl	20003a38 <_putchar>
20003a7e:	46c0      	nop			@ (mov r8, r8)
20003a80:	46bd      	mov	sp, r7
20003a82:	b004      	add	sp, #16
20003a84:	bd80      	pop	{r7, pc}
	...

20003a88 <weak_raw_vprintf>:
20003a88:	b5b0      	push	{r4, r5, r7, lr}
20003a8a:	b086      	sub	sp, #24
20003a8c:	af02      	add	r7, sp, #8
20003a8e:	6078      	str	r0, [r7, #4]
20003a90:	6039      	str	r1, [r7, #0]
20003a92:	4b0d      	ldr	r3, [pc, #52]	@ (20003ac8 <weak_raw_vprintf+0x40>)
20003a94:	681b      	ldr	r3, [r3, #0]
20003a96:	2b00      	cmp	r3, #0
20003a98:	d00d      	beq.n	20003ab6 <weak_raw_vprintf+0x2e>
20003a9a:	4b0b      	ldr	r3, [pc, #44]	@ (20003ac8 <weak_raw_vprintf+0x40>)
20003a9c:	681c      	ldr	r4, [r3, #0]
20003a9e:	687d      	ldr	r5, [r7, #4]
20003aa0:	2301      	movs	r3, #1
20003aa2:	425a      	negs	r2, r3
20003aa4:	230c      	movs	r3, #12
20003aa6:	18f9      	adds	r1, r7, r3
20003aa8:	4808      	ldr	r0, [pc, #32]	@ (20003acc <weak_raw_vprintf+0x44>)
20003aaa:	683b      	ldr	r3, [r7, #0]
20003aac:	9300      	str	r3, [sp, #0]
20003aae:	002b      	movs	r3, r5
20003ab0:	47a0      	blx	r4
20003ab2:	2301      	movs	r3, #1
20003ab4:	e004      	b.n	20003ac0 <weak_raw_vprintf+0x38>
20003ab6:	687b      	ldr	r3, [r7, #4]
20003ab8:	0018      	movs	r0, r3
20003aba:	f000 fd83 	bl	200045c4 <__wrap_puts>
20003abe:	2300      	movs	r3, #0
20003ac0:	0018      	movs	r0, r3
20003ac2:	46bd      	mov	sp, r7
20003ac4:	b004      	add	sp, #16
20003ac6:	bdb0      	pop	{r4, r5, r7, pc}
20003ac8:	2000bcd4 	.word	0x2000bcd4
20003acc:	20003a57 	.word	0x20003a57

20003ad0 <__aeabi_bits_init>:
20003ad0:	4801      	ldr	r0, [pc, #4]	@ (20003ad8 <__aeabi_bits_init+0x8>)
20003ad2:	2104      	movs	r1, #4
20003ad4:	4b01      	ldr	r3, [pc, #4]	@ (20003adc <__aeabi_bits_init+0xc>)
20003ad6:	4718      	bx	r3
20003ad8:	2000b140 	.word	0x2000b140
20003adc:	20003b6b 	.word	0x20003b6b

20003ae0 <__wrap___ctzsi2>:
20003ae0:	4b01      	ldr	r3, [pc, #4]	@ (20003ae8 <__wrap___ctzsi2+0x8>)
20003ae2:	689b      	ldr	r3, [r3, #8]
20003ae4:	4718      	bx	r3
20003ae6:	0000      	.short	0x0000
20003ae8:	2000b140 	.word	0x2000b140

20003aec <rom_hword_as_ptr>:
20003aec:	b580      	push	{r7, lr}
20003aee:	b082      	sub	sp, #8
20003af0:	af00      	add	r7, sp, #0
20003af2:	0002      	movs	r2, r0
20003af4:	1dbb      	adds	r3, r7, #6
20003af6:	801a      	strh	r2, [r3, #0]
20003af8:	1dbb      	adds	r3, r7, #6
20003afa:	881b      	ldrh	r3, [r3, #0]
20003afc:	881b      	ldrh	r3, [r3, #0]
20003afe:	0018      	movs	r0, r3
20003b00:	46bd      	mov	sp, r7
20003b02:	b002      	add	sp, #8
20003b04:	bd80      	pop	{r7, pc}

20003b06 <rom_func_lookup>:
20003b06:	b580      	push	{r7, lr}
20003b08:	b086      	sub	sp, #24
20003b0a:	af00      	add	r7, sp, #0
20003b0c:	6078      	str	r0, [r7, #4]
20003b0e:	687b      	ldr	r3, [r7, #4]
20003b10:	617b      	str	r3, [r7, #20]
20003b12:	2018      	movs	r0, #24
20003b14:	f7ff ffea 	bl	20003aec <rom_hword_as_ptr>
20003b18:	0003      	movs	r3, r0
20003b1a:	613b      	str	r3, [r7, #16]
20003b1c:	2014      	movs	r0, #20
20003b1e:	f7ff ffe5 	bl	20003aec <rom_hword_as_ptr>
20003b22:	0003      	movs	r3, r0
20003b24:	60fb      	str	r3, [r7, #12]
20003b26:	6979      	ldr	r1, [r7, #20]
20003b28:	68fa      	ldr	r2, [r7, #12]
20003b2a:	693b      	ldr	r3, [r7, #16]
20003b2c:	0010      	movs	r0, r2
20003b2e:	4798      	blx	r3
20003b30:	0003      	movs	r3, r0
20003b32:	0018      	movs	r0, r3
20003b34:	46bd      	mov	sp, r7
20003b36:	b006      	add	sp, #24
20003b38:	bd80      	pop	{r7, pc}

20003b3a <rom_data_lookup>:
20003b3a:	b580      	push	{r7, lr}
20003b3c:	b084      	sub	sp, #16
20003b3e:	af00      	add	r7, sp, #0
20003b40:	6078      	str	r0, [r7, #4]
20003b42:	2018      	movs	r0, #24
20003b44:	f7ff ffd2 	bl	20003aec <rom_hword_as_ptr>
20003b48:	0003      	movs	r3, r0
20003b4a:	60fb      	str	r3, [r7, #12]
20003b4c:	2016      	movs	r0, #22
20003b4e:	f7ff ffcd 	bl	20003aec <rom_hword_as_ptr>
20003b52:	0003      	movs	r3, r0
20003b54:	60bb      	str	r3, [r7, #8]
20003b56:	6879      	ldr	r1, [r7, #4]
20003b58:	68ba      	ldr	r2, [r7, #8]
20003b5a:	68fb      	ldr	r3, [r7, #12]
20003b5c:	0010      	movs	r0, r2
20003b5e:	4798      	blx	r3
20003b60:	0003      	movs	r3, r0
20003b62:	0018      	movs	r0, r3
20003b64:	46bd      	mov	sp, r7
20003b66:	b004      	add	sp, #16
20003b68:	bd80      	pop	{r7, pc}

20003b6a <rom_funcs_lookup>:
20003b6a:	b580      	push	{r7, lr}
20003b6c:	b084      	sub	sp, #16
20003b6e:	af00      	add	r7, sp, #0
20003b70:	6078      	str	r0, [r7, #4]
20003b72:	6039      	str	r1, [r7, #0]
20003b74:	230f      	movs	r3, #15
20003b76:	18fb      	adds	r3, r7, r3
20003b78:	2201      	movs	r2, #1
20003b7a:	701a      	strb	r2, [r3, #0]
20003b7c:	2300      	movs	r3, #0
20003b7e:	60bb      	str	r3, [r7, #8]
20003b80:	e01c      	b.n	20003bbc <rom_funcs_lookup+0x52>
20003b82:	68bb      	ldr	r3, [r7, #8]
20003b84:	009b      	lsls	r3, r3, #2
20003b86:	687a      	ldr	r2, [r7, #4]
20003b88:	18d3      	adds	r3, r2, r3
20003b8a:	681b      	ldr	r3, [r3, #0]
20003b8c:	0018      	movs	r0, r3
20003b8e:	f7ff ffba 	bl	20003b06 <rom_func_lookup>
20003b92:	0001      	movs	r1, r0
20003b94:	68bb      	ldr	r3, [r7, #8]
20003b96:	009b      	lsls	r3, r3, #2
20003b98:	687a      	ldr	r2, [r7, #4]
20003b9a:	18d3      	adds	r3, r2, r3
20003b9c:	000a      	movs	r2, r1
20003b9e:	601a      	str	r2, [r3, #0]
20003ba0:	68bb      	ldr	r3, [r7, #8]
20003ba2:	009b      	lsls	r3, r3, #2
20003ba4:	687a      	ldr	r2, [r7, #4]
20003ba6:	18d3      	adds	r3, r2, r3
20003ba8:	681b      	ldr	r3, [r3, #0]
20003baa:	2b00      	cmp	r3, #0
20003bac:	d103      	bne.n	20003bb6 <rom_funcs_lookup+0x4c>
20003bae:	230f      	movs	r3, #15
20003bb0:	18fb      	adds	r3, r7, r3
20003bb2:	2200      	movs	r2, #0
20003bb4:	701a      	strb	r2, [r3, #0]
20003bb6:	68bb      	ldr	r3, [r7, #8]
20003bb8:	3301      	adds	r3, #1
20003bba:	60bb      	str	r3, [r7, #8]
20003bbc:	68ba      	ldr	r2, [r7, #8]
20003bbe:	683b      	ldr	r3, [r7, #0]
20003bc0:	429a      	cmp	r2, r3
20003bc2:	d3de      	bcc.n	20003b82 <rom_funcs_lookup+0x18>
20003bc4:	230f      	movs	r3, #15
20003bc6:	18fb      	adds	r3, r7, r3
20003bc8:	781b      	ldrb	r3, [r3, #0]
20003bca:	0018      	movs	r0, r3
20003bcc:	46bd      	mov	sp, r7
20003bce:	b004      	add	sp, #16
20003bd0:	bd80      	pop	{r7, pc}
	...

20003bd4 <__wrap___aeabi_uidiv>:
20003bd4:	4a11      	ldr	r2, [pc, #68]	@ (20003c1c <divmod_u32u32_savestate+0x18>)
20003bd6:	6f93      	ldr	r3, [r2, #120]	@ 0x78
20003bd8:	089b      	lsrs	r3, r3, #2
20003bda:	d213      	bcs.n	20003c04 <divmod_u32u32_savestate>

20003bdc <divmod_u32u32_unsafe>:
20003bdc:	6610      	str	r0, [r2, #96]	@ 0x60
20003bde:	6651      	str	r1, [r2, #100]	@ 0x64
20003be0:	2900      	cmp	r1, #0
20003be2:	d005      	beq.n	20003bf0 <divmod_u32u32_unsafe+0x14>
20003be4:	e7ff      	b.n	20003be6 <divmod_u32u32_unsafe+0xa>
20003be6:	e7ff      	b.n	20003be8 <divmod_u32u32_unsafe+0xc>
20003be8:	e7ff      	b.n	20003bea <divmod_u32u32_unsafe+0xe>
20003bea:	6f51      	ldr	r1, [r2, #116]	@ 0x74
20003bec:	6f10      	ldr	r0, [r2, #112]	@ 0x70
20003bee:	4770      	bx	lr
20003bf0:	b504      	push	{r2, lr}
20003bf2:	2800      	cmp	r0, #0
20003bf4:	d001      	beq.n	20003bfa <divmod_u32u32_unsafe+0x1e>
20003bf6:	2000      	movs	r0, #0
20003bf8:	43c0      	mvns	r0, r0
20003bfa:	f005 ff31 	bl	20009a60 <__aeabi_idiv0>
20003bfe:	2100      	movs	r1, #0
20003c00:	bd04      	pop	{r2, pc}
20003c02:	46c0      	nop			@ (mov r8, r8)

20003c04 <divmod_u32u32_savestate>:
20003c04:	b5f0      	push	{r4, r5, r6, r7, lr}
20003c06:	6e14      	ldr	r4, [r2, #96]	@ 0x60
20003c08:	6e55      	ldr	r5, [r2, #100]	@ 0x64
20003c0a:	6f57      	ldr	r7, [r2, #116]	@ 0x74
20003c0c:	6f16      	ldr	r6, [r2, #112]	@ 0x70
20003c0e:	f7ff ffe5 	bl	20003bdc <divmod_u32u32_unsafe>
20003c12:	6614      	str	r4, [r2, #96]	@ 0x60
20003c14:	6655      	str	r5, [r2, #100]	@ 0x64
20003c16:	6757      	str	r7, [r2, #116]	@ 0x74
20003c18:	6716      	str	r6, [r2, #112]	@ 0x70
20003c1a:	bdf0      	pop	{r4, r5, r6, r7, pc}
20003c1c:	d0000000 	.word	0xd0000000

20003c20 <__wrap___aeabi_ldivmod>:
20003c20:	4694      	mov	ip, r2
20003c22:	4a4a      	ldr	r2, [pc, #296]	@ (20003d4c <udiv0+0x1a>)
20003c24:	6f92      	ldr	r2, [r2, #120]	@ 0x78
20003c26:	0892      	lsrs	r2, r2, #2
20003c28:	4662      	mov	r2, ip
20003c2a:	d201      	bcs.n	20003c30 <divmod_s64s64_savestate>
20003c2c:	e028      	b.n	20003c80 <divmod_s64s64_unsafe>
20003c2e:	46c0      	nop			@ (mov r8, r8)

20003c30 <divmod_s64s64_savestate>:
20003c30:	b5f0      	push	{r4, r5, r6, r7, lr}
20003c32:	4e46      	ldr	r6, [pc, #280]	@ (20003d4c <udiv0+0x1a>)
20003c34:	6e34      	ldr	r4, [r6, #96]	@ 0x60
20003c36:	6e75      	ldr	r5, [r6, #100]	@ 0x64
20003c38:	6f77      	ldr	r7, [r6, #116]	@ 0x74
20003c3a:	6f36      	ldr	r6, [r6, #112]	@ 0x70
20003c3c:	f000 f820 	bl	20003c80 <divmod_s64s64_unsafe>
20003c40:	4694      	mov	ip, r2
20003c42:	4a42      	ldr	r2, [pc, #264]	@ (20003d4c <udiv0+0x1a>)
20003c44:	6614      	str	r4, [r2, #96]	@ 0x60
20003c46:	6655      	str	r5, [r2, #100]	@ 0x64
20003c48:	6757      	str	r7, [r2, #116]	@ 0x74
20003c4a:	6716      	str	r6, [r2, #112]	@ 0x70
20003c4c:	4662      	mov	r2, ip
20003c4e:	bdf0      	pop	{r4, r5, r6, r7, pc}

20003c50 <__wrap___aeabi_uldivmod>:
20003c50:	4694      	mov	ip, r2
20003c52:	4a3e      	ldr	r2, [pc, #248]	@ (20003d4c <udiv0+0x1a>)
20003c54:	6f92      	ldr	r2, [r2, #120]	@ 0x78
20003c56:	0892      	lsrs	r2, r2, #2
20003c58:	4662      	mov	r2, ip
20003c5a:	d201      	bcs.n	20003c60 <divmod_u64u64_savestate>
20003c5c:	e054      	b.n	20003d08 <divmod_u64u64_unsafe>
20003c5e:	46c0      	nop			@ (mov r8, r8)

20003c60 <divmod_u64u64_savestate>:
20003c60:	b5f0      	push	{r4, r5, r6, r7, lr}
20003c62:	4e3a      	ldr	r6, [pc, #232]	@ (20003d4c <udiv0+0x1a>)
20003c64:	6e34      	ldr	r4, [r6, #96]	@ 0x60
20003c66:	6e75      	ldr	r5, [r6, #100]	@ 0x64
20003c68:	6f77      	ldr	r7, [r6, #116]	@ 0x74
20003c6a:	6f36      	ldr	r6, [r6, #112]	@ 0x70
20003c6c:	f000 f84c 	bl	20003d08 <divmod_u64u64_unsafe>
20003c70:	4694      	mov	ip, r2
20003c72:	4a36      	ldr	r2, [pc, #216]	@ (20003d4c <udiv0+0x1a>)
20003c74:	6614      	str	r4, [r2, #96]	@ 0x60
20003c76:	6655      	str	r5, [r2, #100]	@ 0x64
20003c78:	6757      	str	r7, [r2, #116]	@ 0x74
20003c7a:	6716      	str	r6, [r2, #112]	@ 0x70
20003c7c:	4662      	mov	r2, ip
20003c7e:	bdf0      	pop	{r4, r5, r6, r7, pc}

20003c80 <divmod_s64s64_unsafe>:
20003c80:	2b00      	cmp	r3, #0
20003c82:	db24      	blt.n	20003cce <l42_1+0x26>
20003c84:	d011      	beq.n	20003caa <l42_1+0x2>
20003c86:	2900      	cmp	r1, #0
20003c88:	da3e      	bge.n	20003d08 <divmod_u64u64_unsafe>
20003c8a:	b500      	push	{lr}
20003c8c:	43c9      	mvns	r1, r1
20003c8e:	4240      	negs	r0, r0
20003c90:	d100      	bne.n	20003c94 <l40_1>
20003c92:	3101      	adds	r1, #1

20003c94 <l40_1>:
20003c94:	f000 f838 	bl	20003d08 <divmod_u64u64_unsafe>
20003c98:	43c9      	mvns	r1, r1
20003c9a:	4240      	negs	r0, r0
20003c9c:	d100      	bne.n	20003ca0 <l41_1>
20003c9e:	3101      	adds	r1, #1

20003ca0 <l41_1>:
20003ca0:	43db      	mvns	r3, r3
20003ca2:	4252      	negs	r2, r2
20003ca4:	d100      	bne.n	20003ca8 <l42_1>
20003ca6:	3301      	adds	r3, #1

20003ca8 <l42_1>:
20003ca8:	bd00      	pop	{pc}
20003caa:	2a00      	cmp	r2, #0
20003cac:	d1eb      	bne.n	20003c86 <divmod_s64s64_unsafe+0x6>
20003cae:	2800      	cmp	r0, #0
20003cb0:	d101      	bne.n	20003cb6 <l42_1+0xe>
20003cb2:	2900      	cmp	r1, #0
20003cb4:	d005      	beq.n	20003cc2 <l42_1+0x1a>
20003cb6:	2000      	movs	r0, #0
20003cb8:	0fc9      	lsrs	r1, r1, #31
20003cba:	07c9      	lsls	r1, r1, #31
20003cbc:	d101      	bne.n	20003cc2 <l42_1+0x1a>
20003cbe:	43c0      	mvns	r0, r0
20003cc0:	0841      	lsrs	r1, r0, #1
20003cc2:	b500      	push	{lr}
20003cc4:	f005 fecc 	bl	20009a60 <__aeabi_idiv0>
20003cc8:	2200      	movs	r2, #0
20003cca:	2300      	movs	r3, #0
20003ccc:	bd00      	pop	{pc}
20003cce:	b500      	push	{lr}
20003cd0:	2900      	cmp	r1, #0
20003cd2:	db0a      	blt.n	20003cea <l44_1+0x2>
20003cd4:	43db      	mvns	r3, r3
20003cd6:	4252      	negs	r2, r2
20003cd8:	d100      	bne.n	20003cdc <l43_1>
20003cda:	3301      	adds	r3, #1

20003cdc <l43_1>:
20003cdc:	f000 f814 	bl	20003d08 <divmod_u64u64_unsafe>
20003ce0:	43c9      	mvns	r1, r1
20003ce2:	4240      	negs	r0, r0
20003ce4:	d100      	bne.n	20003ce8 <l44_1>
20003ce6:	3101      	adds	r1, #1

20003ce8 <l44_1>:
20003ce8:	bd00      	pop	{pc}
20003cea:	43c9      	mvns	r1, r1
20003cec:	4240      	negs	r0, r0
20003cee:	d100      	bne.n	20003cf2 <l45_1>
20003cf0:	3101      	adds	r1, #1

20003cf2 <l45_1>:
20003cf2:	43db      	mvns	r3, r3
20003cf4:	4252      	negs	r2, r2
20003cf6:	d100      	bne.n	20003cfa <l46_1>
20003cf8:	3301      	adds	r3, #1

20003cfa <l46_1>:
20003cfa:	f000 f805 	bl	20003d08 <divmod_u64u64_unsafe>
20003cfe:	43db      	mvns	r3, r3
20003d00:	4252      	negs	r2, r2
20003d02:	d100      	bne.n	20003d06 <l47_1>
20003d04:	3301      	adds	r3, #1

20003d06 <l47_1>:
20003d06:	bd00      	pop	{pc}

20003d08 <divmod_u64u64_unsafe>:
20003d08:	2900      	cmp	r1, #0
20003d0a:	d123      	bne.n	20003d54 <y64>
20003d0c:	2b00      	cmp	r3, #0
20003d0e:	d118      	bne.n	20003d42 <udiv0+0x10>
20003d10:	2a00      	cmp	r2, #0
20003d12:	d00c      	beq.n	20003d2e <divmod_u64u64_unsafe+0x26>
20003d14:	46bc      	mov	ip, r7
20003d16:	4f0d      	ldr	r7, [pc, #52]	@ (20003d4c <udiv0+0x1a>)
20003d18:	6638      	str	r0, [r7, #96]	@ 0x60
20003d1a:	667a      	str	r2, [r7, #100]	@ 0x64
20003d1c:	2100      	movs	r1, #0
20003d1e:	2300      	movs	r3, #0
20003d20:	e7ff      	b.n	20003d22 <divmod_u64u64_unsafe+0x1a>
20003d22:	e7ff      	b.n	20003d24 <divmod_u64u64_unsafe+0x1c>
20003d24:	e7ff      	b.n	20003d26 <divmod_u64u64_unsafe+0x1e>
20003d26:	6f7a      	ldr	r2, [r7, #116]	@ 0x74
20003d28:	6f38      	ldr	r0, [r7, #112]	@ 0x70
20003d2a:	4667      	mov	r7, ip
20003d2c:	4770      	bx	lr
20003d2e:	2800      	cmp	r0, #0
20003d30:	d001      	beq.n	20003d36 <udiv0+0x4>

20003d32 <udiv0>:
20003d32:	4807      	ldr	r0, [pc, #28]	@ (20003d50 <udiv0+0x1e>)
20003d34:	0001      	movs	r1, r0
20003d36:	b500      	push	{lr}
20003d38:	f005 fe92 	bl	20009a60 <__aeabi_idiv0>
20003d3c:	2200      	movs	r2, #0
20003d3e:	2300      	movs	r3, #0
20003d40:	bd00      	pop	{pc}
20003d42:	0002      	movs	r2, r0
20003d44:	000b      	movs	r3, r1
20003d46:	2000      	movs	r0, #0
20003d48:	2100      	movs	r1, #0
20003d4a:	4770      	bx	lr
20003d4c:	d0000000 	.word	0xd0000000
20003d50:	ffffffff 	.word	0xffffffff

20003d54 <y64>:
20003d54:	2b00      	cmp	r3, #0
20003d56:	d000      	beq.n	20003d5a <y64+0x6>
20003d58:	e0bf      	b.n	20003eda <y64_x48>
20003d5a:	0c13      	lsrs	r3, r2, #16
20003d5c:	d128      	bne.n	20003db0 <y64_x32>
20003d5e:	2a00      	cmp	r2, #0
20003d60:	d0e7      	beq.n	20003d32 <udiv0>
20003d62:	b480      	push	{r7}
20003d64:	4f11      	ldr	r7, [pc, #68]	@ (20003dac <y64+0x58>)
20003d66:	6639      	str	r1, [r7, #96]	@ 0x60
20003d68:	667a      	str	r2, [r7, #100]	@ 0x64
20003d6a:	e7ff      	b.n	20003d6c <y64+0x18>
20003d6c:	e7ff      	b.n	20003d6e <y64+0x1a>
20003d6e:	b430      	push	{r4, r5}
20003d70:	0c04      	lsrs	r4, r0, #16
20003d72:	6f7b      	ldr	r3, [r7, #116]	@ 0x74
20003d74:	6f39      	ldr	r1, [r7, #112]	@ 0x70
20003d76:	041b      	lsls	r3, r3, #16
20003d78:	4323      	orrs	r3, r4
20003d7a:	663b      	str	r3, [r7, #96]	@ 0x60
20003d7c:	667a      	str	r2, [r7, #100]	@ 0x64
20003d7e:	e7ff      	b.n	20003d80 <y64+0x2c>
20003d80:	e7ff      	b.n	20003d82 <y64+0x2e>
20003d82:	e7ff      	b.n	20003d84 <y64+0x30>
20003d84:	46c0      	nop			@ (mov r8, r8)
20003d86:	b284      	uxth	r4, r0
20003d88:	6f7b      	ldr	r3, [r7, #116]	@ 0x74
20003d8a:	6f3d      	ldr	r5, [r7, #112]	@ 0x70
20003d8c:	041b      	lsls	r3, r3, #16
20003d8e:	4323      	orrs	r3, r4
20003d90:	663b      	str	r3, [r7, #96]	@ 0x60
20003d92:	667a      	str	r2, [r7, #100]	@ 0x64
20003d94:	e7ff      	b.n	20003d96 <y64+0x42>
20003d96:	e7ff      	b.n	20003d98 <y64+0x44>
20003d98:	46c0      	nop			@ (mov r8, r8)
20003d9a:	2300      	movs	r3, #0
20003d9c:	042c      	lsls	r4, r5, #16
20003d9e:	0c2d      	lsrs	r5, r5, #16
20003da0:	6f7a      	ldr	r2, [r7, #116]	@ 0x74
20003da2:	6f38      	ldr	r0, [r7, #112]	@ 0x70
20003da4:	1900      	adds	r0, r0, r4
20003da6:	4169      	adcs	r1, r5
20003da8:	bcb0      	pop	{r4, r5, r7}
20003daa:	4770      	bx	lr
20003dac:	d0000000 	.word	0xd0000000

20003db0 <y64_x32>:
20003db0:	b5f0      	push	{r4, r5, r6, r7, lr}
20003db2:	4694      	mov	ip, r2
20003db4:	2500      	movs	r5, #0
20003db6:	0e14      	lsrs	r4, r2, #24
20003db8:	d101      	bne.n	20003dbe <y64_x32+0xe>
20003dba:	0212      	lsls	r2, r2, #8
20003dbc:	3508      	adds	r5, #8
20003dbe:	0f14      	lsrs	r4, r2, #28
20003dc0:	d101      	bne.n	20003dc6 <y64_x32+0x16>
20003dc2:	0112      	lsls	r2, r2, #4
20003dc4:	3504      	adds	r5, #4
20003dc6:	0f94      	lsrs	r4, r2, #30
20003dc8:	d101      	bne.n	20003dce <y64_x32+0x1e>
20003dca:	0092      	lsls	r2, r2, #2
20003dcc:	3502      	adds	r5, #2
20003dce:	0fd4      	lsrs	r4, r2, #31
20003dd0:	d101      	bne.n	20003dd6 <y64_x32+0x26>
20003dd2:	0052      	lsls	r2, r2, #1
20003dd4:	3501      	adds	r5, #1
20003dd6:	0bd4      	lsrs	r4, r2, #15
20003dd8:	3401      	adds	r4, #1
20003dda:	4f25      	ldr	r7, [pc, #148]	@ (20003e70 <y64_x32+0xc0>)
20003ddc:	667c      	str	r4, [r7, #100]	@ 0x64
20003dde:	4c25      	ldr	r4, [pc, #148]	@ (20003e74 <y64_x32+0xc4>)
20003de0:	663c      	str	r4, [r7, #96]	@ 0x60
20003de2:	0c0e      	lsrs	r6, r1, #16
20003de4:	b293      	uxth	r3, r2
20003de6:	e7ff      	b.n	20003de8 <y64_x32+0x38>
20003de8:	e7ff      	b.n	20003dea <y64_x32+0x3a>
20003dea:	e7ff      	b.n	20003dec <y64_x32+0x3c>
20003dec:	6f3c      	ldr	r4, [r7, #112]	@ 0x70
20003dee:	4366      	muls	r6, r4
20003df0:	0c36      	lsrs	r6, r6, #16
20003df2:	0377      	lsls	r7, r6, #13
20003df4:	46be      	mov	lr, r7
20003df6:	4373      	muls	r3, r6
20003df8:	0bdf      	lsrs	r7, r3, #15
20003dfa:	045b      	lsls	r3, r3, #17
20003dfc:	1ac0      	subs	r0, r0, r3
20003dfe:	41b9      	sbcs	r1, r7
20003e00:	0c13      	lsrs	r3, r2, #16
20003e02:	4373      	muls	r3, r6
20003e04:	18db      	adds	r3, r3, r3
20003e06:	1ac9      	subs	r1, r1, r3
20003e08:	08ce      	lsrs	r6, r1, #3
20003e0a:	4366      	muls	r6, r4
20003e0c:	0c36      	lsrs	r6, r6, #16
20003e0e:	44b6      	add	lr, r6
20003e10:	b293      	uxth	r3, r2
20003e12:	4373      	muls	r3, r6
20003e14:	0f1f      	lsrs	r7, r3, #28
20003e16:	011b      	lsls	r3, r3, #4
20003e18:	1ac0      	subs	r0, r0, r3
20003e1a:	41b9      	sbcs	r1, r7
20003e1c:	0c13      	lsrs	r3, r2, #16
20003e1e:	4373      	muls	r3, r6
20003e20:	0b1f      	lsrs	r7, r3, #12
20003e22:	051b      	lsls	r3, r3, #20
20003e24:	1ac0      	subs	r0, r0, r3
20003e26:	41b9      	sbcs	r1, r7
20003e28:	0d86      	lsrs	r6, r0, #22
20003e2a:	028f      	lsls	r7, r1, #10
20003e2c:	433e      	orrs	r6, r7
20003e2e:	4366      	muls	r6, r4
20003e30:	0c36      	lsrs	r6, r6, #16
20003e32:	2d09      	cmp	r5, #9
20003e34:	db24      	blt.n	20003e80 <last0>
20003e36:	0a52      	lsrs	r2, r2, #9
20003e38:	4372      	muls	r2, r6
20003e3a:	1a80      	subs	r0, r0, r2
20003e3c:	0377      	lsls	r7, r6, #13
20003e3e:	0a46      	lsrs	r6, r0, #9
20003e40:	4366      	muls	r6, r4
20003e42:	0c36      	lsrs	r6, r6, #16
20003e44:	2316      	movs	r3, #22
20003e46:	1b5b      	subs	r3, r3, r5
20003e48:	40de      	lsrs	r6, r3
20003e4a:	40df      	lsrs	r7, r3
20003e4c:	19bf      	adds	r7, r7, r6
20003e4e:	4664      	mov	r4, ip
20003e50:	4366      	muls	r6, r4
20003e52:	1b82      	subs	r2, r0, r6
20003e54:	4670      	mov	r0, lr
20003e56:	3504      	adds	r5, #4
20003e58:	3306      	adds	r3, #6
20003e5a:	0001      	movs	r1, r0
20003e5c:	40d9      	lsrs	r1, r3
20003e5e:	40a8      	lsls	r0, r5
20003e60:	19c0      	adds	r0, r0, r7
20003e62:	d300      	bcc.n	20003e66 <y64_x32+0xb6>
20003e64:	3101      	adds	r1, #1
20003e66:	42a2      	cmp	r2, r4
20003e68:	d206      	bcs.n	20003e78 <y64_x32+0xc8>
20003e6a:	2300      	movs	r3, #0
20003e6c:	bdf0      	pop	{r4, r5, r6, r7, pc}
20003e6e:	0000      	.short	0x0000
20003e70:	d0000000 	.word	0xd0000000
20003e74:	ffffffff 	.word	0xffffffff
20003e78:	1b12      	subs	r2, r2, r4
20003e7a:	3001      	adds	r0, #1
20003e7c:	d3f3      	bcc.n	20003e66 <y64_x32+0xb6>
20003e7e:	e7f1      	b.n	20003e64 <y64_x32+0xb4>

20003e80 <last0>:
20003e80:	2709      	movs	r7, #9
20003e82:	1b7f      	subs	r7, r7, r5
20003e84:	40fe      	lsrs	r6, r7
20003e86:	4664      	mov	r4, ip
20003e88:	b2a2      	uxth	r2, r4
20003e8a:	4372      	muls	r2, r6
20003e8c:	1a80      	subs	r0, r0, r2
20003e8e:	d200      	bcs.n	20003e92 <last0+0x12>
20003e90:	3901      	subs	r1, #1
20003e92:	0c22      	lsrs	r2, r4, #16
20003e94:	4372      	muls	r2, r6
20003e96:	0c13      	lsrs	r3, r2, #16
20003e98:	0412      	lsls	r2, r2, #16
20003e9a:	1a82      	subs	r2, r0, r2
20003e9c:	4199      	sbcs	r1, r3
20003e9e:	000b      	movs	r3, r1
20003ea0:	4670      	mov	r0, lr
20003ea2:	3504      	adds	r5, #4
20003ea4:	3713      	adds	r7, #19
20003ea6:	0001      	movs	r1, r0
20003ea8:	40f9      	lsrs	r1, r7
20003eaa:	40a8      	lsls	r0, r5
20003eac:	1980      	adds	r0, r0, r6
20003eae:	d300      	bcc.n	20003eb2 <last0+0x32>
20003eb0:	3101      	adds	r1, #1
20003eb2:	2b00      	cmp	r3, #0
20003eb4:	d102      	bne.n	20003ebc <last0+0x3c>
20003eb6:	42a2      	cmp	r2, r4
20003eb8:	d20a      	bcs.n	20003ed0 <last0+0x50>
20003eba:	bdf0      	pop	{r4, r5, r6, r7, pc}
20003ebc:	3001      	adds	r0, #1
20003ebe:	d300      	bcc.n	20003ec2 <last0+0x42>
20003ec0:	3101      	adds	r1, #1
20003ec2:	1b12      	subs	r2, r2, r4
20003ec4:	d2fa      	bcs.n	20003ebc <last0+0x3c>
20003ec6:	3b01      	subs	r3, #1
20003ec8:	d1f8      	bne.n	20003ebc <last0+0x3c>
20003eca:	42a2      	cmp	r2, r4
20003ecc:	d200      	bcs.n	20003ed0 <last0+0x50>
20003ece:	bdf0      	pop	{r4, r5, r6, r7, pc}
20003ed0:	3001      	adds	r0, #1
20003ed2:	d300      	bcc.n	20003ed6 <last0+0x56>
20003ed4:	3101      	adds	r1, #1
20003ed6:	1b12      	subs	r2, r2, r4
20003ed8:	e7f7      	b.n	20003eca <last0+0x4a>

20003eda <y64_x48>:
20003eda:	b5f0      	push	{r4, r5, r6, r7, lr}
20003edc:	0c1c      	lsrs	r4, r3, #16
20003ede:	d000      	beq.n	20003ee2 <y64_x48+0x8>
20003ee0:	e080      	b.n	20003fe4 <y64_x64>
20003ee2:	b40c      	push	{r2, r3}
20003ee4:	2500      	movs	r5, #0
20003ee6:	0a1c      	lsrs	r4, r3, #8
20003ee8:	d104      	bne.n	20003ef4 <y64_x48+0x1a>
20003eea:	021b      	lsls	r3, r3, #8
20003eec:	0e16      	lsrs	r6, r2, #24
20003eee:	4333      	orrs	r3, r6
20003ef0:	0212      	lsls	r2, r2, #8
20003ef2:	3508      	adds	r5, #8
20003ef4:	0b1c      	lsrs	r4, r3, #12
20003ef6:	d104      	bne.n	20003f02 <y64_x48+0x28>
20003ef8:	011b      	lsls	r3, r3, #4
20003efa:	0f16      	lsrs	r6, r2, #28
20003efc:	4333      	orrs	r3, r6
20003efe:	0112      	lsls	r2, r2, #4
20003f00:	3504      	adds	r5, #4
20003f02:	0b9c      	lsrs	r4, r3, #14
20003f04:	d104      	bne.n	20003f10 <y64_x48+0x36>
20003f06:	009b      	lsls	r3, r3, #2
20003f08:	0f96      	lsrs	r6, r2, #30
20003f0a:	4333      	orrs	r3, r6
20003f0c:	0092      	lsls	r2, r2, #2
20003f0e:	3502      	adds	r5, #2
20003f10:	0bdc      	lsrs	r4, r3, #15
20003f12:	d102      	bne.n	20003f1a <y64_x48+0x40>
20003f14:	1892      	adds	r2, r2, r2
20003f16:	415b      	adcs	r3, r3
20003f18:	3501      	adds	r5, #1
20003f1a:	001c      	movs	r4, r3
20003f1c:	1897      	adds	r7, r2, r2
20003f1e:	4164      	adcs	r4, r4
20003f20:	3401      	adds	r4, #1
20003f22:	4f46      	ldr	r7, [pc, #280]	@ (2000403c <y64_x64+0x58>)
20003f24:	667c      	str	r4, [r7, #100]	@ 0x64
20003f26:	4c46      	ldr	r4, [pc, #280]	@ (20004040 <y64_x64+0x5c>)
20003f28:	663c      	str	r4, [r7, #96]	@ 0x60
20003f2a:	0c0e      	lsrs	r6, r1, #16
20003f2c:	e7ff      	b.n	20003f2e <y64_x48+0x54>
20003f2e:	e7ff      	b.n	20003f30 <y64_x48+0x56>
20003f30:	e7ff      	b.n	20003f32 <y64_x48+0x58>
20003f32:	46c0      	nop			@ (mov r8, r8)
20003f34:	6f3c      	ldr	r4, [r7, #112]	@ 0x70
20003f36:	4366      	muls	r6, r4
20003f38:	0c36      	lsrs	r6, r6, #16
20003f3a:	0377      	lsls	r7, r6, #13
20003f3c:	46be      	mov	lr, r7
20003f3e:	b297      	uxth	r7, r2
20003f40:	4377      	muls	r7, r6
20003f42:	1bc0      	subs	r0, r0, r7
20003f44:	d200      	bcs.n	20003f48 <y64_x48+0x6e>
20003f46:	3901      	subs	r1, #1
20003f48:	1bc0      	subs	r0, r0, r7
20003f4a:	d200      	bcs.n	20003f4e <y64_x48+0x74>
20003f4c:	3901      	subs	r1, #1
20003f4e:	b29f      	uxth	r7, r3
20003f50:	4377      	muls	r7, r6
20003f52:	1bc9      	subs	r1, r1, r7
20003f54:	1bc9      	subs	r1, r1, r7
20003f56:	0c17      	lsrs	r7, r2, #16
20003f58:	4377      	muls	r7, r6
20003f5a:	047e      	lsls	r6, r7, #17
20003f5c:	0bff      	lsrs	r7, r7, #15
20003f5e:	1b80      	subs	r0, r0, r6
20003f60:	41b9      	sbcs	r1, r7
20003f62:	08ce      	lsrs	r6, r1, #3
20003f64:	4366      	muls	r6, r4
20003f66:	0c36      	lsrs	r6, r6, #16
20003f68:	2d0c      	cmp	r5, #12
20003f6a:	db33      	blt.n	20003fd4 <last1>
20003f6c:	44b6      	add	lr, r6
20003f6e:	0b12      	lsrs	r2, r2, #12
20003f70:	051f      	lsls	r7, r3, #20
20003f72:	433a      	orrs	r2, r7
20003f74:	0b1b      	lsrs	r3, r3, #12
20003f76:	b297      	uxth	r7, r2
20003f78:	4377      	muls	r7, r6
20003f7a:	1bc0      	subs	r0, r0, r7
20003f7c:	d200      	bcs.n	20003f80 <y64_x48+0xa6>
20003f7e:	3901      	subs	r1, #1
20003f80:	b29f      	uxth	r7, r3
20003f82:	4377      	muls	r7, r6
20003f84:	1bc9      	subs	r1, r1, r7
20003f86:	0c17      	lsrs	r7, r2, #16
20003f88:	4377      	muls	r7, r6
20003f8a:	043e      	lsls	r6, r7, #16
20003f8c:	0c3f      	lsrs	r7, r7, #16
20003f8e:	1b80      	subs	r0, r0, r6
20003f90:	41b9      	sbcs	r1, r7
20003f92:	0d86      	lsrs	r6, r0, #22
20003f94:	028f      	lsls	r7, r1, #10
20003f96:	433e      	orrs	r6, r7
20003f98:	4366      	muls	r6, r4
20003f9a:	2729      	movs	r7, #41	@ 0x29
20003f9c:	1b7f      	subs	r7, r7, r5
20003f9e:	40fe      	lsrs	r6, r7
20003fa0:	3d0c      	subs	r5, #12
20003fa2:	4677      	mov	r7, lr
20003fa4:	40af      	lsls	r7, r5
20003fa6:	19bf      	adds	r7, r7, r6
20003fa8:	bc30      	pop	{r4, r5}
20003faa:	b2a2      	uxth	r2, r4
20003fac:	b2ab      	uxth	r3, r5
20003fae:	4372      	muls	r2, r6
20003fb0:	4373      	muls	r3, r6
20003fb2:	1a80      	subs	r0, r0, r2
20003fb4:	4199      	sbcs	r1, r3
20003fb6:	0c22      	lsrs	r2, r4, #16
20003fb8:	4372      	muls	r2, r6
20003fba:	0c13      	lsrs	r3, r2, #16
20003fbc:	0412      	lsls	r2, r2, #16
20003fbe:	1a80      	subs	r0, r0, r2
20003fc0:	4199      	sbcs	r1, r3
20003fc2:	0002      	movs	r2, r0
20003fc4:	000b      	movs	r3, r1
20003fc6:	3701      	adds	r7, #1
20003fc8:	1b00      	subs	r0, r0, r4
20003fca:	41a9      	sbcs	r1, r5
20003fcc:	d2f9      	bcs.n	20003fc2 <y64_x48+0xe8>
20003fce:	1e78      	subs	r0, r7, #1
20003fd0:	2100      	movs	r1, #0
20003fd2:	bdf0      	pop	{r4, r5, r6, r7, pc}

20003fd4 <last1>:
20003fd4:	270c      	movs	r7, #12
20003fd6:	1b7f      	subs	r7, r7, r5
20003fd8:	40fe      	lsrs	r6, r7
20003fda:	4677      	mov	r7, lr
20003fdc:	0b7f      	lsrs	r7, r7, #13
20003fde:	40af      	lsls	r7, r5
20003fe0:	19ff      	adds	r7, r7, r7
20003fe2:	e7e0      	b.n	20003fa6 <y64_x48+0xcc>

20003fe4 <y64_x64>:
20003fe4:	2400      	movs	r4, #0
20003fe6:	1c5d      	adds	r5, r3, #1
20003fe8:	d007      	beq.n	20003ffa <y64_x64+0x16>
20003fea:	4f14      	ldr	r7, [pc, #80]	@ (2000403c <y64_x64+0x58>)
20003fec:	667d      	str	r5, [r7, #100]	@ 0x64
20003fee:	6639      	str	r1, [r7, #96]	@ 0x60
20003ff0:	e7ff      	b.n	20003ff2 <y64_x64+0xe>
20003ff2:	e7ff      	b.n	20003ff4 <y64_x64+0x10>
20003ff4:	e7ff      	b.n	20003ff6 <y64_x64+0x12>
20003ff6:	e7ff      	b.n	20003ff8 <y64_x64+0x14>
20003ff8:	6f3c      	ldr	r4, [r7, #112]	@ 0x70
20003ffa:	b295      	uxth	r5, r2
20003ffc:	b29e      	uxth	r6, r3
20003ffe:	4365      	muls	r5, r4
20004000:	4366      	muls	r6, r4
20004002:	1b40      	subs	r0, r0, r5
20004004:	41b1      	sbcs	r1, r6
20004006:	0c15      	lsrs	r5, r2, #16
20004008:	0c1e      	lsrs	r6, r3, #16
2000400a:	4365      	muls	r5, r4
2000400c:	4366      	muls	r6, r4
2000400e:	0436      	lsls	r6, r6, #16
20004010:	0c2f      	lsrs	r7, r5, #16
20004012:	433e      	orrs	r6, r7
20004014:	042d      	lsls	r5, r5, #16
20004016:	1b40      	subs	r0, r0, r5
20004018:	41b1      	sbcs	r1, r6
2000401a:	4299      	cmp	r1, r3
2000401c:	d204      	bcs.n	20004028 <y64_x64+0x44>
2000401e:	0002      	movs	r2, r0
20004020:	000b      	movs	r3, r1
20004022:	0020      	movs	r0, r4
20004024:	2100      	movs	r1, #0
20004026:	bdf0      	pop	{r4, r5, r6, r7, pc}
20004028:	d101      	bne.n	2000402e <y64_x64+0x4a>
2000402a:	4290      	cmp	r0, r2
2000402c:	d3f7      	bcc.n	2000401e <y64_x64+0x3a>
2000402e:	1a80      	subs	r0, r0, r2
20004030:	4199      	sbcs	r1, r3
20004032:	3401      	adds	r4, #1
20004034:	4299      	cmp	r1, r3
20004036:	d3f2      	bcc.n	2000401e <y64_x64+0x3a>
20004038:	e7f6      	b.n	20004028 <y64_x64+0x44>
2000403a:	0000      	.short	0x0000
2000403c:	d0000000 	.word	0xd0000000
20004040:	ffffffff 	.word	0xffffffff

20004044 <rp2040_rom_version>:
20004044:	b580      	push	{r7, lr}
20004046:	af00      	add	r7, sp, #0
20004048:	2313      	movs	r3, #19
2000404a:	781b      	ldrb	r3, [r3, #0]
2000404c:	0018      	movs	r0, r3
2000404e:	46bd      	mov	sp, r7
20004050:	bd80      	pop	{r7, pc}

20004052 <rom_table_code>:
20004052:	b580      	push	{r7, lr}
20004054:	b082      	sub	sp, #8
20004056:	af00      	add	r7, sp, #0
20004058:	0002      	movs	r2, r0
2000405a:	1dfb      	adds	r3, r7, #7
2000405c:	701a      	strb	r2, [r3, #0]
2000405e:	1dbb      	adds	r3, r7, #6
20004060:	1c0a      	adds	r2, r1, #0
20004062:	701a      	strb	r2, [r3, #0]
20004064:	1dfb      	adds	r3, r7, #7
20004066:	781a      	ldrb	r2, [r3, #0]
20004068:	1dbb      	adds	r3, r7, #6
2000406a:	781b      	ldrb	r3, [r3, #0]
2000406c:	021b      	lsls	r3, r3, #8
2000406e:	4313      	orrs	r3, r2
20004070:	0018      	movs	r0, r3
20004072:	46bd      	mov	sp, r7
20004074:	b002      	add	sp, #8
20004076:	bd80      	pop	{r7, pc}

20004078 <__aeabi_double_init>:
20004078:	b580      	push	{r7, lr}
2000407a:	b084      	sub	sp, #16
2000407c:	af00      	add	r7, sp, #0
2000407e:	f7ff ffe1 	bl	20004044 <rp2040_rom_version>
20004082:	0003      	movs	r3, r0
20004084:	60bb      	str	r3, [r7, #8]
20004086:	68bb      	ldr	r3, [r7, #8]
20004088:	2b01      	cmp	r3, #1
2000408a:	d10d      	bne.n	200040a8 <__aeabi_double_init+0x30>
2000408c:	2300      	movs	r3, #0
2000408e:	60fb      	str	r3, [r7, #12]
20004090:	e007      	b.n	200040a2 <__aeabi_double_init+0x2a>
20004092:	4917      	ldr	r1, [pc, #92]	@ (200040f0 <__aeabi_double_init+0x78>)
20004094:	4b17      	ldr	r3, [pc, #92]	@ (200040f4 <__aeabi_double_init+0x7c>)
20004096:	68fa      	ldr	r2, [r7, #12]
20004098:	0092      	lsls	r2, r2, #2
2000409a:	50d1      	str	r1, [r2, r3]
2000409c:	68fb      	ldr	r3, [r7, #12]
2000409e:	3301      	adds	r3, #1
200040a0:	60fb      	str	r3, [r7, #12]
200040a2:	68fb      	ldr	r3, [r7, #12]
200040a4:	2b1f      	cmp	r3, #31
200040a6:	d9f4      	bls.n	20004092 <__aeabi_double_init+0x1a>
200040a8:	68bb      	ldr	r3, [r7, #8]
200040aa:	2b01      	cmp	r3, #1
200040ac:	dd0f      	ble.n	200040ce <__aeabi_double_init+0x56>
200040ae:	2144      	movs	r1, #68	@ 0x44
200040b0:	2053      	movs	r0, #83	@ 0x53
200040b2:	f7ff ffce 	bl	20004052 <rom_table_code>
200040b6:	0003      	movs	r3, r0
200040b8:	0018      	movs	r0, r3
200040ba:	f7ff fd3e 	bl	20003b3a <rom_data_lookup>
200040be:	0003      	movs	r3, r0
200040c0:	607b      	str	r3, [r7, #4]
200040c2:	6879      	ldr	r1, [r7, #4]
200040c4:	4b0b      	ldr	r3, [pc, #44]	@ (200040f4 <__aeabi_double_init+0x7c>)
200040c6:	2280      	movs	r2, #128	@ 0x80
200040c8:	0018      	movs	r0, r3
200040ca:	f000 f8d3 	bl	20004274 <__wrap___aeabi_memcpy>
200040ce:	68bb      	ldr	r3, [r7, #8]
200040d0:	2b02      	cmp	r3, #2
200040d2:	dc02      	bgt.n	200040da <__aeabi_double_init+0x62>
200040d4:	4a06      	ldr	r2, [pc, #24]	@ (200040f0 <__aeabi_double_init+0x78>)
200040d6:	4b07      	ldr	r3, [pc, #28]	@ (200040f4 <__aeabi_double_init+0x7c>)
200040d8:	649a      	str	r2, [r3, #72]	@ 0x48
200040da:	4b07      	ldr	r3, [pc, #28]	@ (200040f8 <__aeabi_double_init+0x80>)
200040dc:	0018      	movs	r0, r3
200040de:	f7ff fd12 	bl	20003b06 <rom_func_lookup>
200040e2:	0002      	movs	r2, r0
200040e4:	4b05      	ldr	r3, [pc, #20]	@ (200040fc <__aeabi_double_init+0x84>)
200040e6:	601a      	str	r2, [r3, #0]
200040e8:	46c0      	nop			@ (mov r8, r8)
200040ea:	46bd      	mov	sp, r7
200040ec:	b004      	add	sp, #16
200040ee:	bd80      	pop	{r7, pc}
200040f0:	20004101 	.word	0x20004101
200040f4:	2000bd18 	.word	0x2000bd18
200040f8:	0000334c 	.word	0x0000334c
200040fc:	2000be18 	.word	0x2000be18

20004100 <double_table_shim_on_use_helper>:
20004100:	b507      	push	{r0, r1, r2, lr}
20004102:	4660      	mov	r0, ip
20004104:	8801      	ldrh	r1, [r0, #0]
20004106:	0a0a      	lsrs	r2, r1, #8
20004108:	3002      	adds	r0, #2
2000410a:	2adf      	cmp	r2, #223	@ 0xdf
2000410c:	d1fa      	bne.n	20004104 <double_table_shim_on_use_helper+0x4>
2000410e:	b2c9      	uxtb	r1, r1
20004110:	0882      	lsrs	r2, r0, #2
20004112:	d304      	bcc.n	2000411e <double_table_shim_on_use_helper+0x1e>
20004114:	8802      	ldrh	r2, [r0, #0]
20004116:	8840      	ldrh	r0, [r0, #2]
20004118:	0400      	lsls	r0, r0, #16
2000411a:	4310      	orrs	r0, r2
2000411c:	e000      	b.n	20004120 <double_table_shim_on_use_helper+0x20>
2000411e:	6800      	ldr	r0, [r0, #0]
20004120:	4a01      	ldr	r2, [pc, #4]	@ (20004128 <double_table_shim_on_use_helper+0x28>)
20004122:	5050      	str	r0, [r2, r1]
20004124:	9003      	str	r0, [sp, #12]
20004126:	bd07      	pop	{r0, r1, r2, pc}
20004128:	2000bd18 	.word	0x2000bd18

2000412c <__wrap___aeabi_lmul>:
2000412c:	4351      	muls	r1, r2
2000412e:	4343      	muls	r3, r0
20004130:	18c9      	adds	r1, r1, r3
20004132:	468c      	mov	ip, r1
20004134:	0c11      	lsrs	r1, r2, #16
20004136:	b283      	uxth	r3, r0
20004138:	434b      	muls	r3, r1
2000413a:	b410      	push	{r4}
2000413c:	0c04      	lsrs	r4, r0, #16
2000413e:	4361      	muls	r1, r4
20004140:	b292      	uxth	r2, r2
20004142:	b280      	uxth	r0, r0
20004144:	4350      	muls	r0, r2
20004146:	4362      	muls	r2, r4
20004148:	041c      	lsls	r4, r3, #16
2000414a:	0c1b      	lsrs	r3, r3, #16
2000414c:	1900      	adds	r0, r0, r4
2000414e:	bc10      	pop	{r4}
20004150:	4159      	adcs	r1, r3
20004152:	0413      	lsls	r3, r2, #16
20004154:	0c12      	lsrs	r2, r2, #16
20004156:	18c0      	adds	r0, r0, r3
20004158:	4151      	adcs	r1, r2
2000415a:	4461      	add	r1, ip
2000415c:	4770      	bx	lr

2000415e <rp2040_rom_version>:
2000415e:	b580      	push	{r7, lr}
20004160:	af00      	add	r7, sp, #0
20004162:	2313      	movs	r3, #19
20004164:	781b      	ldrb	r3, [r3, #0]
20004166:	0018      	movs	r0, r3
20004168:	46bd      	mov	sp, r7
2000416a:	bd80      	pop	{r7, pc}

2000416c <rom_table_code>:
2000416c:	b580      	push	{r7, lr}
2000416e:	b082      	sub	sp, #8
20004170:	af00      	add	r7, sp, #0
20004172:	0002      	movs	r2, r0
20004174:	1dfb      	adds	r3, r7, #7
20004176:	701a      	strb	r2, [r3, #0]
20004178:	1dbb      	adds	r3, r7, #6
2000417a:	1c0a      	adds	r2, r1, #0
2000417c:	701a      	strb	r2, [r3, #0]
2000417e:	1dfb      	adds	r3, r7, #7
20004180:	781a      	ldrb	r2, [r3, #0]
20004182:	1dbb      	adds	r3, r7, #6
20004184:	781b      	ldrb	r3, [r3, #0]
20004186:	021b      	lsls	r3, r3, #8
20004188:	4313      	orrs	r3, r2
2000418a:	0018      	movs	r0, r3
2000418c:	46bd      	mov	sp, r7
2000418e:	b002      	add	sp, #8
20004190:	bd80      	pop	{r7, pc}
	...

20004194 <__aeabi_float_init>:
20004194:	b580      	push	{r7, lr}
20004196:	b084      	sub	sp, #16
20004198:	af00      	add	r7, sp, #0
2000419a:	f7ff ffe0 	bl	2000415e <rp2040_rom_version>
2000419e:	0003      	movs	r3, r0
200041a0:	60bb      	str	r3, [r7, #8]
200041a2:	2146      	movs	r1, #70	@ 0x46
200041a4:	2053      	movs	r0, #83	@ 0x53
200041a6:	f7ff ffe1 	bl	2000416c <rom_table_code>
200041aa:	0003      	movs	r3, r0
200041ac:	0018      	movs	r0, r3
200041ae:	f7ff fcc4 	bl	20003b3a <rom_data_lookup>
200041b2:	0003      	movs	r3, r0
200041b4:	607b      	str	r3, [r7, #4]
200041b6:	68bb      	ldr	r3, [r7, #8]
200041b8:	2b01      	cmp	r3, #1
200041ba:	d11a      	bne.n	200041f2 <__aeabi_float_init+0x5e>
200041bc:	6879      	ldr	r1, [r7, #4]
200041be:	4b17      	ldr	r3, [pc, #92]	@ (2000421c <__aeabi_float_init+0x88>)
200041c0:	2254      	movs	r2, #84	@ 0x54
200041c2:	0018      	movs	r0, r3
200041c4:	f000 f856 	bl	20004274 <__wrap___aeabi_memcpy>
200041c8:	2315      	movs	r3, #21
200041ca:	60fb      	str	r3, [r7, #12]
200041cc:	e007      	b.n	200041de <__aeabi_float_init+0x4a>
200041ce:	4914      	ldr	r1, [pc, #80]	@ (20004220 <__aeabi_float_init+0x8c>)
200041d0:	4b12      	ldr	r3, [pc, #72]	@ (2000421c <__aeabi_float_init+0x88>)
200041d2:	68fa      	ldr	r2, [r7, #12]
200041d4:	0092      	lsls	r2, r2, #2
200041d6:	50d1      	str	r1, [r2, r3]
200041d8:	68fb      	ldr	r3, [r7, #12]
200041da:	3301      	adds	r3, #1
200041dc:	60fb      	str	r3, [r7, #12]
200041de:	68fb      	ldr	r3, [r7, #12]
200041e0:	2b1f      	cmp	r3, #31
200041e2:	d9f4      	bls.n	200041ce <__aeabi_float_init+0x3a>
200041e4:	4a0e      	ldr	r2, [pc, #56]	@ (20004220 <__aeabi_float_init+0x8c>)
200041e6:	4b0d      	ldr	r3, [pc, #52]	@ (2000421c <__aeabi_float_init+0x88>)
200041e8:	621a      	str	r2, [r3, #32]
200041ea:	4b0c      	ldr	r3, [pc, #48]	@ (2000421c <__aeabi_float_init+0x88>)
200041ec:	6a1a      	ldr	r2, [r3, #32]
200041ee:	4b0b      	ldr	r3, [pc, #44]	@ (2000421c <__aeabi_float_init+0x88>)
200041f0:	61da      	str	r2, [r3, #28]
200041f2:	68bb      	ldr	r3, [r7, #8]
200041f4:	2b01      	cmp	r3, #1
200041f6:	dd05      	ble.n	20004204 <__aeabi_float_init+0x70>
200041f8:	6879      	ldr	r1, [r7, #4]
200041fa:	4b08      	ldr	r3, [pc, #32]	@ (2000421c <__aeabi_float_init+0x88>)
200041fc:	2280      	movs	r2, #128	@ 0x80
200041fe:	0018      	movs	r0, r3
20004200:	f000 f838 	bl	20004274 <__wrap___aeabi_memcpy>
20004204:	4b07      	ldr	r3, [pc, #28]	@ (20004224 <__aeabi_float_init+0x90>)
20004206:	0018      	movs	r0, r3
20004208:	f7ff fc7d 	bl	20003b06 <rom_func_lookup>
2000420c:	0002      	movs	r2, r0
2000420e:	4b06      	ldr	r3, [pc, #24]	@ (20004228 <__aeabi_float_init+0x94>)
20004210:	601a      	str	r2, [r3, #0]
20004212:	46c0      	nop			@ (mov r8, r8)
20004214:	46bd      	mov	sp, r7
20004216:	b004      	add	sp, #16
20004218:	bd80      	pop	{r7, pc}
2000421a:	46c0      	nop			@ (mov r8, r8)
2000421c:	2000be1c 	.word	0x2000be1c
20004220:	2000422d 	.word	0x2000422d
20004224:	0000334c 	.word	0x0000334c
20004228:	2000be18 	.word	0x2000be18

2000422c <float_table_shim_on_use_helper>:
2000422c:	b507      	push	{r0, r1, r2, lr}
2000422e:	4660      	mov	r0, ip
20004230:	8801      	ldrh	r1, [r0, #0]
20004232:	0a0a      	lsrs	r2, r1, #8
20004234:	3002      	adds	r0, #2
20004236:	2adf      	cmp	r2, #223	@ 0xdf
20004238:	d1fa      	bne.n	20004230 <float_table_shim_on_use_helper+0x4>
2000423a:	b2c9      	uxtb	r1, r1
2000423c:	0882      	lsrs	r2, r0, #2
2000423e:	d304      	bcc.n	2000424a <float_table_shim_on_use_helper+0x1e>
20004240:	8802      	ldrh	r2, [r0, #0]
20004242:	8840      	ldrh	r0, [r0, #2]
20004244:	0400      	lsls	r0, r0, #16
20004246:	4310      	orrs	r0, r2
20004248:	e000      	b.n	2000424c <float_table_shim_on_use_helper+0x20>
2000424a:	6800      	ldr	r0, [r0, #0]
2000424c:	4a01      	ldr	r2, [pc, #4]	@ (20004254 <float_table_shim_on_use_helper+0x28>)
2000424e:	5050      	str	r0, [r2, r1]
20004250:	9003      	str	r0, [sp, #12]
20004252:	bd07      	pop	{r0, r1, r2, pc}
20004254:	2000be1c 	.word	0x2000be1c

20004258 <__aeabi_mem_init>:
20004258:	4801      	ldr	r0, [pc, #4]	@ (20004260 <__aeabi_mem_init+0x8>)
2000425a:	2104      	movs	r1, #4
2000425c:	4b01      	ldr	r3, [pc, #4]	@ (20004264 <__aeabi_mem_init+0xc>)
2000425e:	4718      	bx	r3
20004260:	2000b150 	.word	0x2000b150
20004264:	20003b6b 	.word	0x20003b6b

20004268 <__wrap_memset>:
20004268:	4b01      	ldr	r3, [pc, #4]	@ (20004270 <__wrap_memset+0x8>)
2000426a:	681b      	ldr	r3, [r3, #0]
2000426c:	4718      	bx	r3
2000426e:	0000      	.short	0x0000
20004270:	2000b150 	.word	0x2000b150

20004274 <__wrap___aeabi_memcpy>:
20004274:	4b01      	ldr	r3, [pc, #4]	@ (2000427c <__wrap___aeabi_memcpy+0x8>)
20004276:	685b      	ldr	r3, [r3, #4]
20004278:	4718      	bx	r3
2000427a:	0000      	.short	0x0000
2000427c:	2000b150 	.word	0x2000b150

20004280 <to_us_since_boot>:
20004280:	b580      	push	{r7, lr}
20004282:	b082      	sub	sp, #8
20004284:	af00      	add	r7, sp, #0
20004286:	6038      	str	r0, [r7, #0]
20004288:	6079      	str	r1, [r7, #4]
2000428a:	683a      	ldr	r2, [r7, #0]
2000428c:	687b      	ldr	r3, [r7, #4]
2000428e:	0010      	movs	r0, r2
20004290:	0019      	movs	r1, r3
20004292:	46bd      	mov	sp, r7
20004294:	b002      	add	sp, #8
20004296:	bd80      	pop	{r7, pc}

20004298 <update_us_since_boot>:
20004298:	b580      	push	{r7, lr}
2000429a:	b084      	sub	sp, #16
2000429c:	af00      	add	r7, sp, #0
2000429e:	60f8      	str	r0, [r7, #12]
200042a0:	603a      	str	r2, [r7, #0]
200042a2:	607b      	str	r3, [r7, #4]
200042a4:	68f9      	ldr	r1, [r7, #12]
200042a6:	683a      	ldr	r2, [r7, #0]
200042a8:	687b      	ldr	r3, [r7, #4]
200042aa:	600a      	str	r2, [r1, #0]
200042ac:	604b      	str	r3, [r1, #4]
200042ae:	46c0      	nop			@ (mov r8, r8)
200042b0:	46bd      	mov	sp, r7
200042b2:	b004      	add	sp, #16
200042b4:	bd80      	pop	{r7, pc}

200042b6 <get_absolute_time>:
200042b6:	b580      	push	{r7, lr}
200042b8:	b082      	sub	sp, #8
200042ba:	af00      	add	r7, sp, #0
200042bc:	f7fd f9d2 	bl	20001664 <time_us_64>
200042c0:	0002      	movs	r2, r0
200042c2:	000b      	movs	r3, r1
200042c4:	0039      	movs	r1, r7
200042c6:	0008      	movs	r0, r1
200042c8:	f7ff ffe6 	bl	20004298 <update_us_since_boot>
200042cc:	683a      	ldr	r2, [r7, #0]
200042ce:	687b      	ldr	r3, [r7, #4]
200042d0:	0010      	movs	r0, r2
200042d2:	0019      	movs	r1, r3
200042d4:	46bd      	mov	sp, r7
200042d6:	b002      	add	sp, #8
200042d8:	bd80      	pop	{r7, pc}
	...

200042dc <delayed_by_ms>:
200042dc:	b5b0      	push	{r4, r5, r7, lr}
200042de:	b08a      	sub	sp, #40	@ 0x28
200042e0:	af00      	add	r7, sp, #0
200042e2:	60b8      	str	r0, [r7, #8]
200042e4:	60f9      	str	r1, [r7, #12]
200042e6:	607a      	str	r2, [r7, #4]
200042e8:	68ba      	ldr	r2, [r7, #8]
200042ea:	68fb      	ldr	r3, [r7, #12]
200042ec:	0010      	movs	r0, r2
200042ee:	0019      	movs	r1, r3
200042f0:	f7ff ffc6 	bl	20004280 <to_us_since_boot>
200042f4:	0002      	movs	r2, r0
200042f6:	000b      	movs	r3, r1
200042f8:	61ba      	str	r2, [r7, #24]
200042fa:	61fb      	str	r3, [r7, #28]
200042fc:	687b      	ldr	r3, [r7, #4]
200042fe:	001c      	movs	r4, r3
20004300:	2300      	movs	r3, #0
20004302:	001d      	movs	r5, r3
20004304:	22fa      	movs	r2, #250	@ 0xfa
20004306:	0092      	lsls	r2, r2, #2
20004308:	2300      	movs	r3, #0
2000430a:	0020      	movs	r0, r4
2000430c:	0029      	movs	r1, r5
2000430e:	f7ff ff0d 	bl	2000412c <__wrap___aeabi_lmul>
20004312:	0002      	movs	r2, r0
20004314:	000b      	movs	r3, r1
20004316:	0010      	movs	r0, r2
20004318:	0019      	movs	r1, r3
2000431a:	69ba      	ldr	r2, [r7, #24]
2000431c:	69fb      	ldr	r3, [r7, #28]
2000431e:	1812      	adds	r2, r2, r0
20004320:	414b      	adcs	r3, r1
20004322:	623a      	str	r2, [r7, #32]
20004324:	627b      	str	r3, [r7, #36]	@ 0x24
20004326:	6a3a      	ldr	r2, [r7, #32]
20004328:	6a7b      	ldr	r3, [r7, #36]	@ 0x24
2000432a:	2b00      	cmp	r3, #0
2000432c:	da04      	bge.n	20004338 <delayed_by_ms+0x5c>
2000432e:	2201      	movs	r2, #1
20004330:	4252      	negs	r2, r2
20004332:	4b08      	ldr	r3, [pc, #32]	@ (20004354 <delayed_by_ms+0x78>)
20004334:	623a      	str	r2, [r7, #32]
20004336:	627b      	str	r3, [r7, #36]	@ 0x24
20004338:	6a3a      	ldr	r2, [r7, #32]
2000433a:	6a7b      	ldr	r3, [r7, #36]	@ 0x24
2000433c:	2110      	movs	r1, #16
2000433e:	1879      	adds	r1, r7, r1
20004340:	0008      	movs	r0, r1
20004342:	f7ff ffa9 	bl	20004298 <update_us_since_boot>
20004346:	693a      	ldr	r2, [r7, #16]
20004348:	697b      	ldr	r3, [r7, #20]
2000434a:	0010      	movs	r0, r2
2000434c:	0019      	movs	r1, r3
2000434e:	46bd      	mov	sp, r7
20004350:	b00a      	add	sp, #40	@ 0x28
20004352:	bdb0      	pop	{r4, r5, r7, pc}
20004354:	7fffffff 	.word	0x7fffffff

20004358 <make_timeout_time_ms>:
20004358:	b580      	push	{r7, lr}
2000435a:	b082      	sub	sp, #8
2000435c:	af00      	add	r7, sp, #0
2000435e:	6078      	str	r0, [r7, #4]
20004360:	f7ff ffa9 	bl	200042b6 <get_absolute_time>
20004364:	687b      	ldr	r3, [r7, #4]
20004366:	001a      	movs	r2, r3
20004368:	f7ff ffb8 	bl	200042dc <delayed_by_ms>
2000436c:	0002      	movs	r2, r0
2000436e:	000b      	movs	r3, r1
20004370:	0010      	movs	r0, r2
20004372:	0019      	movs	r1, r3
20004374:	46bd      	mov	sp, r7
20004376:	b002      	add	sp, #8
20004378:	bd80      	pop	{r7, pc}
	...

2000437c <stdout_serialize_begin>:
2000437c:	b580      	push	{r7, lr}
2000437e:	af00      	add	r7, sp, #0
20004380:	23fa      	movs	r3, #250	@ 0xfa
20004382:	009b      	lsls	r3, r3, #2
20004384:	0018      	movs	r0, r3
20004386:	f7ff ffe7 	bl	20004358 <make_timeout_time_ms>
2000438a:	0002      	movs	r2, r0
2000438c:	000b      	movs	r3, r1
2000438e:	4904      	ldr	r1, [pc, #16]	@ (200043a0 <stdout_serialize_begin+0x24>)
20004390:	0008      	movs	r0, r1
20004392:	f005 fbf6 	bl	20009b82 <mutex_try_enter_block_until>
20004396:	0003      	movs	r3, r0
20004398:	0018      	movs	r0, r3
2000439a:	46bd      	mov	sp, r7
2000439c:	bd80      	pop	{r7, pc}
2000439e:	46c0      	nop			@ (mov r8, r8)
200043a0:	2000b1a8 	.word	0x2000b1a8

200043a4 <stdout_serialize_end>:
200043a4:	b580      	push	{r7, lr}
200043a6:	af00      	add	r7, sp, #0
200043a8:	4b03      	ldr	r3, [pc, #12]	@ (200043b8 <stdout_serialize_end+0x14>)
200043aa:	0018      	movs	r0, r3
200043ac:	f005 fc93 	bl	20009cd6 <mutex_exit>
200043b0:	46c0      	nop			@ (mov r8, r8)
200043b2:	46bd      	mov	sp, r7
200043b4:	bd80      	pop	{r7, pc}
200043b6:	46c0      	nop			@ (mov r8, r8)
200043b8:	2000b1a8 	.word	0x2000b1a8

200043bc <stdio_out_chars_no_crlf>:
200043bc:	b580      	push	{r7, lr}
200043be:	b084      	sub	sp, #16
200043c0:	af00      	add	r7, sp, #0
200043c2:	60f8      	str	r0, [r7, #12]
200043c4:	60b9      	str	r1, [r7, #8]
200043c6:	607a      	str	r2, [r7, #4]
200043c8:	68fb      	ldr	r3, [r7, #12]
200043ca:	681b      	ldr	r3, [r3, #0]
200043cc:	6879      	ldr	r1, [r7, #4]
200043ce:	68ba      	ldr	r2, [r7, #8]
200043d0:	0010      	movs	r0, r2
200043d2:	4798      	blx	r3
200043d4:	46c0      	nop			@ (mov r8, r8)
200043d6:	46bd      	mov	sp, r7
200043d8:	b004      	add	sp, #16
200043da:	bd80      	pop	{r7, pc}

200043dc <stdio_out_chars_crlf>:
200043dc:	b580      	push	{r7, lr}
200043de:	b088      	sub	sp, #32
200043e0:	af00      	add	r7, sp, #0
200043e2:	60f8      	str	r0, [r7, #12]
200043e4:	60b9      	str	r1, [r7, #8]
200043e6:	607a      	str	r2, [r7, #4]
200043e8:	68fb      	ldr	r3, [r7, #12]
200043ea:	7d5b      	ldrb	r3, [r3, #21]
200043ec:	2201      	movs	r2, #1
200043ee:	4053      	eors	r3, r2
200043f0:	b2db      	uxtb	r3, r3
200043f2:	2b00      	cmp	r3, #0
200043f4:	d006      	beq.n	20004404 <stdio_out_chars_crlf+0x28>
200043f6:	68fb      	ldr	r3, [r7, #12]
200043f8:	681b      	ldr	r3, [r3, #0]
200043fa:	6879      	ldr	r1, [r7, #4]
200043fc:	68ba      	ldr	r2, [r7, #8]
200043fe:	0010      	movs	r0, r2
20004400:	4798      	blx	r3
20004402:	e060      	b.n	200044c6 <stdio_out_chars_crlf+0xea>
20004404:	2300      	movs	r3, #0
20004406:	61fb      	str	r3, [r7, #28]
20004408:	2300      	movs	r3, #0
2000440a:	61bb      	str	r3, [r7, #24]
2000440c:	e03b      	b.n	20004486 <stdio_out_chars_crlf+0xaa>
2000440e:	69bb      	ldr	r3, [r7, #24]
20004410:	2b00      	cmp	r3, #0
20004412:	dd09      	ble.n	20004428 <stdio_out_chars_crlf+0x4c>
20004414:	69bb      	ldr	r3, [r7, #24]
20004416:	3b01      	subs	r3, #1
20004418:	68ba      	ldr	r2, [r7, #8]
2000441a:	18d3      	adds	r3, r2, r3
2000441c:	781b      	ldrb	r3, [r3, #0]
2000441e:	3b0d      	subs	r3, #13
20004420:	425a      	negs	r2, r3
20004422:	4153      	adcs	r3, r2
20004424:	b2db      	uxtb	r3, r3
20004426:	e004      	b.n	20004432 <stdio_out_chars_crlf+0x56>
20004428:	68fb      	ldr	r3, [r7, #12]
2000442a:	7d1b      	ldrb	r3, [r3, #20]
2000442c:	1e5a      	subs	r2, r3, #1
2000442e:	4193      	sbcs	r3, r2
20004430:	b2db      	uxtb	r3, r3
20004432:	2117      	movs	r1, #23
20004434:	187a      	adds	r2, r7, r1
20004436:	7013      	strb	r3, [r2, #0]
20004438:	69bb      	ldr	r3, [r7, #24]
2000443a:	68ba      	ldr	r2, [r7, #8]
2000443c:	18d3      	adds	r3, r2, r3
2000443e:	781b      	ldrb	r3, [r3, #0]
20004440:	2b0a      	cmp	r3, #10
20004442:	d11d      	bne.n	20004480 <stdio_out_chars_crlf+0xa4>
20004444:	187b      	adds	r3, r7, r1
20004446:	781b      	ldrb	r3, [r3, #0]
20004448:	2201      	movs	r2, #1
2000444a:	4053      	eors	r3, r2
2000444c:	b2db      	uxtb	r3, r3
2000444e:	2b00      	cmp	r3, #0
20004450:	d016      	beq.n	20004480 <stdio_out_chars_crlf+0xa4>
20004452:	69ba      	ldr	r2, [r7, #24]
20004454:	69fb      	ldr	r3, [r7, #28]
20004456:	429a      	cmp	r2, r3
20004458:	dd09      	ble.n	2000446e <stdio_out_chars_crlf+0x92>
2000445a:	68fb      	ldr	r3, [r7, #12]
2000445c:	681b      	ldr	r3, [r3, #0]
2000445e:	69fa      	ldr	r2, [r7, #28]
20004460:	68b9      	ldr	r1, [r7, #8]
20004462:	1888      	adds	r0, r1, r2
20004464:	69b9      	ldr	r1, [r7, #24]
20004466:	69fa      	ldr	r2, [r7, #28]
20004468:	1a8a      	subs	r2, r1, r2
2000446a:	0011      	movs	r1, r2
2000446c:	4798      	blx	r3
2000446e:	68fb      	ldr	r3, [r7, #12]
20004470:	681b      	ldr	r3, [r3, #0]
20004472:	4a16      	ldr	r2, [pc, #88]	@ (200044cc <stdio_out_chars_crlf+0xf0>)
20004474:	2102      	movs	r1, #2
20004476:	0010      	movs	r0, r2
20004478:	4798      	blx	r3
2000447a:	69bb      	ldr	r3, [r7, #24]
2000447c:	3301      	adds	r3, #1
2000447e:	61fb      	str	r3, [r7, #28]
20004480:	69bb      	ldr	r3, [r7, #24]
20004482:	3301      	adds	r3, #1
20004484:	61bb      	str	r3, [r7, #24]
20004486:	69ba      	ldr	r2, [r7, #24]
20004488:	687b      	ldr	r3, [r7, #4]
2000448a:	429a      	cmp	r2, r3
2000448c:	dbbf      	blt.n	2000440e <stdio_out_chars_crlf+0x32>
2000448e:	69fa      	ldr	r2, [r7, #28]
20004490:	687b      	ldr	r3, [r7, #4]
20004492:	429a      	cmp	r2, r3
20004494:	da09      	bge.n	200044aa <stdio_out_chars_crlf+0xce>
20004496:	68fb      	ldr	r3, [r7, #12]
20004498:	681b      	ldr	r3, [r3, #0]
2000449a:	69fa      	ldr	r2, [r7, #28]
2000449c:	68b9      	ldr	r1, [r7, #8]
2000449e:	1888      	adds	r0, r1, r2
200044a0:	6879      	ldr	r1, [r7, #4]
200044a2:	69fa      	ldr	r2, [r7, #28]
200044a4:	1a8a      	subs	r2, r1, r2
200044a6:	0011      	movs	r1, r2
200044a8:	4798      	blx	r3
200044aa:	687b      	ldr	r3, [r7, #4]
200044ac:	2b00      	cmp	r3, #0
200044ae:	dd0a      	ble.n	200044c6 <stdio_out_chars_crlf+0xea>
200044b0:	687b      	ldr	r3, [r7, #4]
200044b2:	3b01      	subs	r3, #1
200044b4:	68ba      	ldr	r2, [r7, #8]
200044b6:	18d3      	adds	r3, r2, r3
200044b8:	781b      	ldrb	r3, [r3, #0]
200044ba:	3b0d      	subs	r3, #13
200044bc:	425a      	negs	r2, r3
200044be:	4153      	adcs	r3, r2
200044c0:	b2da      	uxtb	r2, r3
200044c2:	68fb      	ldr	r3, [r7, #12]
200044c4:	751a      	strb	r2, [r3, #20]
200044c6:	46bd      	mov	sp, r7
200044c8:	b008      	add	sp, #32
200044ca:	bd80      	pop	{r7, pc}
200044cc:	2000ae58 	.word	0x2000ae58

200044d0 <stdio_put_string>:
200044d0:	b590      	push	{r4, r7, lr}
200044d2:	b089      	sub	sp, #36	@ 0x24
200044d4:	af00      	add	r7, sp, #0
200044d6:	60f8      	str	r0, [r7, #12]
200044d8:	60b9      	str	r1, [r7, #8]
200044da:	0019      	movs	r1, r3
200044dc:	1dfb      	adds	r3, r7, #7
200044de:	701a      	strb	r2, [r3, #0]
200044e0:	1dbb      	adds	r3, r7, #6
200044e2:	1c0a      	adds	r2, r1, #0
200044e4:	701a      	strb	r2, [r3, #0]
200044e6:	231b      	movs	r3, #27
200044e8:	18fc      	adds	r4, r7, r3
200044ea:	f7ff ff47 	bl	2000437c <stdout_serialize_begin>
200044ee:	0003      	movs	r3, r0
200044f0:	7023      	strb	r3, [r4, #0]
200044f2:	68bb      	ldr	r3, [r7, #8]
200044f4:	3301      	adds	r3, #1
200044f6:	d105      	bne.n	20004504 <stdio_put_string+0x34>
200044f8:	68fb      	ldr	r3, [r7, #12]
200044fa:	0018      	movs	r0, r3
200044fc:	f005 fab2 	bl	20009a64 <strlen>
20004500:	0003      	movs	r3, r0
20004502:	60bb      	str	r3, [r7, #8]
20004504:	1dbb      	adds	r3, r7, #6
20004506:	781b      	ldrb	r3, [r3, #0]
20004508:	2b00      	cmp	r3, #0
2000450a:	d001      	beq.n	20004510 <stdio_put_string+0x40>
2000450c:	4b1f      	ldr	r3, [pc, #124]	@ (2000458c <stdio_put_string+0xbc>)
2000450e:	e000      	b.n	20004512 <stdio_put_string+0x42>
20004510:	4b1f      	ldr	r3, [pc, #124]	@ (20004590 <stdio_put_string+0xc0>)
20004512:	617b      	str	r3, [r7, #20]
20004514:	4b1f      	ldr	r3, [pc, #124]	@ (20004594 <stdio_put_string+0xc4>)
20004516:	681b      	ldr	r3, [r3, #0]
20004518:	61fb      	str	r3, [r7, #28]
2000451a:	e025      	b.n	20004568 <stdio_put_string+0x98>
2000451c:	69fb      	ldr	r3, [r7, #28]
2000451e:	681b      	ldr	r3, [r3, #0]
20004520:	2b00      	cmp	r3, #0
20004522:	d01b      	beq.n	2000455c <stdio_put_string+0x8c>
20004524:	4b1c      	ldr	r3, [pc, #112]	@ (20004598 <stdio_put_string+0xc8>)
20004526:	681b      	ldr	r3, [r3, #0]
20004528:	2b00      	cmp	r3, #0
2000452a:	d004      	beq.n	20004536 <stdio_put_string+0x66>
2000452c:	4b1a      	ldr	r3, [pc, #104]	@ (20004598 <stdio_put_string+0xc8>)
2000452e:	681b      	ldr	r3, [r3, #0]
20004530:	69fa      	ldr	r2, [r7, #28]
20004532:	429a      	cmp	r2, r3
20004534:	d114      	bne.n	20004560 <stdio_put_string+0x90>
20004536:	68ba      	ldr	r2, [r7, #8]
20004538:	68f9      	ldr	r1, [r7, #12]
2000453a:	69f8      	ldr	r0, [r7, #28]
2000453c:	697b      	ldr	r3, [r7, #20]
2000453e:	4798      	blx	r3
20004540:	1dfb      	adds	r3, r7, #7
20004542:	781b      	ldrb	r3, [r3, #0]
20004544:	2b00      	cmp	r3, #0
20004546:	d00c      	beq.n	20004562 <stdio_put_string+0x92>
20004548:	2113      	movs	r1, #19
2000454a:	187b      	adds	r3, r7, r1
2000454c:	220a      	movs	r2, #10
2000454e:	701a      	strb	r2, [r3, #0]
20004550:	1879      	adds	r1, r7, r1
20004552:	69f8      	ldr	r0, [r7, #28]
20004554:	697b      	ldr	r3, [r7, #20]
20004556:	2201      	movs	r2, #1
20004558:	4798      	blx	r3
2000455a:	e002      	b.n	20004562 <stdio_put_string+0x92>
2000455c:	46c0      	nop			@ (mov r8, r8)
2000455e:	e000      	b.n	20004562 <stdio_put_string+0x92>
20004560:	46c0      	nop			@ (mov r8, r8)
20004562:	69fb      	ldr	r3, [r7, #28]
20004564:	691b      	ldr	r3, [r3, #16]
20004566:	61fb      	str	r3, [r7, #28]
20004568:	69fb      	ldr	r3, [r7, #28]
2000456a:	2b00      	cmp	r3, #0
2000456c:	d1d6      	bne.n	2000451c <stdio_put_string+0x4c>
2000456e:	231b      	movs	r3, #27
20004570:	18fb      	adds	r3, r7, r3
20004572:	781b      	ldrb	r3, [r3, #0]
20004574:	2b00      	cmp	r3, #0
20004576:	d001      	beq.n	2000457c <stdio_put_string+0xac>
20004578:	f7ff ff14 	bl	200043a4 <stdout_serialize_end>
2000457c:	68bb      	ldr	r3, [r7, #8]
2000457e:	1e5a      	subs	r2, r3, #1
20004580:	4193      	sbcs	r3, r2
20004582:	b2db      	uxtb	r3, r3
20004584:	0018      	movs	r0, r3
20004586:	46bd      	mov	sp, r7
20004588:	b009      	add	sp, #36	@ 0x24
2000458a:	bd90      	pop	{r4, r7, pc}
2000458c:	200043bd 	.word	0x200043bd
20004590:	200043dd 	.word	0x200043dd
20004594:	2000b8c8 	.word	0x2000b8c8
20004598:	2000b8d0 	.word	0x2000b8d0

2000459c <__wrap_putchar>:
2000459c:	b580      	push	{r7, lr}
2000459e:	b084      	sub	sp, #16
200045a0:	af00      	add	r7, sp, #0
200045a2:	6078      	str	r0, [r7, #4]
200045a4:	687b      	ldr	r3, [r7, #4]
200045a6:	b2da      	uxtb	r2, r3
200045a8:	210f      	movs	r1, #15
200045aa:	187b      	adds	r3, r7, r1
200045ac:	701a      	strb	r2, [r3, #0]
200045ae:	1878      	adds	r0, r7, r1
200045b0:	2300      	movs	r3, #0
200045b2:	2200      	movs	r2, #0
200045b4:	2101      	movs	r1, #1
200045b6:	f7ff ff8b 	bl	200044d0 <stdio_put_string>
200045ba:	687b      	ldr	r3, [r7, #4]
200045bc:	0018      	movs	r0, r3
200045be:	46bd      	mov	sp, r7
200045c0:	b004      	add	sp, #16
200045c2:	bd80      	pop	{r7, pc}

200045c4 <__wrap_puts>:
200045c4:	b580      	push	{r7, lr}
200045c6:	b084      	sub	sp, #16
200045c8:	af00      	add	r7, sp, #0
200045ca:	6078      	str	r0, [r7, #4]
200045cc:	687b      	ldr	r3, [r7, #4]
200045ce:	0018      	movs	r0, r3
200045d0:	f005 fa48 	bl	20009a64 <strlen>
200045d4:	0003      	movs	r3, r0
200045d6:	60fb      	str	r3, [r7, #12]
200045d8:	68f9      	ldr	r1, [r7, #12]
200045da:	6878      	ldr	r0, [r7, #4]
200045dc:	2300      	movs	r3, #0
200045de:	2201      	movs	r2, #1
200045e0:	f7ff ff76 	bl	200044d0 <stdio_put_string>
200045e4:	f000 f83a 	bl	2000465c <stdio_flush>
200045e8:	68fb      	ldr	r3, [r7, #12]
200045ea:	0018      	movs	r0, r3
200045ec:	46bd      	mov	sp, r7
200045ee:	b004      	add	sp, #16
200045f0:	bd80      	pop	{r7, pc}
	...

200045f4 <stdio_set_driver_enabled>:
200045f4:	b580      	push	{r7, lr}
200045f6:	b084      	sub	sp, #16
200045f8:	af00      	add	r7, sp, #0
200045fa:	6078      	str	r0, [r7, #4]
200045fc:	000a      	movs	r2, r1
200045fe:	1cfb      	adds	r3, r7, #3
20004600:	701a      	strb	r2, [r3, #0]
20004602:	4b15      	ldr	r3, [pc, #84]	@ (20004658 <stdio_set_driver_enabled+0x64>)
20004604:	60fb      	str	r3, [r7, #12]
20004606:	e017      	b.n	20004638 <stdio_set_driver_enabled+0x44>
20004608:	68fb      	ldr	r3, [r7, #12]
2000460a:	681b      	ldr	r3, [r3, #0]
2000460c:	687a      	ldr	r2, [r7, #4]
2000460e:	429a      	cmp	r2, r3
20004610:	d10e      	bne.n	20004630 <stdio_set_driver_enabled+0x3c>
20004612:	1cfb      	adds	r3, r7, #3
20004614:	781b      	ldrb	r3, [r3, #0]
20004616:	2201      	movs	r2, #1
20004618:	4053      	eors	r3, r2
2000461a:	b2db      	uxtb	r3, r3
2000461c:	2b00      	cmp	r3, #0
2000461e:	d017      	beq.n	20004650 <stdio_set_driver_enabled+0x5c>
20004620:	687b      	ldr	r3, [r7, #4]
20004622:	691a      	ldr	r2, [r3, #16]
20004624:	68fb      	ldr	r3, [r7, #12]
20004626:	601a      	str	r2, [r3, #0]
20004628:	687b      	ldr	r3, [r7, #4]
2000462a:	2200      	movs	r2, #0
2000462c:	611a      	str	r2, [r3, #16]
2000462e:	e00f      	b.n	20004650 <stdio_set_driver_enabled+0x5c>
20004630:	68fb      	ldr	r3, [r7, #12]
20004632:	681b      	ldr	r3, [r3, #0]
20004634:	3310      	adds	r3, #16
20004636:	60fb      	str	r3, [r7, #12]
20004638:	68fb      	ldr	r3, [r7, #12]
2000463a:	681b      	ldr	r3, [r3, #0]
2000463c:	2b00      	cmp	r3, #0
2000463e:	d1e3      	bne.n	20004608 <stdio_set_driver_enabled+0x14>
20004640:	1cfb      	adds	r3, r7, #3
20004642:	781b      	ldrb	r3, [r3, #0]
20004644:	2b00      	cmp	r3, #0
20004646:	d004      	beq.n	20004652 <stdio_set_driver_enabled+0x5e>
20004648:	68fb      	ldr	r3, [r7, #12]
2000464a:	687a      	ldr	r2, [r7, #4]
2000464c:	601a      	str	r2, [r3, #0]
2000464e:	e000      	b.n	20004652 <stdio_set_driver_enabled+0x5e>
20004650:	46c0      	nop			@ (mov r8, r8)
20004652:	46bd      	mov	sp, r7
20004654:	b004      	add	sp, #16
20004656:	bd80      	pop	{r7, pc}
20004658:	2000b8c8 	.word	0x2000b8c8

2000465c <stdio_flush>:
2000465c:	b580      	push	{r7, lr}
2000465e:	b082      	sub	sp, #8
20004660:	af00      	add	r7, sp, #0
20004662:	4b0b      	ldr	r3, [pc, #44]	@ (20004690 <stdio_flush+0x34>)
20004664:	681b      	ldr	r3, [r3, #0]
20004666:	607b      	str	r3, [r7, #4]
20004668:	e009      	b.n	2000467e <stdio_flush+0x22>
2000466a:	687b      	ldr	r3, [r7, #4]
2000466c:	685b      	ldr	r3, [r3, #4]
2000466e:	2b00      	cmp	r3, #0
20004670:	d002      	beq.n	20004678 <stdio_flush+0x1c>
20004672:	687b      	ldr	r3, [r7, #4]
20004674:	685b      	ldr	r3, [r3, #4]
20004676:	4798      	blx	r3
20004678:	687b      	ldr	r3, [r7, #4]
2000467a:	691b      	ldr	r3, [r3, #16]
2000467c:	607b      	str	r3, [r7, #4]
2000467e:	687b      	ldr	r3, [r7, #4]
20004680:	2b00      	cmp	r3, #0
20004682:	d1f2      	bne.n	2000466a <stdio_flush+0xe>
20004684:	46c0      	nop			@ (mov r8, r8)
20004686:	46c0      	nop			@ (mov r8, r8)
20004688:	46bd      	mov	sp, r7
2000468a:	b002      	add	sp, #8
2000468c:	bd80      	pop	{r7, pc}
2000468e:	46c0      	nop			@ (mov r8, r8)
20004690:	2000b8c8 	.word	0x2000b8c8

20004694 <stdio_init_all>:
20004694:	b580      	push	{r7, lr}
20004696:	b082      	sub	sp, #8
20004698:	af00      	add	r7, sp, #0
2000469a:	1dfb      	adds	r3, r7, #7
2000469c:	2200      	movs	r2, #0
2000469e:	701a      	strb	r2, [r3, #0]
200046a0:	f000 fc1c 	bl	20004edc <stdio_usb_init>
200046a4:	0003      	movs	r3, r0
200046a6:	001a      	movs	r2, r3
200046a8:	1dfb      	adds	r3, r7, #7
200046aa:	781b      	ldrb	r3, [r3, #0]
200046ac:	4313      	orrs	r3, r2
200046ae:	b2db      	uxtb	r3, r3
200046b0:	001a      	movs	r2, r3
200046b2:	1dfb      	adds	r3, r7, #7
200046b4:	1e51      	subs	r1, r2, #1
200046b6:	418a      	sbcs	r2, r1
200046b8:	701a      	strb	r2, [r3, #0]
200046ba:	1dfb      	adds	r3, r7, #7
200046bc:	781b      	ldrb	r3, [r3, #0]
200046be:	0018      	movs	r0, r3
200046c0:	46bd      	mov	sp, r7
200046c2:	b002      	add	sp, #8
200046c4:	bd80      	pop	{r7, pc}
	...

200046c8 <reset_usb_boot>:
200046c8:	b580      	push	{r7, lr}
200046ca:	b084      	sub	sp, #16
200046cc:	af00      	add	r7, sp, #0
200046ce:	6078      	str	r0, [r7, #4]
200046d0:	6039      	str	r1, [r7, #0]
200046d2:	4b05      	ldr	r3, [pc, #20]	@ (200046e8 <reset_usb_boot+0x20>)
200046d4:	0018      	movs	r0, r3
200046d6:	f7ff fa16 	bl	20003b06 <rom_func_lookup>
200046da:	0003      	movs	r3, r0
200046dc:	60fb      	str	r3, [r7, #12]
200046de:	6839      	ldr	r1, [r7, #0]
200046e0:	687a      	ldr	r2, [r7, #4]
200046e2:	68fb      	ldr	r3, [r7, #12]
200046e4:	0010      	movs	r0, r2
200046e6:	4798      	blx	r3
200046e8:	00004255 	.word	0x00004255

200046ec <resetd_init>:
200046ec:	b580      	push	{r7, lr}
200046ee:	af00      	add	r7, sp, #0
200046f0:	46c0      	nop			@ (mov r8, r8)
200046f2:	46bd      	mov	sp, r7
200046f4:	bd80      	pop	{r7, pc}
	...

200046f8 <resetd_reset>:
200046f8:	b580      	push	{r7, lr}
200046fa:	b082      	sub	sp, #8
200046fc:	af00      	add	r7, sp, #0
200046fe:	0002      	movs	r2, r0
20004700:	1dfb      	adds	r3, r7, #7
20004702:	701a      	strb	r2, [r3, #0]
20004704:	4b03      	ldr	r3, [pc, #12]	@ (20004714 <resetd_reset+0x1c>)
20004706:	2200      	movs	r2, #0
20004708:	701a      	strb	r2, [r3, #0]
2000470a:	46c0      	nop			@ (mov r8, r8)
2000470c:	46bd      	mov	sp, r7
2000470e:	b002      	add	sp, #8
20004710:	bd80      	pop	{r7, pc}
20004712:	46c0      	nop			@ (mov r8, r8)
20004714:	2000bf4e 	.word	0x2000bf4e

20004718 <resetd_open>:
20004718:	b580      	push	{r7, lr}
2000471a:	b084      	sub	sp, #16
2000471c:	af00      	add	r7, sp, #0
2000471e:	6039      	str	r1, [r7, #0]
20004720:	0011      	movs	r1, r2
20004722:	1dfb      	adds	r3, r7, #7
20004724:	1c02      	adds	r2, r0, #0
20004726:	701a      	strb	r2, [r3, #0]
20004728:	1d3b      	adds	r3, r7, #4
2000472a:	1c0a      	adds	r2, r1, #0
2000472c:	801a      	strh	r2, [r3, #0]
2000472e:	683b      	ldr	r3, [r7, #0]
20004730:	795b      	ldrb	r3, [r3, #5]
20004732:	2bff      	cmp	r3, #255	@ 0xff
20004734:	d107      	bne.n	20004746 <resetd_open+0x2e>
20004736:	683b      	ldr	r3, [r7, #0]
20004738:	799b      	ldrb	r3, [r3, #6]
2000473a:	2b00      	cmp	r3, #0
2000473c:	d103      	bne.n	20004746 <resetd_open+0x2e>
2000473e:	683b      	ldr	r3, [r7, #0]
20004740:	79db      	ldrb	r3, [r3, #7]
20004742:	2b01      	cmp	r3, #1
20004744:	d001      	beq.n	2000474a <resetd_open+0x32>
20004746:	2300      	movs	r3, #0
20004748:	e012      	b.n	20004770 <resetd_open+0x58>
2000474a:	210e      	movs	r1, #14
2000474c:	187b      	adds	r3, r7, r1
2000474e:	2209      	movs	r2, #9
20004750:	801a      	strh	r2, [r3, #0]
20004752:	1d3a      	adds	r2, r7, #4
20004754:	187b      	adds	r3, r7, r1
20004756:	8812      	ldrh	r2, [r2, #0]
20004758:	881b      	ldrh	r3, [r3, #0]
2000475a:	429a      	cmp	r2, r3
2000475c:	d201      	bcs.n	20004762 <resetd_open+0x4a>
2000475e:	2300      	movs	r3, #0
20004760:	e006      	b.n	20004770 <resetd_open+0x58>
20004762:	683b      	ldr	r3, [r7, #0]
20004764:	789a      	ldrb	r2, [r3, #2]
20004766:	4b04      	ldr	r3, [pc, #16]	@ (20004778 <resetd_open+0x60>)
20004768:	701a      	strb	r2, [r3, #0]
2000476a:	230e      	movs	r3, #14
2000476c:	18fb      	adds	r3, r7, r3
2000476e:	881b      	ldrh	r3, [r3, #0]
20004770:	0018      	movs	r0, r3
20004772:	46bd      	mov	sp, r7
20004774:	b004      	add	sp, #16
20004776:	bd80      	pop	{r7, pc}
20004778:	2000bf4e 	.word	0x2000bf4e

2000477c <resetd_control_xfer_cb>:
2000477c:	b580      	push	{r7, lr}
2000477e:	b084      	sub	sp, #16
20004780:	af00      	add	r7, sp, #0
20004782:	603a      	str	r2, [r7, #0]
20004784:	1dfb      	adds	r3, r7, #7
20004786:	1c02      	adds	r2, r0, #0
20004788:	701a      	strb	r2, [r3, #0]
2000478a:	1dbb      	adds	r3, r7, #6
2000478c:	1c0a      	adds	r2, r1, #0
2000478e:	701a      	strb	r2, [r3, #0]
20004790:	1dbb      	adds	r3, r7, #6
20004792:	781b      	ldrb	r3, [r3, #0]
20004794:	2b01      	cmp	r3, #1
20004796:	d001      	beq.n	2000479c <resetd_control_xfer_cb+0x20>
20004798:	2301      	movs	r3, #1
2000479a:	e040      	b.n	2000481e <resetd_control_xfer_cb+0xa2>
2000479c:	683b      	ldr	r3, [r7, #0]
2000479e:	791a      	ldrb	r2, [r3, #4]
200047a0:	795b      	ldrb	r3, [r3, #5]
200047a2:	021b      	lsls	r3, r3, #8
200047a4:	4313      	orrs	r3, r2
200047a6:	b29b      	uxth	r3, r3
200047a8:	4a1f      	ldr	r2, [pc, #124]	@ (20004828 <resetd_control_xfer_cb+0xac>)
200047aa:	7812      	ldrb	r2, [r2, #0]
200047ac:	4293      	cmp	r3, r2
200047ae:	d135      	bne.n	2000481c <resetd_control_xfer_cb+0xa0>
200047b0:	683b      	ldr	r3, [r7, #0]
200047b2:	785b      	ldrb	r3, [r3, #1]
200047b4:	2b01      	cmp	r3, #1
200047b6:	d126      	bne.n	20004806 <resetd_control_xfer_cb+0x8a>
200047b8:	2300      	movs	r3, #0
200047ba:	60fb      	str	r3, [r7, #12]
200047bc:	683b      	ldr	r3, [r7, #0]
200047be:	789a      	ldrb	r2, [r3, #2]
200047c0:	78db      	ldrb	r3, [r3, #3]
200047c2:	021b      	lsls	r3, r3, #8
200047c4:	4313      	orrs	r3, r2
200047c6:	b29b      	uxth	r3, r3
200047c8:	001a      	movs	r2, r3
200047ca:	2380      	movs	r3, #128	@ 0x80
200047cc:	005b      	lsls	r3, r3, #1
200047ce:	4013      	ands	r3, r2
200047d0:	d00b      	beq.n	200047ea <resetd_control_xfer_cb+0x6e>
200047d2:	683b      	ldr	r3, [r7, #0]
200047d4:	789a      	ldrb	r2, [r3, #2]
200047d6:	78db      	ldrb	r3, [r3, #3]
200047d8:	021b      	lsls	r3, r3, #8
200047da:	4313      	orrs	r3, r2
200047dc:	b29b      	uxth	r3, r3
200047de:	0a5b      	lsrs	r3, r3, #9
200047e0:	b29b      	uxth	r3, r3
200047e2:	001a      	movs	r2, r3
200047e4:	2301      	movs	r3, #1
200047e6:	4093      	lsls	r3, r2
200047e8:	60fb      	str	r3, [r7, #12]
200047ea:	683b      	ldr	r3, [r7, #0]
200047ec:	789a      	ldrb	r2, [r3, #2]
200047ee:	78db      	ldrb	r3, [r3, #3]
200047f0:	021b      	lsls	r3, r3, #8
200047f2:	4313      	orrs	r3, r2
200047f4:	b29b      	uxth	r3, r3
200047f6:	001a      	movs	r2, r3
200047f8:	237f      	movs	r3, #127	@ 0x7f
200047fa:	401a      	ands	r2, r3
200047fc:	68fb      	ldr	r3, [r7, #12]
200047fe:	0011      	movs	r1, r2
20004800:	0018      	movs	r0, r3
20004802:	f7ff ff61 	bl	200046c8 <reset_usb_boot>
20004806:	683b      	ldr	r3, [r7, #0]
20004808:	785b      	ldrb	r3, [r3, #1]
2000480a:	2b02      	cmp	r3, #2
2000480c:	d106      	bne.n	2000481c <resetd_control_xfer_cb+0xa0>
2000480e:	2264      	movs	r2, #100	@ 0x64
20004810:	2100      	movs	r1, #0
20004812:	2000      	movs	r0, #0
20004814:	f7fe ffbc 	bl	20003790 <watchdog_reboot>
20004818:	2301      	movs	r3, #1
2000481a:	e000      	b.n	2000481e <resetd_control_xfer_cb+0xa2>
2000481c:	2300      	movs	r3, #0
2000481e:	0018      	movs	r0, r3
20004820:	46bd      	mov	sp, r7
20004822:	b004      	add	sp, #16
20004824:	bd80      	pop	{r7, pc}
20004826:	46c0      	nop			@ (mov r8, r8)
20004828:	2000bf4e 	.word	0x2000bf4e

2000482c <resetd_xfer_cb>:
2000482c:	b590      	push	{r4, r7, lr}
2000482e:	b083      	sub	sp, #12
20004830:	af00      	add	r7, sp, #0
20004832:	0004      	movs	r4, r0
20004834:	0008      	movs	r0, r1
20004836:	0011      	movs	r1, r2
20004838:	603b      	str	r3, [r7, #0]
2000483a:	1dfb      	adds	r3, r7, #7
2000483c:	1c22      	adds	r2, r4, #0
2000483e:	701a      	strb	r2, [r3, #0]
20004840:	1dbb      	adds	r3, r7, #6
20004842:	1c02      	adds	r2, r0, #0
20004844:	701a      	strb	r2, [r3, #0]
20004846:	1d7b      	adds	r3, r7, #5
20004848:	1c0a      	adds	r2, r1, #0
2000484a:	701a      	strb	r2, [r3, #0]
2000484c:	2301      	movs	r3, #1
2000484e:	0018      	movs	r0, r3
20004850:	46bd      	mov	sp, r7
20004852:	b003      	add	sp, #12
20004854:	bd90      	pop	{r4, r7, pc}
	...

20004858 <usbd_app_driver_get_cb>:
20004858:	b580      	push	{r7, lr}
2000485a:	b082      	sub	sp, #8
2000485c:	af00      	add	r7, sp, #0
2000485e:	6078      	str	r0, [r7, #4]
20004860:	687b      	ldr	r3, [r7, #4]
20004862:	2201      	movs	r2, #1
20004864:	701a      	strb	r2, [r3, #0]
20004866:	4b02      	ldr	r3, [pc, #8]	@ (20004870 <usbd_app_driver_get_cb+0x18>)
20004868:	0018      	movs	r0, r3
2000486a:	46bd      	mov	sp, r7
2000486c:	b002      	add	sp, #8
2000486e:	bd80      	pop	{r7, pc}
20004870:	2000ae5c 	.word	0x2000ae5c

20004874 <tud_cdc_line_coding_cb>:
20004874:	b580      	push	{r7, lr}
20004876:	b084      	sub	sp, #16
20004878:	af00      	add	r7, sp, #0
2000487a:	0002      	movs	r2, r0
2000487c:	6039      	str	r1, [r7, #0]
2000487e:	1dfb      	adds	r3, r7, #7
20004880:	701a      	strb	r2, [r3, #0]
20004882:	683b      	ldr	r3, [r7, #0]
20004884:	781a      	ldrb	r2, [r3, #0]
20004886:	7859      	ldrb	r1, [r3, #1]
20004888:	0209      	lsls	r1, r1, #8
2000488a:	430a      	orrs	r2, r1
2000488c:	7899      	ldrb	r1, [r3, #2]
2000488e:	0409      	lsls	r1, r1, #16
20004890:	430a      	orrs	r2, r1
20004892:	78db      	ldrb	r3, [r3, #3]
20004894:	061b      	lsls	r3, r3, #24
20004896:	4313      	orrs	r3, r2
20004898:	001a      	movs	r2, r3
2000489a:	2396      	movs	r3, #150	@ 0x96
2000489c:	00db      	lsls	r3, r3, #3
2000489e:	429a      	cmp	r2, r3
200048a0:	d106      	bne.n	200048b0 <tud_cdc_line_coding_cb+0x3c>
200048a2:	2300      	movs	r3, #0
200048a4:	60fb      	str	r3, [r7, #12]
200048a6:	68fb      	ldr	r3, [r7, #12]
200048a8:	2100      	movs	r1, #0
200048aa:	0018      	movs	r0, r3
200048ac:	f7ff ff0c 	bl	200046c8 <reset_usb_boot>
200048b0:	46c0      	nop			@ (mov r8, r8)
200048b2:	46bd      	mov	sp, r7
200048b4:	b004      	add	sp, #16
200048b6:	bd80      	pop	{r7, pc}

200048b8 <to_us_since_boot>:
200048b8:	b580      	push	{r7, lr}
200048ba:	b082      	sub	sp, #8
200048bc:	af00      	add	r7, sp, #0
200048be:	6038      	str	r0, [r7, #0]
200048c0:	6079      	str	r1, [r7, #4]
200048c2:	683a      	ldr	r2, [r7, #0]
200048c4:	687b      	ldr	r3, [r7, #4]
200048c6:	0010      	movs	r0, r2
200048c8:	0019      	movs	r1, r3
200048ca:	46bd      	mov	sp, r7
200048cc:	b002      	add	sp, #8
200048ce:	bd80      	pop	{r7, pc}

200048d0 <update_us_since_boot>:
200048d0:	b580      	push	{r7, lr}
200048d2:	b084      	sub	sp, #16
200048d4:	af00      	add	r7, sp, #0
200048d6:	60f8      	str	r0, [r7, #12]
200048d8:	603a      	str	r2, [r7, #0]
200048da:	607b      	str	r3, [r7, #4]
200048dc:	68f9      	ldr	r1, [r7, #12]
200048de:	683a      	ldr	r2, [r7, #0]
200048e0:	687b      	ldr	r3, [r7, #4]
200048e2:	600a      	str	r2, [r1, #0]
200048e4:	604b      	str	r3, [r1, #4]
200048e6:	46c0      	nop			@ (mov r8, r8)
200048e8:	46bd      	mov	sp, r7
200048ea:	b004      	add	sp, #16
200048ec:	bd80      	pop	{r7, pc}

200048ee <get_absolute_time>:
200048ee:	b580      	push	{r7, lr}
200048f0:	b082      	sub	sp, #8
200048f2:	af00      	add	r7, sp, #0
200048f4:	f7fc feb6 	bl	20001664 <time_us_64>
200048f8:	0002      	movs	r2, r0
200048fa:	000b      	movs	r3, r1
200048fc:	0039      	movs	r1, r7
200048fe:	0008      	movs	r0, r1
20004900:	f7ff ffe6 	bl	200048d0 <update_us_since_boot>
20004904:	683a      	ldr	r2, [r7, #0]
20004906:	687b      	ldr	r3, [r7, #4]
20004908:	0010      	movs	r0, r2
2000490a:	0019      	movs	r1, r3
2000490c:	46bd      	mov	sp, r7
2000490e:	b002      	add	sp, #8
20004910:	bd80      	pop	{r7, pc}
	...

20004914 <delayed_by_us>:
20004914:	b580      	push	{r7, lr}
20004916:	b08a      	sub	sp, #40	@ 0x28
20004918:	af00      	add	r7, sp, #0
2000491a:	60b8      	str	r0, [r7, #8]
2000491c:	60f9      	str	r1, [r7, #12]
2000491e:	603a      	str	r2, [r7, #0]
20004920:	607b      	str	r3, [r7, #4]
20004922:	68ba      	ldr	r2, [r7, #8]
20004924:	68fb      	ldr	r3, [r7, #12]
20004926:	0010      	movs	r0, r2
20004928:	0019      	movs	r1, r3
2000492a:	f7ff ffc5 	bl	200048b8 <to_us_since_boot>
2000492e:	0002      	movs	r2, r0
20004930:	000b      	movs	r3, r1
20004932:	61ba      	str	r2, [r7, #24]
20004934:	61fb      	str	r3, [r7, #28]
20004936:	69b8      	ldr	r0, [r7, #24]
20004938:	69f9      	ldr	r1, [r7, #28]
2000493a:	683a      	ldr	r2, [r7, #0]
2000493c:	687b      	ldr	r3, [r7, #4]
2000493e:	1812      	adds	r2, r2, r0
20004940:	414b      	adcs	r3, r1
20004942:	623a      	str	r2, [r7, #32]
20004944:	627b      	str	r3, [r7, #36]	@ 0x24
20004946:	6a3a      	ldr	r2, [r7, #32]
20004948:	6a7b      	ldr	r3, [r7, #36]	@ 0x24
2000494a:	2b00      	cmp	r3, #0
2000494c:	da04      	bge.n	20004958 <delayed_by_us+0x44>
2000494e:	2201      	movs	r2, #1
20004950:	4252      	negs	r2, r2
20004952:	4b08      	ldr	r3, [pc, #32]	@ (20004974 <delayed_by_us+0x60>)
20004954:	623a      	str	r2, [r7, #32]
20004956:	627b      	str	r3, [r7, #36]	@ 0x24
20004958:	6a3a      	ldr	r2, [r7, #32]
2000495a:	6a7b      	ldr	r3, [r7, #36]	@ 0x24
2000495c:	2110      	movs	r1, #16
2000495e:	1879      	adds	r1, r7, r1
20004960:	0008      	movs	r0, r1
20004962:	f7ff ffb5 	bl	200048d0 <update_us_since_boot>
20004966:	693a      	ldr	r2, [r7, #16]
20004968:	697b      	ldr	r3, [r7, #20]
2000496a:	0010      	movs	r0, r2
2000496c:	0019      	movs	r1, r3
2000496e:	46bd      	mov	sp, r7
20004970:	b00a      	add	sp, #40	@ 0x28
20004972:	bd80      	pop	{r7, pc}
20004974:	7fffffff 	.word	0x7fffffff

20004978 <delayed_by_ms>:
20004978:	b5b0      	push	{r4, r5, r7, lr}
2000497a:	b08a      	sub	sp, #40	@ 0x28
2000497c:	af00      	add	r7, sp, #0
2000497e:	60b8      	str	r0, [r7, #8]
20004980:	60f9      	str	r1, [r7, #12]
20004982:	607a      	str	r2, [r7, #4]
20004984:	68ba      	ldr	r2, [r7, #8]
20004986:	68fb      	ldr	r3, [r7, #12]
20004988:	0010      	movs	r0, r2
2000498a:	0019      	movs	r1, r3
2000498c:	f7ff ff94 	bl	200048b8 <to_us_since_boot>
20004990:	0002      	movs	r2, r0
20004992:	000b      	movs	r3, r1
20004994:	61ba      	str	r2, [r7, #24]
20004996:	61fb      	str	r3, [r7, #28]
20004998:	687b      	ldr	r3, [r7, #4]
2000499a:	001c      	movs	r4, r3
2000499c:	2300      	movs	r3, #0
2000499e:	001d      	movs	r5, r3
200049a0:	22fa      	movs	r2, #250	@ 0xfa
200049a2:	0092      	lsls	r2, r2, #2
200049a4:	2300      	movs	r3, #0
200049a6:	0020      	movs	r0, r4
200049a8:	0029      	movs	r1, r5
200049aa:	f7ff fbbf 	bl	2000412c <__wrap___aeabi_lmul>
200049ae:	0002      	movs	r2, r0
200049b0:	000b      	movs	r3, r1
200049b2:	0010      	movs	r0, r2
200049b4:	0019      	movs	r1, r3
200049b6:	69ba      	ldr	r2, [r7, #24]
200049b8:	69fb      	ldr	r3, [r7, #28]
200049ba:	1812      	adds	r2, r2, r0
200049bc:	414b      	adcs	r3, r1
200049be:	623a      	str	r2, [r7, #32]
200049c0:	627b      	str	r3, [r7, #36]	@ 0x24
200049c2:	6a3a      	ldr	r2, [r7, #32]
200049c4:	6a7b      	ldr	r3, [r7, #36]	@ 0x24
200049c6:	2b00      	cmp	r3, #0
200049c8:	da04      	bge.n	200049d4 <delayed_by_ms+0x5c>
200049ca:	2201      	movs	r2, #1
200049cc:	4252      	negs	r2, r2
200049ce:	4b08      	ldr	r3, [pc, #32]	@ (200049f0 <delayed_by_ms+0x78>)
200049d0:	623a      	str	r2, [r7, #32]
200049d2:	627b      	str	r3, [r7, #36]	@ 0x24
200049d4:	6a3a      	ldr	r2, [r7, #32]
200049d6:	6a7b      	ldr	r3, [r7, #36]	@ 0x24
200049d8:	2110      	movs	r1, #16
200049da:	1879      	adds	r1, r7, r1
200049dc:	0008      	movs	r0, r1
200049de:	f7ff ff77 	bl	200048d0 <update_us_since_boot>
200049e2:	693a      	ldr	r2, [r7, #16]
200049e4:	697b      	ldr	r3, [r7, #20]
200049e6:	0010      	movs	r0, r2
200049e8:	0019      	movs	r1, r3
200049ea:	46bd      	mov	sp, r7
200049ec:	b00a      	add	sp, #40	@ 0x28
200049ee:	bdb0      	pop	{r4, r5, r7, pc}
200049f0:	7fffffff 	.word	0x7fffffff

200049f4 <make_timeout_time_ms>:
200049f4:	b580      	push	{r7, lr}
200049f6:	b082      	sub	sp, #8
200049f8:	af00      	add	r7, sp, #0
200049fa:	6078      	str	r0, [r7, #4]
200049fc:	f7ff ff77 	bl	200048ee <get_absolute_time>
20004a00:	687b      	ldr	r3, [r7, #4]
20004a02:	001a      	movs	r2, r3
20004a04:	f7ff ffb8 	bl	20004978 <delayed_by_ms>
20004a08:	0002      	movs	r2, r0
20004a0a:	000b      	movs	r3, r1
20004a0c:	0010      	movs	r0, r2
20004a0e:	0019      	movs	r1, r3
20004a10:	46bd      	mov	sp, r7
20004a12:	b002      	add	sp, #8
20004a14:	bd80      	pop	{r7, pc}

20004a16 <alarm_pool_add_alarm_in_us>:
20004a16:	b580      	push	{r7, lr}
20004a18:	b088      	sub	sp, #32
20004a1a:	af04      	add	r7, sp, #16
20004a1c:	60f8      	str	r0, [r7, #12]
20004a1e:	603a      	str	r2, [r7, #0]
20004a20:	607b      	str	r3, [r7, #4]
20004a22:	f7ff ff64 	bl	200048ee <get_absolute_time>
20004a26:	683a      	ldr	r2, [r7, #0]
20004a28:	687b      	ldr	r3, [r7, #4]
20004a2a:	f7ff ff73 	bl	20004914 <delayed_by_us>
20004a2e:	0002      	movs	r2, r0
20004a30:	000b      	movs	r3, r1
20004a32:	68f8      	ldr	r0, [r7, #12]
20004a34:	2120      	movs	r1, #32
20004a36:	1879      	adds	r1, r7, r1
20004a38:	7809      	ldrb	r1, [r1, #0]
20004a3a:	9102      	str	r1, [sp, #8]
20004a3c:	69f9      	ldr	r1, [r7, #28]
20004a3e:	9101      	str	r1, [sp, #4]
20004a40:	69b9      	ldr	r1, [r7, #24]
20004a42:	9100      	str	r1, [sp, #0]
20004a44:	f7fc fc14 	bl	20001270 <alarm_pool_add_alarm_at>
20004a48:	0003      	movs	r3, r0
20004a4a:	0018      	movs	r0, r3
20004a4c:	46bd      	mov	sp, r7
20004a4e:	b004      	add	sp, #16
20004a50:	bd80      	pop	{r7, pc}

20004a52 <add_alarm_in_us>:
20004a52:	b580      	push	{r7, lr}
20004a54:	b088      	sub	sp, #32
20004a56:	af04      	add	r7, sp, #16
20004a58:	60b8      	str	r0, [r7, #8]
20004a5a:	60f9      	str	r1, [r7, #12]
20004a5c:	607a      	str	r2, [r7, #4]
20004a5e:	603b      	str	r3, [r7, #0]
20004a60:	f7fc f9e6 	bl	20000e30 <alarm_pool_get_default>
20004a64:	68ba      	ldr	r2, [r7, #8]
20004a66:	68fb      	ldr	r3, [r7, #12]
20004a68:	2118      	movs	r1, #24
20004a6a:	1879      	adds	r1, r7, r1
20004a6c:	7809      	ldrb	r1, [r1, #0]
20004a6e:	9102      	str	r1, [sp, #8]
20004a70:	6839      	ldr	r1, [r7, #0]
20004a72:	9101      	str	r1, [sp, #4]
20004a74:	6879      	ldr	r1, [r7, #4]
20004a76:	9100      	str	r1, [sp, #0]
20004a78:	f7ff ffcd 	bl	20004a16 <alarm_pool_add_alarm_in_us>
20004a7c:	0003      	movs	r3, r0
20004a7e:	0018      	movs	r0, r3
20004a80:	46bd      	mov	sp, r7
20004a82:	b004      	add	sp, #16
20004a84:	bd80      	pop	{r7, pc}

20004a86 <critical_section_enter_blocking>:
20004a86:	b580      	push	{r7, lr}
20004a88:	b086      	sub	sp, #24
20004a8a:	af00      	add	r7, sp, #0
20004a8c:	6078      	str	r0, [r7, #4]
20004a8e:	687b      	ldr	r3, [r7, #4]
20004a90:	681b      	ldr	r3, [r3, #0]
20004a92:	617b      	str	r3, [r7, #20]
20004a94:	f3ef 8310 	mrs	r3, PRIMASK
20004a98:	b672      	cpsid	i
20004a9a:	613b      	str	r3, [r7, #16]
20004a9c:	693b      	ldr	r3, [r7, #16]
20004a9e:	60fb      	str	r3, [r7, #12]
20004aa0:	697b      	ldr	r3, [r7, #20]
20004aa2:	60bb      	str	r3, [r7, #8]
20004aa4:	46c0      	nop			@ (mov r8, r8)
20004aa6:	68bb      	ldr	r3, [r7, #8]
20004aa8:	681b      	ldr	r3, [r3, #0]
20004aaa:	425a      	negs	r2, r3
20004aac:	4153      	adcs	r3, r2
20004aae:	b2db      	uxtb	r3, r3
20004ab0:	2b00      	cmp	r3, #0
20004ab2:	d1f8      	bne.n	20004aa6 <critical_section_enter_blocking+0x20>
20004ab4:	f3bf 8f5f 	dmb	sy
20004ab8:	46c0      	nop			@ (mov r8, r8)
20004aba:	46c0      	nop			@ (mov r8, r8)
20004abc:	46c0      	nop			@ (mov r8, r8)
20004abe:	68fa      	ldr	r2, [r7, #12]
20004ac0:	687b      	ldr	r3, [r7, #4]
20004ac2:	605a      	str	r2, [r3, #4]
20004ac4:	46c0      	nop			@ (mov r8, r8)
20004ac6:	46bd      	mov	sp, r7
20004ac8:	b006      	add	sp, #24
20004aca:	bd80      	pop	{r7, pc}

20004acc <critical_section_exit>:
20004acc:	b580      	push	{r7, lr}
20004ace:	b086      	sub	sp, #24
20004ad0:	af00      	add	r7, sp, #0
20004ad2:	6078      	str	r0, [r7, #4]
20004ad4:	687b      	ldr	r3, [r7, #4]
20004ad6:	681a      	ldr	r2, [r3, #0]
20004ad8:	687b      	ldr	r3, [r7, #4]
20004ada:	685b      	ldr	r3, [r3, #4]
20004adc:	617a      	str	r2, [r7, #20]
20004ade:	613b      	str	r3, [r7, #16]
20004ae0:	697b      	ldr	r3, [r7, #20]
20004ae2:	60fb      	str	r3, [r7, #12]
20004ae4:	f3bf 8f5f 	dmb	sy
20004ae8:	46c0      	nop			@ (mov r8, r8)
20004aea:	46c0      	nop			@ (mov r8, r8)
20004aec:	68fb      	ldr	r3, [r7, #12]
20004aee:	2200      	movs	r2, #0
20004af0:	601a      	str	r2, [r3, #0]
20004af2:	46c0      	nop			@ (mov r8, r8)
20004af4:	693b      	ldr	r3, [r7, #16]
20004af6:	60bb      	str	r3, [r7, #8]
20004af8:	68bb      	ldr	r3, [r7, #8]
20004afa:	f383 8810 	msr	PRIMASK, r3
20004afe:	46c0      	nop			@ (mov r8, r8)
20004b00:	46c0      	nop			@ (mov r8, r8)
20004b02:	46c0      	nop			@ (mov r8, r8)
20004b04:	46bd      	mov	sp, r7
20004b06:	b006      	add	sp, #24
20004b08:	bd80      	pop	{r7, pc}

20004b0a <critical_section_is_initialized>:
20004b0a:	b580      	push	{r7, lr}
20004b0c:	b082      	sub	sp, #8
20004b0e:	af00      	add	r7, sp, #0
20004b10:	6078      	str	r0, [r7, #4]
20004b12:	687b      	ldr	r3, [r7, #4]
20004b14:	681b      	ldr	r3, [r3, #0]
20004b16:	1e5a      	subs	r2, r3, #1
20004b18:	4193      	sbcs	r3, r2
20004b1a:	b2db      	uxtb	r3, r3
20004b1c:	0018      	movs	r0, r3
20004b1e:	46bd      	mov	sp, r7
20004b20:	b002      	add	sp, #8
20004b22:	bd80      	pop	{r7, pc}

20004b24 <tud_cdc_connected>:
20004b24:	b580      	push	{r7, lr}
20004b26:	af00      	add	r7, sp, #0
20004b28:	2000      	movs	r0, #0
20004b2a:	f002 fb79 	bl	20007220 <tud_cdc_n_connected>
20004b2e:	0003      	movs	r3, r0
20004b30:	0018      	movs	r0, r3
20004b32:	46bd      	mov	sp, r7
20004b34:	bd80      	pop	{r7, pc}

20004b36 <tud_cdc_available>:
20004b36:	b580      	push	{r7, lr}
20004b38:	af00      	add	r7, sp, #0
20004b3a:	2000      	movs	r0, #0
20004b3c:	f002 fbb4 	bl	200072a8 <tud_cdc_n_available>
20004b40:	0003      	movs	r3, r0
20004b42:	0018      	movs	r0, r3
20004b44:	46bd      	mov	sp, r7
20004b46:	bd80      	pop	{r7, pc}

20004b48 <tud_cdc_read>:
20004b48:	b580      	push	{r7, lr}
20004b4a:	b082      	sub	sp, #8
20004b4c:	af00      	add	r7, sp, #0
20004b4e:	6078      	str	r0, [r7, #4]
20004b50:	6039      	str	r1, [r7, #0]
20004b52:	683a      	ldr	r2, [r7, #0]
20004b54:	687b      	ldr	r3, [r7, #4]
20004b56:	0019      	movs	r1, r3
20004b58:	2000      	movs	r0, #0
20004b5a:	f002 fbbf 	bl	200072dc <tud_cdc_n_read>
20004b5e:	0003      	movs	r3, r0
20004b60:	0018      	movs	r0, r3
20004b62:	46bd      	mov	sp, r7
20004b64:	b002      	add	sp, #8
20004b66:	bd80      	pop	{r7, pc}

20004b68 <tud_cdc_write>:
20004b68:	b580      	push	{r7, lr}
20004b6a:	b082      	sub	sp, #8
20004b6c:	af00      	add	r7, sp, #0
20004b6e:	6078      	str	r0, [r7, #4]
20004b70:	6039      	str	r1, [r7, #0]
20004b72:	683a      	ldr	r2, [r7, #0]
20004b74:	687b      	ldr	r3, [r7, #4]
20004b76:	0019      	movs	r1, r3
20004b78:	2000      	movs	r0, #0
20004b7a:	f002 fbd5 	bl	20007328 <tud_cdc_n_write>
20004b7e:	0003      	movs	r3, r0
20004b80:	0018      	movs	r0, r3
20004b82:	46bd      	mov	sp, r7
20004b84:	b002      	add	sp, #8
20004b86:	bd80      	pop	{r7, pc}

20004b88 <tud_cdc_write_flush>:
20004b88:	b580      	push	{r7, lr}
20004b8a:	af00      	add	r7, sp, #0
20004b8c:	2000      	movs	r0, #0
20004b8e:	f002 fbff 	bl	20007390 <tud_cdc_n_write_flush>
20004b92:	0003      	movs	r3, r0
20004b94:	0018      	movs	r0, r3
20004b96:	46bd      	mov	sp, r7
20004b98:	bd80      	pop	{r7, pc}

20004b9a <tud_cdc_write_available>:
20004b9a:	b580      	push	{r7, lr}
20004b9c:	af00      	add	r7, sp, #0
20004b9e:	2000      	movs	r0, #0
20004ba0:	f002 fc7e 	bl	200074a0 <tud_cdc_n_write_available>
20004ba4:	0003      	movs	r3, r0
20004ba6:	0018      	movs	r0, r3
20004ba8:	46bd      	mov	sp, r7
20004baa:	bd80      	pop	{r7, pc}

20004bac <timer_task>:
20004bac:	b580      	push	{r7, lr}
20004bae:	b084      	sub	sp, #16
20004bb0:	af00      	add	r7, sp, #0
20004bb2:	6078      	str	r0, [r7, #4]
20004bb4:	6039      	str	r1, [r7, #0]
20004bb6:	4b13      	ldr	r3, [pc, #76]	@ (20004c04 <timer_task+0x58>)
20004bb8:	0018      	movs	r0, r3
20004bba:	f7ff ffa6 	bl	20004b0a <critical_section_is_initialized>
20004bbe:	1e03      	subs	r3, r0, #0
20004bc0:	d00f      	beq.n	20004be2 <timer_task+0x36>
20004bc2:	4b10      	ldr	r3, [pc, #64]	@ (20004c04 <timer_task+0x58>)
20004bc4:	0018      	movs	r0, r3
20004bc6:	f7ff ff5e 	bl	20004a86 <critical_section_enter_blocking>
20004bca:	4b0f      	ldr	r3, [pc, #60]	@ (20004c08 <timer_task+0x5c>)
20004bcc:	2200      	movs	r2, #0
20004bce:	701a      	strb	r2, [r3, #0]
20004bd0:	4b0c      	ldr	r3, [pc, #48]	@ (20004c04 <timer_task+0x58>)
20004bd2:	0018      	movs	r0, r3
20004bd4:	f7ff ff7a 	bl	20004acc <critical_section_exit>
20004bd8:	2200      	movs	r2, #0
20004bda:	2300      	movs	r3, #0
20004bdc:	60ba      	str	r2, [r7, #8]
20004bde:	60fb      	str	r3, [r7, #12]
20004be0:	e004      	b.n	20004bec <timer_task+0x40>
20004be2:	22fa      	movs	r2, #250	@ 0xfa
20004be4:	0092      	lsls	r2, r2, #2
20004be6:	2300      	movs	r3, #0
20004be8:	60ba      	str	r2, [r7, #8]
20004bea:	60fb      	str	r3, [r7, #12]
20004bec:	4b07      	ldr	r3, [pc, #28]	@ (20004c0c <timer_task+0x60>)
20004bee:	781b      	ldrb	r3, [r3, #0]
20004bf0:	0018      	movs	r0, r3
20004bf2:	f7fd f9eb 	bl	20001fcc <irq_set_pending>
20004bf6:	68ba      	ldr	r2, [r7, #8]
20004bf8:	68fb      	ldr	r3, [r7, #12]
20004bfa:	0010      	movs	r0, r2
20004bfc:	0019      	movs	r1, r3
20004bfe:	46bd      	mov	sp, r7
20004c00:	b004      	add	sp, #16
20004c02:	bd80      	pop	{r7, pc}
20004c04:	2000bcf8 	.word	0x2000bcf8
20004c08:	2000bf50 	.word	0x2000bf50
20004c0c:	2000bf4f 	.word	0x2000bf4f

20004c10 <low_priority_worker_irq>:
20004c10:	b580      	push	{r7, lr}
20004c12:	b084      	sub	sp, #16
20004c14:	af02      	add	r7, sp, #8
20004c16:	4b22      	ldr	r3, [pc, #136]	@ (20004ca0 <low_priority_worker_irq+0x90>)
20004c18:	2100      	movs	r1, #0
20004c1a:	0018      	movs	r0, r3
20004c1c:	f004 ff58 	bl	20009ad0 <mutex_try_enter>
20004c20:	1e03      	subs	r3, r0, #0
20004c22:	d00b      	beq.n	20004c3c <low_priority_worker_irq+0x2c>
20004c24:	2301      	movs	r3, #1
20004c26:	425b      	negs	r3, r3
20004c28:	2100      	movs	r1, #0
20004c2a:	0018      	movs	r0, r3
20004c2c:	f000 fff6 	bl	20005c1c <tud_task_ext>
20004c30:	46c0      	nop			@ (mov r8, r8)
20004c32:	4b1b      	ldr	r3, [pc, #108]	@ (20004ca0 <low_priority_worker_irq+0x90>)
20004c34:	0018      	movs	r0, r3
20004c36:	f005 f84e 	bl	20009cd6 <mutex_exit>
20004c3a:	e02d      	b.n	20004c98 <low_priority_worker_irq+0x88>
20004c3c:	4b19      	ldr	r3, [pc, #100]	@ (20004ca4 <low_priority_worker_irq+0x94>)
20004c3e:	0018      	movs	r0, r3
20004c40:	f7ff ff63 	bl	20004b0a <critical_section_is_initialized>
20004c44:	1e03      	subs	r3, r0, #0
20004c46:	d027      	beq.n	20004c98 <low_priority_worker_irq+0x88>
20004c48:	4b16      	ldr	r3, [pc, #88]	@ (20004ca4 <low_priority_worker_irq+0x94>)
20004c4a:	0018      	movs	r0, r3
20004c4c:	f7ff ff1b 	bl	20004a86 <critical_section_enter_blocking>
20004c50:	4b15      	ldr	r3, [pc, #84]	@ (20004ca8 <low_priority_worker_irq+0x98>)
20004c52:	781b      	ldrb	r3, [r3, #0]
20004c54:	b2db      	uxtb	r3, r3
20004c56:	1e5a      	subs	r2, r3, #1
20004c58:	4193      	sbcs	r3, r2
20004c5a:	b2db      	uxtb	r3, r3
20004c5c:	2201      	movs	r2, #1
20004c5e:	4053      	eors	r3, r2
20004c60:	b2db      	uxtb	r3, r3
20004c62:	001a      	movs	r2, r3
20004c64:	1dfb      	adds	r3, r7, #7
20004c66:	701a      	strb	r2, [r3, #0]
20004c68:	781a      	ldrb	r2, [r3, #0]
20004c6a:	2101      	movs	r1, #1
20004c6c:	400a      	ands	r2, r1
20004c6e:	701a      	strb	r2, [r3, #0]
20004c70:	4b0d      	ldr	r3, [pc, #52]	@ (20004ca8 <low_priority_worker_irq+0x98>)
20004c72:	2201      	movs	r2, #1
20004c74:	701a      	strb	r2, [r3, #0]
20004c76:	4b0b      	ldr	r3, [pc, #44]	@ (20004ca4 <low_priority_worker_irq+0x94>)
20004c78:	0018      	movs	r0, r3
20004c7a:	f7ff ff27 	bl	20004acc <critical_section_exit>
20004c7e:	1dfb      	adds	r3, r7, #7
20004c80:	781b      	ldrb	r3, [r3, #0]
20004c82:	2b00      	cmp	r3, #0
20004c84:	d008      	beq.n	20004c98 <low_priority_worker_irq+0x88>
20004c86:	4a09      	ldr	r2, [pc, #36]	@ (20004cac <low_priority_worker_irq+0x9c>)
20004c88:	20fa      	movs	r0, #250	@ 0xfa
20004c8a:	0080      	lsls	r0, r0, #2
20004c8c:	2100      	movs	r1, #0
20004c8e:	2301      	movs	r3, #1
20004c90:	9300      	str	r3, [sp, #0]
20004c92:	2300      	movs	r3, #0
20004c94:	f7ff fedd 	bl	20004a52 <add_alarm_in_us>
20004c98:	46c0      	nop			@ (mov r8, r8)
20004c9a:	46bd      	mov	sp, r7
20004c9c:	b002      	add	sp, #8
20004c9e:	bd80      	pop	{r7, pc}
20004ca0:	2000bf20 	.word	0x2000bf20
20004ca4:	2000bcf8 	.word	0x2000bcf8
20004ca8:	2000bf50 	.word	0x2000bf50
20004cac:	20004bad 	.word	0x20004bad

20004cb0 <usb_irq>:
20004cb0:	b580      	push	{r7, lr}
20004cb2:	af00      	add	r7, sp, #0
20004cb4:	4b03      	ldr	r3, [pc, #12]	@ (20004cc4 <usb_irq+0x14>)
20004cb6:	781b      	ldrb	r3, [r3, #0]
20004cb8:	0018      	movs	r0, r3
20004cba:	f7fd f987 	bl	20001fcc <irq_set_pending>
20004cbe:	46c0      	nop			@ (mov r8, r8)
20004cc0:	46bd      	mov	sp, r7
20004cc2:	bd80      	pop	{r7, pc}
20004cc4:	2000bf4f 	.word	0x2000bf4f

20004cc8 <stdio_usb_out_chars>:
20004cc8:	b5b0      	push	{r4, r5, r7, lr}
20004cca:	b086      	sub	sp, #24
20004ccc:	af00      	add	r7, sp, #0
20004cce:	6078      	str	r0, [r7, #4]
20004cd0:	6039      	str	r1, [r7, #0]
20004cd2:	23fa      	movs	r3, #250	@ 0xfa
20004cd4:	009b      	lsls	r3, r3, #2
20004cd6:	0018      	movs	r0, r3
20004cd8:	f7ff fe8c 	bl	200049f4 <make_timeout_time_ms>
20004cdc:	0002      	movs	r2, r0
20004cde:	000b      	movs	r3, r1
20004ce0:	493c      	ldr	r1, [pc, #240]	@ (20004dd4 <stdio_usb_out_chars+0x10c>)
20004ce2:	0008      	movs	r0, r1
20004ce4:	f004 ff4d 	bl	20009b82 <mutex_try_enter_block_until>
20004ce8:	0003      	movs	r3, r0
20004cea:	001a      	movs	r2, r3
20004cec:	2301      	movs	r3, #1
20004cee:	4053      	eors	r3, r2
20004cf0:	b2db      	uxtb	r3, r3
20004cf2:	2b00      	cmp	r3, #0
20004cf4:	d000      	beq.n	20004cf8 <stdio_usb_out_chars+0x30>
20004cf6:	e069      	b.n	20004dcc <stdio_usb_out_chars+0x104>
20004cf8:	f000 f968 	bl	20004fcc <stdio_usb_connected>
20004cfc:	1e03      	subs	r3, r0, #0
20004cfe:	d05b      	beq.n	20004db8 <stdio_usb_out_chars+0xf0>
20004d00:	2300      	movs	r3, #0
20004d02:	617b      	str	r3, [r7, #20]
20004d04:	e053      	b.n	20004dae <stdio_usb_out_chars+0xe6>
20004d06:	683a      	ldr	r2, [r7, #0]
20004d08:	697b      	ldr	r3, [r7, #20]
20004d0a:	1ad3      	subs	r3, r2, r3
20004d0c:	613b      	str	r3, [r7, #16]
20004d0e:	f7ff ff44 	bl	20004b9a <tud_cdc_write_available>
20004d12:	0003      	movs	r3, r0
20004d14:	60fb      	str	r3, [r7, #12]
20004d16:	693a      	ldr	r2, [r7, #16]
20004d18:	68fb      	ldr	r3, [r7, #12]
20004d1a:	429a      	cmp	r2, r3
20004d1c:	dd01      	ble.n	20004d22 <stdio_usb_out_chars+0x5a>
20004d1e:	68fb      	ldr	r3, [r7, #12]
20004d20:	613b      	str	r3, [r7, #16]
20004d22:	693b      	ldr	r3, [r7, #16]
20004d24:	2b00      	cmp	r3, #0
20004d26:	d01e      	beq.n	20004d66 <stdio_usb_out_chars+0x9e>
20004d28:	697b      	ldr	r3, [r7, #20]
20004d2a:	687a      	ldr	r2, [r7, #4]
20004d2c:	18d3      	adds	r3, r2, r3
20004d2e:	693a      	ldr	r2, [r7, #16]
20004d30:	0011      	movs	r1, r2
20004d32:	0018      	movs	r0, r3
20004d34:	f7ff ff18 	bl	20004b68 <tud_cdc_write>
20004d38:	0003      	movs	r3, r0
20004d3a:	60bb      	str	r3, [r7, #8]
20004d3c:	2301      	movs	r3, #1
20004d3e:	425b      	negs	r3, r3
20004d40:	2100      	movs	r1, #0
20004d42:	0018      	movs	r0, r3
20004d44:	f000 ff6a 	bl	20005c1c <tud_task_ext>
20004d48:	46c0      	nop			@ (mov r8, r8)
20004d4a:	f7ff ff1d 	bl	20004b88 <tud_cdc_write_flush>
20004d4e:	697a      	ldr	r2, [r7, #20]
20004d50:	68bb      	ldr	r3, [r7, #8]
20004d52:	18d3      	adds	r3, r2, r3
20004d54:	617b      	str	r3, [r7, #20]
20004d56:	f7fc fc85 	bl	20001664 <time_us_64>
20004d5a:	0002      	movs	r2, r0
20004d5c:	000b      	movs	r3, r1
20004d5e:	491e      	ldr	r1, [pc, #120]	@ (20004dd8 <stdio_usb_out_chars+0x110>)
20004d60:	600a      	str	r2, [r1, #0]
20004d62:	604b      	str	r3, [r1, #4]
20004d64:	e023      	b.n	20004dae <stdio_usb_out_chars+0xe6>
20004d66:	2301      	movs	r3, #1
20004d68:	425b      	negs	r3, r3
20004d6a:	2100      	movs	r1, #0
20004d6c:	0018      	movs	r0, r3
20004d6e:	f000 ff55 	bl	20005c1c <tud_task_ext>
20004d72:	46c0      	nop			@ (mov r8, r8)
20004d74:	f7ff ff08 	bl	20004b88 <tud_cdc_write_flush>
20004d78:	f000 f928 	bl	20004fcc <stdio_usb_connected>
20004d7c:	0003      	movs	r3, r0
20004d7e:	001a      	movs	r2, r3
20004d80:	2301      	movs	r3, #1
20004d82:	4053      	eors	r3, r2
20004d84:	b2db      	uxtb	r3, r3
20004d86:	2b00      	cmp	r3, #0
20004d88:	d11b      	bne.n	20004dc2 <stdio_usb_out_chars+0xfa>
20004d8a:	f7ff ff06 	bl	20004b9a <tud_cdc_write_available>
20004d8e:	1e03      	subs	r3, r0, #0
20004d90:	d10d      	bne.n	20004dae <stdio_usb_out_chars+0xe6>
20004d92:	f7fc fc67 	bl	20001664 <time_us_64>
20004d96:	4b10      	ldr	r3, [pc, #64]	@ (20004dd8 <stdio_usb_out_chars+0x110>)
20004d98:	681a      	ldr	r2, [r3, #0]
20004d9a:	685b      	ldr	r3, [r3, #4]
20004d9c:	4c0f      	ldr	r4, [pc, #60]	@ (20004ddc <stdio_usb_out_chars+0x114>)
20004d9e:	2500      	movs	r5, #0
20004da0:	1912      	adds	r2, r2, r4
20004da2:	416b      	adcs	r3, r5
20004da4:	4299      	cmp	r1, r3
20004da6:	d80c      	bhi.n	20004dc2 <stdio_usb_out_chars+0xfa>
20004da8:	d101      	bne.n	20004dae <stdio_usb_out_chars+0xe6>
20004daa:	4290      	cmp	r0, r2
20004dac:	d809      	bhi.n	20004dc2 <stdio_usb_out_chars+0xfa>
20004dae:	697a      	ldr	r2, [r7, #20]
20004db0:	683b      	ldr	r3, [r7, #0]
20004db2:	429a      	cmp	r2, r3
20004db4:	dba7      	blt.n	20004d06 <stdio_usb_out_chars+0x3e>
20004db6:	e004      	b.n	20004dc2 <stdio_usb_out_chars+0xfa>
20004db8:	4907      	ldr	r1, [pc, #28]	@ (20004dd8 <stdio_usb_out_chars+0x110>)
20004dba:	2200      	movs	r2, #0
20004dbc:	2300      	movs	r3, #0
20004dbe:	600a      	str	r2, [r1, #0]
20004dc0:	604b      	str	r3, [r1, #4]
20004dc2:	4b04      	ldr	r3, [pc, #16]	@ (20004dd4 <stdio_usb_out_chars+0x10c>)
20004dc4:	0018      	movs	r0, r3
20004dc6:	f004 ff86 	bl	20009cd6 <mutex_exit>
20004dca:	e000      	b.n	20004dce <stdio_usb_out_chars+0x106>
20004dcc:	46c0      	nop			@ (mov r8, r8)
20004dce:	46bd      	mov	sp, r7
20004dd0:	b006      	add	sp, #24
20004dd2:	bdb0      	pop	{r4, r5, r7, pc}
20004dd4:	2000bf20 	.word	0x2000bf20
20004dd8:	2000b2c8 	.word	0x2000b2c8
20004ddc:	0007a120 	.word	0x0007a120

20004de0 <stdio_usb_in_chars>:
20004de0:	b580      	push	{r7, lr}
20004de2:	b084      	sub	sp, #16
20004de4:	af00      	add	r7, sp, #0
20004de6:	6078      	str	r0, [r7, #4]
20004de8:	6039      	str	r1, [r7, #0]
20004dea:	2303      	movs	r3, #3
20004dec:	425b      	negs	r3, r3
20004dee:	60fb      	str	r3, [r7, #12]
20004df0:	f000 f8ec 	bl	20004fcc <stdio_usb_connected>
20004df4:	1e03      	subs	r3, r0, #0
20004df6:	d03c      	beq.n	20004e72 <stdio_usb_in_chars+0x92>
20004df8:	f7ff fe9d 	bl	20004b36 <tud_cdc_available>
20004dfc:	1e03      	subs	r3, r0, #0
20004dfe:	d038      	beq.n	20004e72 <stdio_usb_in_chars+0x92>
20004e00:	23fa      	movs	r3, #250	@ 0xfa
20004e02:	009b      	lsls	r3, r3, #2
20004e04:	0018      	movs	r0, r3
20004e06:	f7ff fdf5 	bl	200049f4 <make_timeout_time_ms>
20004e0a:	0002      	movs	r2, r0
20004e0c:	000b      	movs	r3, r1
20004e0e:	491b      	ldr	r1, [pc, #108]	@ (20004e7c <stdio_usb_in_chars+0x9c>)
20004e10:	0008      	movs	r0, r1
20004e12:	f004 feb6 	bl	20009b82 <mutex_try_enter_block_until>
20004e16:	0003      	movs	r3, r0
20004e18:	001a      	movs	r2, r3
20004e1a:	2301      	movs	r3, #1
20004e1c:	4053      	eors	r3, r2
20004e1e:	b2db      	uxtb	r3, r3
20004e20:	2b00      	cmp	r3, #0
20004e22:	d002      	beq.n	20004e2a <stdio_usb_in_chars+0x4a>
20004e24:	2303      	movs	r3, #3
20004e26:	425b      	negs	r3, r3
20004e28:	e024      	b.n	20004e74 <stdio_usb_in_chars+0x94>
20004e2a:	f000 f8cf 	bl	20004fcc <stdio_usb_connected>
20004e2e:	1e03      	subs	r3, r0, #0
20004e30:	d014      	beq.n	20004e5c <stdio_usb_in_chars+0x7c>
20004e32:	f7ff fe80 	bl	20004b36 <tud_cdc_available>
20004e36:	1e03      	subs	r3, r0, #0
20004e38:	d010      	beq.n	20004e5c <stdio_usb_in_chars+0x7c>
20004e3a:	683a      	ldr	r2, [r7, #0]
20004e3c:	687b      	ldr	r3, [r7, #4]
20004e3e:	0011      	movs	r1, r2
20004e40:	0018      	movs	r0, r3
20004e42:	f7ff fe81 	bl	20004b48 <tud_cdc_read>
20004e46:	0003      	movs	r3, r0
20004e48:	60bb      	str	r3, [r7, #8]
20004e4a:	68bb      	ldr	r3, [r7, #8]
20004e4c:	2b00      	cmp	r3, #0
20004e4e:	d001      	beq.n	20004e54 <stdio_usb_in_chars+0x74>
20004e50:	68bb      	ldr	r3, [r7, #8]
20004e52:	e001      	b.n	20004e58 <stdio_usb_in_chars+0x78>
20004e54:	2303      	movs	r3, #3
20004e56:	425b      	negs	r3, r3
20004e58:	60fb      	str	r3, [r7, #12]
20004e5a:	e006      	b.n	20004e6a <stdio_usb_in_chars+0x8a>
20004e5c:	2301      	movs	r3, #1
20004e5e:	425b      	negs	r3, r3
20004e60:	2100      	movs	r1, #0
20004e62:	0018      	movs	r0, r3
20004e64:	f000 feda 	bl	20005c1c <tud_task_ext>
20004e68:	46c0      	nop			@ (mov r8, r8)
20004e6a:	4b04      	ldr	r3, [pc, #16]	@ (20004e7c <stdio_usb_in_chars+0x9c>)
20004e6c:	0018      	movs	r0, r3
20004e6e:	f004 ff32 	bl	20009cd6 <mutex_exit>
20004e72:	68fb      	ldr	r3, [r7, #12]
20004e74:	0018      	movs	r0, r3
20004e76:	46bd      	mov	sp, r7
20004e78:	b004      	add	sp, #16
20004e7a:	bd80      	pop	{r7, pc}
20004e7c:	2000bf20 	.word	0x2000bf20

20004e80 <tud_cdc_rx_cb>:
20004e80:	b580      	push	{r7, lr}
20004e82:	b082      	sub	sp, #8
20004e84:	af00      	add	r7, sp, #0
20004e86:	0002      	movs	r2, r0
20004e88:	1dfb      	adds	r3, r7, #7
20004e8a:	701a      	strb	r2, [r3, #0]
20004e8c:	4b07      	ldr	r3, [pc, #28]	@ (20004eac <tud_cdc_rx_cb+0x2c>)
20004e8e:	681b      	ldr	r3, [r3, #0]
20004e90:	2b00      	cmp	r3, #0
20004e92:	d007      	beq.n	20004ea4 <tud_cdc_rx_cb+0x24>
20004e94:	4b05      	ldr	r3, [pc, #20]	@ (20004eac <tud_cdc_rx_cb+0x2c>)
20004e96:	6818      	ldr	r0, [r3, #0]
20004e98:	4b05      	ldr	r3, [pc, #20]	@ (20004eb0 <tud_cdc_rx_cb+0x30>)
20004e9a:	681b      	ldr	r3, [r3, #0]
20004e9c:	2200      	movs	r2, #0
20004e9e:	0019      	movs	r1, r3
20004ea0:	f001 fd10 	bl	200068c4 <usbd_defer_func>
20004ea4:	46c0      	nop			@ (mov r8, r8)
20004ea6:	46bd      	mov	sp, r7
20004ea8:	b002      	add	sp, #8
20004eaa:	bd80      	pop	{r7, pc}
20004eac:	2000b82c 	.word	0x2000b82c
20004eb0:	2000b830 	.word	0x2000b830

20004eb4 <stdio_usb_set_chars_available_callback>:
20004eb4:	b580      	push	{r7, lr}
20004eb6:	b082      	sub	sp, #8
20004eb8:	af00      	add	r7, sp, #0
20004eba:	6078      	str	r0, [r7, #4]
20004ebc:	6039      	str	r1, [r7, #0]
20004ebe:	4b05      	ldr	r3, [pc, #20]	@ (20004ed4 <stdio_usb_set_chars_available_callback+0x20>)
20004ec0:	687a      	ldr	r2, [r7, #4]
20004ec2:	601a      	str	r2, [r3, #0]
20004ec4:	4b04      	ldr	r3, [pc, #16]	@ (20004ed8 <stdio_usb_set_chars_available_callback+0x24>)
20004ec6:	683a      	ldr	r2, [r7, #0]
20004ec8:	601a      	str	r2, [r3, #0]
20004eca:	46c0      	nop			@ (mov r8, r8)
20004ecc:	46bd      	mov	sp, r7
20004ece:	b002      	add	sp, #8
20004ed0:	bd80      	pop	{r7, pc}
20004ed2:	46c0      	nop			@ (mov r8, r8)
20004ed4:	2000b82c 	.word	0x2000b82c
20004ed8:	2000b830 	.word	0x2000b830

20004edc <stdio_usb_init>:
20004edc:	b590      	push	{r4, r7, lr}
20004ede:	b085      	sub	sp, #20
20004ee0:	af02      	add	r7, sp, #8
20004ee2:	23d0      	movs	r3, #208	@ 0xd0
20004ee4:	061b      	lsls	r3, r3, #24
20004ee6:	681c      	ldr	r4, [r3, #0]
20004ee8:	f7fb ffa2 	bl	20000e30 <alarm_pool_get_default>
20004eec:	0003      	movs	r3, r0
20004eee:	0018      	movs	r0, r3
20004ef0:	f7fc faf3 	bl	200014da <alarm_pool_core_num>
20004ef4:	0003      	movs	r3, r0
20004ef6:	429c      	cmp	r4, r3
20004ef8:	d001      	beq.n	20004efe <stdio_usb_init+0x22>
20004efa:	2300      	movs	r3, #0
20004efc:	e052      	b.n	20004fa4 <stdio_usb_init+0xc8>
20004efe:	4b2b      	ldr	r3, [pc, #172]	@ (20004fac <stdio_usb_init+0xd0>)
20004f00:	781b      	ldrb	r3, [r3, #0]
20004f02:	f002 fea3 	bl	20007c4c <tusb_init>
20004f06:	4b2a      	ldr	r3, [pc, #168]	@ (20004fb0 <stdio_usb_init+0xd4>)
20004f08:	0018      	movs	r0, r3
20004f0a:	f7fb fc6e 	bl	200007ea <mutex_init>
20004f0e:	1dfb      	adds	r3, r7, #7
20004f10:	2201      	movs	r2, #1
20004f12:	701a      	strb	r2, [r3, #0]
20004f14:	2001      	movs	r0, #1
20004f16:	f7fd fcc9 	bl	200028ac <user_irq_claim_unused>
20004f1a:	0003      	movs	r3, r0
20004f1c:	b2da      	uxtb	r2, r3
20004f1e:	4b25      	ldr	r3, [pc, #148]	@ (20004fb4 <stdio_usb_init+0xd8>)
20004f20:	701a      	strb	r2, [r3, #0]
20004f22:	4b24      	ldr	r3, [pc, #144]	@ (20004fb4 <stdio_usb_init+0xd8>)
20004f24:	781b      	ldrb	r3, [r3, #0]
20004f26:	001a      	movs	r2, r3
20004f28:	4b23      	ldr	r3, [pc, #140]	@ (20004fb8 <stdio_usb_init+0xdc>)
20004f2a:	0019      	movs	r1, r3
20004f2c:	0010      	movs	r0, r2
20004f2e:	f7fd f8a9 	bl	20002084 <irq_set_exclusive_handler>
20004f32:	4b20      	ldr	r3, [pc, #128]	@ (20004fb4 <stdio_usb_init+0xd8>)
20004f34:	781b      	ldrb	r3, [r3, #0]
20004f36:	2101      	movs	r1, #1
20004f38:	0018      	movs	r0, r3
20004f3a:	f7fc fff7 	bl	20001f2c <irq_set_enabled>
20004f3e:	2005      	movs	r0, #5
20004f40:	f7fd f86a 	bl	20002018 <irq_has_shared_handler>
20004f44:	1e03      	subs	r3, r0, #0
20004f46:	d00e      	beq.n	20004f66 <stdio_usb_init+0x8a>
20004f48:	4b1c      	ldr	r3, [pc, #112]	@ (20004fbc <stdio_usb_init+0xe0>)
20004f4a:	2200      	movs	r2, #0
20004f4c:	0019      	movs	r1, r3
20004f4e:	2005      	movs	r0, #5
20004f50:	f7fd f976 	bl	20002240 <irq_add_shared_handler>
20004f54:	f7fc ff42 	bl	20001ddc <next_striped_spin_lock_num>
20004f58:	0002      	movs	r2, r0
20004f5a:	4b19      	ldr	r3, [pc, #100]	@ (20004fc0 <stdio_usb_init+0xe4>)
20004f5c:	0011      	movs	r1, r2
20004f5e:	0018      	movs	r0, r3
20004f60:	f7fb fc86 	bl	20000870 <critical_section_init_with_lock_num>
20004f64:	e013      	b.n	20004f8e <stdio_usb_init+0xb2>
20004f66:	4a17      	ldr	r2, [pc, #92]	@ (20004fc4 <stdio_usb_init+0xe8>)
20004f68:	20fa      	movs	r0, #250	@ 0xfa
20004f6a:	0080      	lsls	r0, r0, #2
20004f6c:	2100      	movs	r1, #0
20004f6e:	2301      	movs	r3, #1
20004f70:	9300      	str	r3, [sp, #0]
20004f72:	2300      	movs	r3, #0
20004f74:	f7ff fd6d 	bl	20004a52 <add_alarm_in_us>
20004f78:	0002      	movs	r2, r0
20004f7a:	1dfb      	adds	r3, r7, #7
20004f7c:	43d2      	mvns	r2, r2
20004f7e:	0fd2      	lsrs	r2, r2, #31
20004f80:	701a      	strb	r2, [r3, #0]
20004f82:	4b0f      	ldr	r3, [pc, #60]	@ (20004fc0 <stdio_usb_init+0xe4>)
20004f84:	2208      	movs	r2, #8
20004f86:	2100      	movs	r1, #0
20004f88:	0018      	movs	r0, r3
20004f8a:	f7ff f96d 	bl	20004268 <__wrap_memset>
20004f8e:	1dfb      	adds	r3, r7, #7
20004f90:	781b      	ldrb	r3, [r3, #0]
20004f92:	2b00      	cmp	r3, #0
20004f94:	d004      	beq.n	20004fa0 <stdio_usb_init+0xc4>
20004f96:	4b0c      	ldr	r3, [pc, #48]	@ (20004fc8 <stdio_usb_init+0xec>)
20004f98:	2101      	movs	r1, #1
20004f9a:	0018      	movs	r0, r3
20004f9c:	f7ff fb2a 	bl	200045f4 <stdio_set_driver_enabled>
20004fa0:	1dfb      	adds	r3, r7, #7
20004fa2:	781b      	ldrb	r3, [r3, #0]
20004fa4:	0018      	movs	r0, r3
20004fa6:	46bd      	mov	sp, r7
20004fa8:	b003      	add	sp, #12
20004faa:	bd90      	pop	{r4, r7, pc}
20004fac:	100002f4 	.word	0x100002f4
20004fb0:	2000bf20 	.word	0x2000bf20
20004fb4:	2000bf4f 	.word	0x2000bf4f
20004fb8:	20004c11 	.word	0x20004c11
20004fbc:	20004cb1 	.word	0x20004cb1
20004fc0:	2000bcf8 	.word	0x2000bcf8
20004fc4:	20004bad 	.word	0x20004bad
20004fc8:	2000b160 	.word	0x2000b160

20004fcc <stdio_usb_connected>:
20004fcc:	b580      	push	{r7, lr}
20004fce:	af00      	add	r7, sp, #0
20004fd0:	f7ff fda8 	bl	20004b24 <tud_cdc_connected>
20004fd4:	0003      	movs	r3, r0
20004fd6:	0018      	movs	r0, r3
20004fd8:	46bd      	mov	sp, r7
20004fda:	bd80      	pop	{r7, pc}

20004fdc <tud_descriptor_device_cb>:
20004fdc:	b580      	push	{r7, lr}
20004fde:	af00      	add	r7, sp, #0
20004fe0:	4b01      	ldr	r3, [pc, #4]	@ (20004fe8 <tud_descriptor_device_cb+0xc>)
20004fe2:	0018      	movs	r0, r3
20004fe4:	46bd      	mov	sp, r7
20004fe6:	bd80      	pop	{r7, pc}
20004fe8:	2000ae94 	.word	0x2000ae94

20004fec <tud_descriptor_configuration_cb>:
20004fec:	b580      	push	{r7, lr}
20004fee:	b082      	sub	sp, #8
20004ff0:	af00      	add	r7, sp, #0
20004ff2:	0002      	movs	r2, r0
20004ff4:	1dfb      	adds	r3, r7, #7
20004ff6:	701a      	strb	r2, [r3, #0]
20004ff8:	4b02      	ldr	r3, [pc, #8]	@ (20005004 <tud_descriptor_configuration_cb+0x18>)
20004ffa:	0018      	movs	r0, r3
20004ffc:	46bd      	mov	sp, r7
20004ffe:	b002      	add	sp, #8
20005000:	bd80      	pop	{r7, pc}
20005002:	46c0      	nop			@ (mov r8, r8)
20005004:	2000aea8 	.word	0x2000aea8

20005008 <tud_descriptor_string_cb>:
20005008:	b580      	push	{r7, lr}
2000500a:	b084      	sub	sp, #16
2000500c:	af00      	add	r7, sp, #0
2000500e:	0002      	movs	r2, r0
20005010:	1dfb      	adds	r3, r7, #7
20005012:	701a      	strb	r2, [r3, #0]
20005014:	1d3b      	adds	r3, r7, #4
20005016:	1c0a      	adds	r2, r1, #0
20005018:	801a      	strh	r2, [r3, #0]
2000501a:	4b2c      	ldr	r3, [pc, #176]	@ (200050cc <tud_descriptor_string_cb+0xc4>)
2000501c:	781b      	ldrb	r3, [r3, #0]
2000501e:	2b00      	cmp	r3, #0
20005020:	d104      	bne.n	2000502c <tud_descriptor_string_cb+0x24>
20005022:	4b2a      	ldr	r3, [pc, #168]	@ (200050cc <tud_descriptor_string_cb+0xc4>)
20005024:	2111      	movs	r1, #17
20005026:	0018      	movs	r0, r3
20005028:	f000 f864 	bl	200050f4 <pico_get_unique_board_id_string>
2000502c:	1dfb      	adds	r3, r7, #7
2000502e:	781b      	ldrb	r3, [r3, #0]
20005030:	2b00      	cmp	r3, #0
20005032:	d107      	bne.n	20005044 <tud_descriptor_string_cb+0x3c>
20005034:	4b26      	ldr	r3, [pc, #152]	@ (200050d0 <tud_descriptor_string_cb+0xc8>)
20005036:	4a27      	ldr	r2, [pc, #156]	@ (200050d4 <tud_descriptor_string_cb+0xcc>)
20005038:	805a      	strh	r2, [r3, #2]
2000503a:	230f      	movs	r3, #15
2000503c:	18fb      	adds	r3, r7, r3
2000503e:	2201      	movs	r2, #1
20005040:	701a      	strb	r2, [r3, #0]
20005042:	e02d      	b.n	200050a0 <tud_descriptor_string_cb+0x98>
20005044:	1dfb      	adds	r3, r7, #7
20005046:	781b      	ldrb	r3, [r3, #0]
20005048:	2b05      	cmp	r3, #5
2000504a:	d901      	bls.n	20005050 <tud_descriptor_string_cb+0x48>
2000504c:	2300      	movs	r3, #0
2000504e:	e038      	b.n	200050c2 <tud_descriptor_string_cb+0xba>
20005050:	1dfb      	adds	r3, r7, #7
20005052:	781a      	ldrb	r2, [r3, #0]
20005054:	4b20      	ldr	r3, [pc, #128]	@ (200050d8 <tud_descriptor_string_cb+0xd0>)
20005056:	0092      	lsls	r2, r2, #2
20005058:	58d3      	ldr	r3, [r2, r3]
2000505a:	60bb      	str	r3, [r7, #8]
2000505c:	230f      	movs	r3, #15
2000505e:	18fb      	adds	r3, r7, r3
20005060:	2200      	movs	r2, #0
20005062:	701a      	strb	r2, [r3, #0]
20005064:	e010      	b.n	20005088 <tud_descriptor_string_cb+0x80>
20005066:	200f      	movs	r0, #15
20005068:	183b      	adds	r3, r7, r0
2000506a:	781b      	ldrb	r3, [r3, #0]
2000506c:	68ba      	ldr	r2, [r7, #8]
2000506e:	18d3      	adds	r3, r2, r3
20005070:	7819      	ldrb	r1, [r3, #0]
20005072:	183b      	adds	r3, r7, r0
20005074:	781b      	ldrb	r3, [r3, #0]
20005076:	1c5a      	adds	r2, r3, #1
20005078:	4b15      	ldr	r3, [pc, #84]	@ (200050d0 <tud_descriptor_string_cb+0xc8>)
2000507a:	0052      	lsls	r2, r2, #1
2000507c:	52d1      	strh	r1, [r2, r3]
2000507e:	183b      	adds	r3, r7, r0
20005080:	183a      	adds	r2, r7, r0
20005082:	7812      	ldrb	r2, [r2, #0]
20005084:	3201      	adds	r2, #1
20005086:	701a      	strb	r2, [r3, #0]
20005088:	220f      	movs	r2, #15
2000508a:	18bb      	adds	r3, r7, r2
2000508c:	781b      	ldrb	r3, [r3, #0]
2000508e:	2b12      	cmp	r3, #18
20005090:	d806      	bhi.n	200050a0 <tud_descriptor_string_cb+0x98>
20005092:	18bb      	adds	r3, r7, r2
20005094:	781b      	ldrb	r3, [r3, #0]
20005096:	68ba      	ldr	r2, [r7, #8]
20005098:	18d3      	adds	r3, r2, r3
2000509a:	781b      	ldrb	r3, [r3, #0]
2000509c:	2b00      	cmp	r3, #0
2000509e:	d1e2      	bne.n	20005066 <tud_descriptor_string_cb+0x5e>
200050a0:	230f      	movs	r3, #15
200050a2:	18fb      	adds	r3, r7, r3
200050a4:	781b      	ldrb	r3, [r3, #0]
200050a6:	b29b      	uxth	r3, r3
200050a8:	3301      	adds	r3, #1
200050aa:	b29b      	uxth	r3, r3
200050ac:	18db      	adds	r3, r3, r3
200050ae:	b29b      	uxth	r3, r3
200050b0:	b21b      	sxth	r3, r3
200050b2:	22c0      	movs	r2, #192	@ 0xc0
200050b4:	0092      	lsls	r2, r2, #2
200050b6:	4313      	orrs	r3, r2
200050b8:	b21b      	sxth	r3, r3
200050ba:	b29a      	uxth	r2, r3
200050bc:	4b04      	ldr	r3, [pc, #16]	@ (200050d0 <tud_descriptor_string_cb+0xc8>)
200050be:	801a      	strh	r2, [r3, #0]
200050c0:	4b03      	ldr	r3, [pc, #12]	@ (200050d0 <tud_descriptor_string_cb+0xc8>)
200050c2:	0018      	movs	r0, r3
200050c4:	46bd      	mov	sp, r7
200050c6:	b004      	add	sp, #16
200050c8:	bd80      	pop	{r7, pc}
200050ca:	46c0      	nop			@ (mov r8, r8)
200050cc:	2000bf38 	.word	0x2000bf38
200050d0:	2000b8a0 	.word	0x2000b8a0
200050d4:	00000409 	.word	0x00000409
200050d8:	2000af28 	.word	0x2000af28

200050dc <_retrieve_unique_id_on_boot>:
200050dc:	b580      	push	{r7, lr}
200050de:	af00      	add	r7, sp, #0
200050e0:	4b03      	ldr	r3, [pc, #12]	@ (200050f0 <_retrieve_unique_id_on_boot+0x14>)
200050e2:	0018      	movs	r0, r3
200050e4:	f000 f853 	bl	2000518e <flash_get_unique_id>
200050e8:	46c0      	nop			@ (mov r8, r8)
200050ea:	46bd      	mov	sp, r7
200050ec:	bd80      	pop	{r7, pc}
200050ee:	46c0      	nop			@ (mov r8, r8)
200050f0:	2000bd10 	.word	0x2000bd10

200050f4 <pico_get_unique_board_id_string>:
200050f4:	b580      	push	{r7, lr}
200050f6:	b084      	sub	sp, #16
200050f8:	af00      	add	r7, sp, #0
200050fa:	6078      	str	r0, [r7, #4]
200050fc:	6039      	str	r1, [r7, #0]
200050fe:	2300      	movs	r3, #0
20005100:	60fb      	str	r3, [r7, #12]
20005102:	e023      	b.n	2000514c <pico_get_unique_board_id_string+0x58>
20005104:	68fb      	ldr	r3, [r7, #12]
20005106:	085b      	lsrs	r3, r3, #1
20005108:	4a19      	ldr	r2, [pc, #100]	@ (20005170 <pico_get_unique_board_id_string+0x7c>)
2000510a:	5cd3      	ldrb	r3, [r2, r3]
2000510c:	0019      	movs	r1, r3
2000510e:	68fb      	ldr	r3, [r7, #12]
20005110:	2201      	movs	r2, #1
20005112:	4013      	ands	r3, r2
20005114:	d101      	bne.n	2000511a <pico_get_unique_board_id_string+0x26>
20005116:	2304      	movs	r3, #4
20005118:	e000      	b.n	2000511c <pico_get_unique_board_id_string+0x28>
2000511a:	2300      	movs	r3, #0
2000511c:	4119      	asrs	r1, r3
2000511e:	000b      	movs	r3, r1
20005120:	220f      	movs	r2, #15
20005122:	4013      	ands	r3, r2
20005124:	60bb      	str	r3, [r7, #8]
20005126:	68bb      	ldr	r3, [r7, #8]
20005128:	2b09      	cmp	r3, #9
2000512a:	dc04      	bgt.n	20005136 <pico_get_unique_board_id_string+0x42>
2000512c:	68bb      	ldr	r3, [r7, #8]
2000512e:	b2db      	uxtb	r3, r3
20005130:	3330      	adds	r3, #48	@ 0x30
20005132:	b2db      	uxtb	r3, r3
20005134:	e003      	b.n	2000513e <pico_get_unique_board_id_string+0x4a>
20005136:	68bb      	ldr	r3, [r7, #8]
20005138:	b2db      	uxtb	r3, r3
2000513a:	3337      	adds	r3, #55	@ 0x37
2000513c:	b2db      	uxtb	r3, r3
2000513e:	6879      	ldr	r1, [r7, #4]
20005140:	68fa      	ldr	r2, [r7, #12]
20005142:	188a      	adds	r2, r1, r2
20005144:	7013      	strb	r3, [r2, #0]
20005146:	68fb      	ldr	r3, [r7, #12]
20005148:	3301      	adds	r3, #1
2000514a:	60fb      	str	r3, [r7, #12]
2000514c:	683b      	ldr	r3, [r7, #0]
2000514e:	3b01      	subs	r3, #1
20005150:	68fa      	ldr	r2, [r7, #12]
20005152:	429a      	cmp	r2, r3
20005154:	d202      	bcs.n	2000515c <pico_get_unique_board_id_string+0x68>
20005156:	68fb      	ldr	r3, [r7, #12]
20005158:	2b0f      	cmp	r3, #15
2000515a:	d9d3      	bls.n	20005104 <pico_get_unique_board_id_string+0x10>
2000515c:	687a      	ldr	r2, [r7, #4]
2000515e:	68fb      	ldr	r3, [r7, #12]
20005160:	18d3      	adds	r3, r2, r3
20005162:	2200      	movs	r2, #0
20005164:	701a      	strb	r2, [r3, #0]
20005166:	46c0      	nop			@ (mov r8, r8)
20005168:	46bd      	mov	sp, r7
2000516a:	b004      	add	sp, #16
2000516c:	bd80      	pop	{r7, pc}
2000516e:	46c0      	nop			@ (mov r8, r8)
20005170:	2000bd10 	.word	0x2000bd10

20005174 <rom_hword_as_ptr>:
20005174:	b580      	push	{r7, lr}
20005176:	b082      	sub	sp, #8
20005178:	af00      	add	r7, sp, #0
2000517a:	0002      	movs	r2, r0
2000517c:	1dbb      	adds	r3, r7, #6
2000517e:	801a      	strh	r2, [r3, #0]
20005180:	1dbb      	adds	r3, r7, #6
20005182:	881b      	ldrh	r3, [r3, #0]
20005184:	881b      	ldrh	r3, [r3, #0]
20005186:	0018      	movs	r0, r3
20005188:	46bd      	mov	sp, r7
2000518a:	b002      	add	sp, #8
2000518c:	bd80      	pop	{r7, pc}

2000518e <flash_get_unique_id>:
2000518e:	b5b0      	push	{r4, r5, r7, lr}
20005190:	b08c      	sub	sp, #48	@ 0x30
20005192:	af00      	add	r7, sp, #0
20005194:	6078      	str	r0, [r7, #4]
20005196:	241c      	movs	r4, #28
20005198:	193b      	adds	r3, r7, r4
2000519a:	2200      	movs	r2, #0
2000519c:	601a      	str	r2, [r3, #0]
2000519e:	3304      	adds	r3, #4
200051a0:	2209      	movs	r2, #9
200051a2:	2100      	movs	r1, #0
200051a4:	0018      	movs	r0, r3
200051a6:	f7ff f85f 	bl	20004268 <__wrap_memset>
200051aa:	250c      	movs	r5, #12
200051ac:	197b      	adds	r3, r7, r5
200051ae:	2200      	movs	r2, #0
200051b0:	601a      	str	r2, [r3, #0]
200051b2:	3304      	adds	r3, #4
200051b4:	2209      	movs	r2, #9
200051b6:	2100      	movs	r1, #0
200051b8:	0018      	movs	r0, r3
200051ba:	f7ff f855 	bl	20004268 <__wrap_memset>
200051be:	193b      	adds	r3, r7, r4
200051c0:	224b      	movs	r2, #75	@ 0x4b
200051c2:	701a      	strb	r2, [r3, #0]
200051c4:	1979      	adds	r1, r7, r5
200051c6:	193b      	adds	r3, r7, r4
200051c8:	220d      	movs	r2, #13
200051ca:	0018      	movs	r0, r3
200051cc:	f004 fe20 	bl	20009e10 <flash_do_cmd>
200051d0:	2300      	movs	r3, #0
200051d2:	62fb      	str	r3, [r7, #44]	@ 0x2c
200051d4:	e00b      	b.n	200051ee <flash_get_unique_id+0x60>
200051d6:	6afb      	ldr	r3, [r7, #44]	@ 0x2c
200051d8:	1d5a      	adds	r2, r3, #5
200051da:	6afb      	ldr	r3, [r7, #44]	@ 0x2c
200051dc:	6879      	ldr	r1, [r7, #4]
200051de:	18cb      	adds	r3, r1, r3
200051e0:	210c      	movs	r1, #12
200051e2:	1879      	adds	r1, r7, r1
200051e4:	5c8a      	ldrb	r2, [r1, r2]
200051e6:	701a      	strb	r2, [r3, #0]
200051e8:	6afb      	ldr	r3, [r7, #44]	@ 0x2c
200051ea:	3301      	adds	r3, #1
200051ec:	62fb      	str	r3, [r7, #44]	@ 0x2c
200051ee:	6afb      	ldr	r3, [r7, #44]	@ 0x2c
200051f0:	2b07      	cmp	r3, #7
200051f2:	ddf0      	ble.n	200051d6 <flash_get_unique_id+0x48>
200051f4:	46c0      	nop			@ (mov r8, r8)
200051f6:	46c0      	nop			@ (mov r8, r8)
200051f8:	46bd      	mov	sp, r7
200051fa:	b00c      	add	sp, #48	@ 0x30
200051fc:	bdb0      	pop	{r4, r5, r7, pc}

200051fe <hard_assert>:
200051fe:	b40f      	push	{r0, r1, r2, r3}
20005200:	b580      	push	{r7, lr}
20005202:	af00      	add	r7, sp, #0
20005204:	2308      	movs	r3, #8
20005206:	18fb      	adds	r3, r7, r3
20005208:	781b      	ldrb	r3, [r3, #0]
2000520a:	2201      	movs	r2, #1
2000520c:	4053      	eors	r3, r2
2000520e:	b2db      	uxtb	r3, r3
20005210:	2b00      	cmp	r3, #0
20005212:	d001      	beq.n	20005218 <hard_assert+0x1a>
20005214:	f7fe fc08 	bl	20003a28 <hard_assertion_failure>
20005218:	46c0      	nop			@ (mov r8, r8)
2000521a:	46bd      	mov	sp, r7
2000521c:	bc80      	pop	{r7}
2000521e:	bc08      	pop	{r3}
20005220:	b004      	add	sp, #16
20005222:	4718      	bx	r3

20005224 <time_us_32>:
20005224:	b580      	push	{r7, lr}
20005226:	af00      	add	r7, sp, #0
20005228:	4b02      	ldr	r3, [pc, #8]	@ (20005234 <time_us_32+0x10>)
2000522a:	6a9b      	ldr	r3, [r3, #40]	@ 0x28
2000522c:	0018      	movs	r0, r3
2000522e:	46bd      	mov	sp, r7
20005230:	bd80      	pop	{r7, pc}
20005232:	46c0      	nop			@ (mov r8, r8)
20005234:	40054000 	.word	0x40054000

20005238 <hw_data_offset>:
20005238:	b580      	push	{r7, lr}
2000523a:	b082      	sub	sp, #8
2000523c:	af00      	add	r7, sp, #0
2000523e:	6078      	str	r0, [r7, #4]
20005240:	687b      	ldr	r3, [r7, #4]
20005242:	4a03      	ldr	r2, [pc, #12]	@ (20005250 <hw_data_offset+0x18>)
20005244:	4053      	eors	r3, r2
20005246:	0018      	movs	r0, r3
20005248:	46bd      	mov	sp, r7
2000524a:	b002      	add	sp, #8
2000524c:	bd80      	pop	{r7, pc}
2000524e:	46c0      	nop			@ (mov r8, r8)
20005250:	50100000 	.word	0x50100000

20005254 <dcd_event_sof>:
20005254:	b590      	push	{r4, r7, lr}
20005256:	b087      	sub	sp, #28
20005258:	af00      	add	r7, sp, #0
2000525a:	6039      	str	r1, [r7, #0]
2000525c:	0011      	movs	r1, r2
2000525e:	1dfb      	adds	r3, r7, #7
20005260:	1c02      	adds	r2, r0, #0
20005262:	701a      	strb	r2, [r3, #0]
20005264:	1dbb      	adds	r3, r7, #6
20005266:	1c0a      	adds	r2, r1, #0
20005268:	701a      	strb	r2, [r3, #0]
2000526a:	240c      	movs	r4, #12
2000526c:	193b      	adds	r3, r7, r4
2000526e:	0018      	movs	r0, r3
20005270:	230c      	movs	r3, #12
20005272:	001a      	movs	r2, r3
20005274:	2100      	movs	r1, #0
20005276:	f7fe fff7 	bl	20004268 <__wrap_memset>
2000527a:	0021      	movs	r1, r4
2000527c:	187b      	adds	r3, r7, r1
2000527e:	1dfa      	adds	r2, r7, #7
20005280:	7812      	ldrb	r2, [r2, #0]
20005282:	701a      	strb	r2, [r3, #0]
20005284:	187b      	adds	r3, r7, r1
20005286:	2203      	movs	r2, #3
20005288:	705a      	strb	r2, [r3, #1]
2000528a:	187b      	adds	r3, r7, r1
2000528c:	683a      	ldr	r2, [r7, #0]
2000528e:	605a      	str	r2, [r3, #4]
20005290:	1dbb      	adds	r3, r7, #6
20005292:	781a      	ldrb	r2, [r3, #0]
20005294:	187b      	adds	r3, r7, r1
20005296:	0011      	movs	r1, r2
20005298:	0018      	movs	r0, r3
2000529a:	f005 fb73 	bl	2000a984 <dcd_event_handler>
2000529e:	46c0      	nop			@ (mov r8, r8)
200052a0:	46bd      	mov	sp, r7
200052a2:	b007      	add	sp, #28
200052a4:	bd90      	pop	{r4, r7, pc}
	...

200052a8 <hw_endpoint_get_by_addr>:
200052a8:	b590      	push	{r4, r7, lr}
200052aa:	b085      	sub	sp, #20
200052ac:	af00      	add	r7, sp, #0
200052ae:	0002      	movs	r2, r0
200052b0:	1dfb      	adds	r3, r7, #7
200052b2:	701a      	strb	r2, [r3, #0]
200052b4:	210a      	movs	r1, #10
200052b6:	187b      	adds	r3, r7, r1
200052b8:	1dfa      	adds	r2, r7, #7
200052ba:	7812      	ldrb	r2, [r2, #0]
200052bc:	701a      	strb	r2, [r3, #0]
200052be:	187b      	adds	r3, r7, r1
200052c0:	781b      	ldrb	r3, [r3, #0]
200052c2:	227f      	movs	r2, #127	@ 0x7f
200052c4:	4013      	ands	r3, r2
200052c6:	b2da      	uxtb	r2, r3
200052c8:	210f      	movs	r1, #15
200052ca:	187b      	adds	r3, r7, r1
200052cc:	701a      	strb	r2, [r3, #0]
200052ce:	200b      	movs	r0, #11
200052d0:	183b      	adds	r3, r7, r0
200052d2:	1dfa      	adds	r2, r7, #7
200052d4:	7812      	ldrb	r2, [r2, #0]
200052d6:	701a      	strb	r2, [r3, #0]
200052d8:	183b      	adds	r3, r7, r0
200052da:	781b      	ldrb	r3, [r3, #0]
200052dc:	09db      	lsrs	r3, r3, #7
200052de:	b2da      	uxtb	r2, r3
200052e0:	200e      	movs	r0, #14
200052e2:	183b      	adds	r3, r7, r0
200052e4:	701a      	strb	r2, [r3, #0]
200052e6:	240d      	movs	r4, #13
200052e8:	193b      	adds	r3, r7, r4
200052ea:	187a      	adds	r2, r7, r1
200052ec:	7812      	ldrb	r2, [r2, #0]
200052ee:	701a      	strb	r2, [r3, #0]
200052f0:	210c      	movs	r1, #12
200052f2:	187b      	adds	r3, r7, r1
200052f4:	183a      	adds	r2, r7, r0
200052f6:	7812      	ldrb	r2, [r2, #0]
200052f8:	701a      	strb	r2, [r3, #0]
200052fa:	193b      	adds	r3, r7, r4
200052fc:	781a      	ldrb	r2, [r3, #0]
200052fe:	187b      	adds	r3, r7, r1
20005300:	781b      	ldrb	r3, [r3, #0]
20005302:	0052      	lsls	r2, r2, #1
20005304:	18d3      	adds	r3, r2, r3
20005306:	015a      	lsls	r2, r3, #5
20005308:	4b02      	ldr	r3, [pc, #8]	@ (20005314 <hw_endpoint_get_by_addr+0x6c>)
2000530a:	18d3      	adds	r3, r2, r3
2000530c:	0018      	movs	r0, r3
2000530e:	46bd      	mov	sp, r7
20005310:	b005      	add	sp, #20
20005312:	bd90      	pop	{r4, r7, pc}
20005314:	2000b8d4 	.word	0x2000b8d4

20005318 <_hw_endpoint_alloc>:
20005318:	b580      	push	{r7, lr}
2000531a:	b088      	sub	sp, #32
2000531c:	af00      	add	r7, sp, #0
2000531e:	6078      	str	r0, [r7, #4]
20005320:	000a      	movs	r2, r1
20005322:	1cfb      	adds	r3, r7, #3
20005324:	701a      	strb	r2, [r3, #0]
20005326:	687b      	ldr	r3, [r7, #4]
20005328:	8b1b      	ldrh	r3, [r3, #24]
2000532a:	613b      	str	r3, [r7, #16]
2000532c:	2340      	movs	r3, #64	@ 0x40
2000532e:	60fb      	str	r3, [r7, #12]
20005330:	693a      	ldr	r2, [r7, #16]
20005332:	68fb      	ldr	r3, [r7, #12]
20005334:	18d3      	adds	r3, r2, r3
20005336:	3b01      	subs	r3, #1
20005338:	68f9      	ldr	r1, [r7, #12]
2000533a:	0018      	movs	r0, r3
2000533c:	f7fe fc4a 	bl	20003bd4 <__wrap___aeabi_uidiv>
20005340:	0003      	movs	r3, r0
20005342:	019b      	lsls	r3, r3, #6
20005344:	61fb      	str	r3, [r7, #28]
20005346:	1cfb      	adds	r3, r7, #3
20005348:	781b      	ldrb	r3, [r3, #0]
2000534a:	2b02      	cmp	r3, #2
2000534c:	d102      	bne.n	20005354 <_hw_endpoint_alloc+0x3c>
2000534e:	69fb      	ldr	r3, [r7, #28]
20005350:	005b      	lsls	r3, r3, #1
20005352:	61fb      	str	r3, [r7, #28]
20005354:	4b18      	ldr	r3, [pc, #96]	@ (200053b8 <_hw_endpoint_alloc+0xa0>)
20005356:	681a      	ldr	r2, [r3, #0]
20005358:	687b      	ldr	r3, [r7, #4]
2000535a:	60da      	str	r2, [r3, #12]
2000535c:	4b16      	ldr	r3, [pc, #88]	@ (200053b8 <_hw_endpoint_alloc+0xa0>)
2000535e:	681a      	ldr	r2, [r3, #0]
20005360:	69fb      	ldr	r3, [r7, #28]
20005362:	18d2      	adds	r2, r2, r3
20005364:	4b14      	ldr	r3, [pc, #80]	@ (200053b8 <_hw_endpoint_alloc+0xa0>)
20005366:	601a      	str	r2, [r3, #0]
20005368:	687b      	ldr	r3, [r7, #4]
2000536a:	68db      	ldr	r3, [r3, #12]
2000536c:	0018      	movs	r0, r3
2000536e:	f7ff ff63 	bl	20005238 <hw_data_offset>
20005372:	0003      	movs	r3, r0
20005374:	61bb      	str	r3, [r7, #24]
20005376:	4b10      	ldr	r3, [pc, #64]	@ (200053b8 <_hw_endpoint_alloc+0xa0>)
20005378:	681b      	ldr	r3, [r3, #0]
2000537a:	0018      	movs	r0, r3
2000537c:	f7ff ff5c 	bl	20005238 <hw_data_offset>
20005380:	0001      	movs	r1, r0
20005382:	2380      	movs	r3, #128	@ 0x80
20005384:	015a      	lsls	r2, r3, #5
20005386:	2300      	movs	r3, #0
20005388:	428a      	cmp	r2, r1
2000538a:	415b      	adcs	r3, r3
2000538c:	b2db      	uxtb	r3, r3
2000538e:	0018      	movs	r0, r3
20005390:	f7ff ff35 	bl	200051fe <hard_assert>
20005394:	1cfb      	adds	r3, r7, #3
20005396:	781b      	ldrb	r3, [r3, #0]
20005398:	069a      	lsls	r2, r3, #26
2000539a:	69bb      	ldr	r3, [r7, #24]
2000539c:	4313      	orrs	r3, r2
2000539e:	2280      	movs	r2, #128	@ 0x80
200053a0:	0612      	lsls	r2, r2, #24
200053a2:	4313      	orrs	r3, r2
200053a4:	617b      	str	r3, [r7, #20]
200053a6:	687b      	ldr	r3, [r7, #4]
200053a8:	685b      	ldr	r3, [r3, #4]
200053aa:	697a      	ldr	r2, [r7, #20]
200053ac:	601a      	str	r2, [r3, #0]
200053ae:	46c0      	nop			@ (mov r8, r8)
200053b0:	46bd      	mov	sp, r7
200053b2:	b008      	add	sp, #32
200053b4:	bd80      	pop	{r7, pc}
200053b6:	46c0      	nop			@ (mov r8, r8)
200053b8:	2000bcdc 	.word	0x2000bcdc

200053bc <hw_endpoint_init>:
200053bc:	b590      	push	{r4, r7, lr}
200053be:	b085      	sub	sp, #20
200053c0:	af00      	add	r7, sp, #0
200053c2:	0004      	movs	r4, r0
200053c4:	0008      	movs	r0, r1
200053c6:	0011      	movs	r1, r2
200053c8:	1dfb      	adds	r3, r7, #7
200053ca:	1c22      	adds	r2, r4, #0
200053cc:	701a      	strb	r2, [r3, #0]
200053ce:	1d3b      	adds	r3, r7, #4
200053d0:	1c02      	adds	r2, r0, #0
200053d2:	801a      	strh	r2, [r3, #0]
200053d4:	1dbb      	adds	r3, r7, #6
200053d6:	1c0a      	adds	r2, r1, #0
200053d8:	701a      	strb	r2, [r3, #0]
200053da:	1dfb      	adds	r3, r7, #7
200053dc:	781b      	ldrb	r3, [r3, #0]
200053de:	0018      	movs	r0, r3
200053e0:	f7ff ff62 	bl	200052a8 <hw_endpoint_get_by_addr>
200053e4:	0003      	movs	r3, r0
200053e6:	60fb      	str	r3, [r7, #12]
200053e8:	2108      	movs	r1, #8
200053ea:	187b      	adds	r3, r7, r1
200053ec:	1dfa      	adds	r2, r7, #7
200053ee:	7812      	ldrb	r2, [r2, #0]
200053f0:	701a      	strb	r2, [r3, #0]
200053f2:	187b      	adds	r3, r7, r1
200053f4:	781b      	ldrb	r3, [r3, #0]
200053f6:	227f      	movs	r2, #127	@ 0x7f
200053f8:	4013      	ands	r3, r2
200053fa:	b2da      	uxtb	r2, r3
200053fc:	200b      	movs	r0, #11
200053fe:	183b      	adds	r3, r7, r0
20005400:	701a      	strb	r2, [r3, #0]
20005402:	2109      	movs	r1, #9
20005404:	187b      	adds	r3, r7, r1
20005406:	1dfa      	adds	r2, r7, #7
20005408:	7812      	ldrb	r2, [r2, #0]
2000540a:	701a      	strb	r2, [r3, #0]
2000540c:	187b      	adds	r3, r7, r1
2000540e:	781b      	ldrb	r3, [r3, #0]
20005410:	09db      	lsrs	r3, r3, #7
20005412:	b2da      	uxtb	r2, r3
20005414:	210a      	movs	r1, #10
20005416:	187b      	adds	r3, r7, r1
20005418:	701a      	strb	r2, [r3, #0]
2000541a:	68fb      	ldr	r3, [r7, #12]
2000541c:	1dfa      	adds	r2, r7, #7
2000541e:	7812      	ldrb	r2, [r2, #0]
20005420:	709a      	strb	r2, [r3, #2]
20005422:	187b      	adds	r3, r7, r1
20005424:	781b      	ldrb	r3, [r3, #0]
20005426:	425a      	negs	r2, r3
20005428:	4153      	adcs	r3, r2
2000542a:	b2da      	uxtb	r2, r3
2000542c:	68fb      	ldr	r3, [r7, #12]
2000542e:	705a      	strb	r2, [r3, #1]
20005430:	68fb      	ldr	r3, [r7, #12]
20005432:	2200      	movs	r2, #0
20005434:	70da      	strb	r2, [r3, #3]
20005436:	68fb      	ldr	r3, [r7, #12]
20005438:	1d3a      	adds	r2, r7, #4
2000543a:	8812      	ldrh	r2, [r2, #0]
2000543c:	831a      	strh	r2, [r3, #24]
2000543e:	68fb      	ldr	r3, [r7, #12]
20005440:	1dba      	adds	r2, r7, #6
20005442:	7812      	ldrb	r2, [r2, #0]
20005444:	76da      	strb	r2, [r3, #27]
20005446:	187b      	adds	r3, r7, r1
20005448:	781b      	ldrb	r3, [r3, #0]
2000544a:	2b01      	cmp	r3, #1
2000544c:	d107      	bne.n	2000545e <hw_endpoint_init+0xa2>
2000544e:	183b      	adds	r3, r7, r0
20005450:	781b      	ldrb	r3, [r3, #0]
20005452:	00db      	lsls	r3, r3, #3
20005454:	4a20      	ldr	r2, [pc, #128]	@ (200054d8 <hw_endpoint_init+0x11c>)
20005456:	189a      	adds	r2, r3, r2
20005458:	68fb      	ldr	r3, [r7, #12]
2000545a:	609a      	str	r2, [r3, #8]
2000545c:	e008      	b.n	20005470 <hw_endpoint_init+0xb4>
2000545e:	230b      	movs	r3, #11
20005460:	18fb      	adds	r3, r7, r3
20005462:	781b      	ldrb	r3, [r3, #0]
20005464:	00db      	lsls	r3, r3, #3
20005466:	3304      	adds	r3, #4
20005468:	4a1b      	ldr	r2, [pc, #108]	@ (200054d8 <hw_endpoint_init+0x11c>)
2000546a:	189a      	adds	r2, r3, r2
2000546c:	68fb      	ldr	r3, [r7, #12]
2000546e:	609a      	str	r2, [r3, #8]
20005470:	68fb      	ldr	r3, [r7, #12]
20005472:	689b      	ldr	r3, [r3, #8]
20005474:	2200      	movs	r2, #0
20005476:	601a      	str	r2, [r3, #0]
20005478:	230b      	movs	r3, #11
2000547a:	18fb      	adds	r3, r7, r3
2000547c:	781b      	ldrb	r3, [r3, #0]
2000547e:	2b00      	cmp	r3, #0
20005480:	d106      	bne.n	20005490 <hw_endpoint_init+0xd4>
20005482:	68fb      	ldr	r3, [r7, #12]
20005484:	2200      	movs	r2, #0
20005486:	605a      	str	r2, [r3, #4]
20005488:	68fb      	ldr	r3, [r7, #12]
2000548a:	4a14      	ldr	r2, [pc, #80]	@ (200054dc <hw_endpoint_init+0x120>)
2000548c:	60da      	str	r2, [r3, #12]
2000548e:	e01f      	b.n	200054d0 <hw_endpoint_init+0x114>
20005490:	230a      	movs	r3, #10
20005492:	18fb      	adds	r3, r7, r3
20005494:	781b      	ldrb	r3, [r3, #0]
20005496:	2b01      	cmp	r3, #1
20005498:	d109      	bne.n	200054ae <hw_endpoint_init+0xf2>
2000549a:	230b      	movs	r3, #11
2000549c:	18fb      	adds	r3, r7, r3
2000549e:	781b      	ldrb	r3, [r3, #0]
200054a0:	3b01      	subs	r3, #1
200054a2:	00db      	lsls	r3, r3, #3
200054a4:	4a0e      	ldr	r2, [pc, #56]	@ (200054e0 <hw_endpoint_init+0x124>)
200054a6:	189a      	adds	r2, r3, r2
200054a8:	68fb      	ldr	r3, [r7, #12]
200054aa:	605a      	str	r2, [r3, #4]
200054ac:	e009      	b.n	200054c2 <hw_endpoint_init+0x106>
200054ae:	230b      	movs	r3, #11
200054b0:	18fb      	adds	r3, r7, r3
200054b2:	781b      	ldrb	r3, [r3, #0]
200054b4:	3b01      	subs	r3, #1
200054b6:	00db      	lsls	r3, r3, #3
200054b8:	3304      	adds	r3, #4
200054ba:	4a09      	ldr	r2, [pc, #36]	@ (200054e0 <hw_endpoint_init+0x124>)
200054bc:	189a      	adds	r2, r3, r2
200054be:	68fb      	ldr	r3, [r7, #12]
200054c0:	605a      	str	r2, [r3, #4]
200054c2:	1dbb      	adds	r3, r7, #6
200054c4:	781a      	ldrb	r2, [r3, #0]
200054c6:	68fb      	ldr	r3, [r7, #12]
200054c8:	0011      	movs	r1, r2
200054ca:	0018      	movs	r0, r3
200054cc:	f7ff ff24 	bl	20005318 <_hw_endpoint_alloc>
200054d0:	46c0      	nop			@ (mov r8, r8)
200054d2:	46bd      	mov	sp, r7
200054d4:	b005      	add	sp, #20
200054d6:	bd90      	pop	{r4, r7, pc}
200054d8:	50100080 	.word	0x50100080
200054dc:	50100100 	.word	0x50100100
200054e0:	50100008 	.word	0x50100008

200054e4 <hw_endpoint_xfer>:
200054e4:	b580      	push	{r7, lr}
200054e6:	b084      	sub	sp, #16
200054e8:	af00      	add	r7, sp, #0
200054ea:	6039      	str	r1, [r7, #0]
200054ec:	0011      	movs	r1, r2
200054ee:	1dfb      	adds	r3, r7, #7
200054f0:	1c02      	adds	r2, r0, #0
200054f2:	701a      	strb	r2, [r3, #0]
200054f4:	1d3b      	adds	r3, r7, #4
200054f6:	1c0a      	adds	r2, r1, #0
200054f8:	801a      	strh	r2, [r3, #0]
200054fa:	1dfb      	adds	r3, r7, #7
200054fc:	781b      	ldrb	r3, [r3, #0]
200054fe:	0018      	movs	r0, r3
20005500:	f7ff fed2 	bl	200052a8 <hw_endpoint_get_by_addr>
20005504:	0003      	movs	r3, r0
20005506:	60fb      	str	r3, [r7, #12]
20005508:	1d3b      	adds	r3, r7, #4
2000550a:	881a      	ldrh	r2, [r3, #0]
2000550c:	6839      	ldr	r1, [r7, #0]
2000550e:	68fb      	ldr	r3, [r7, #12]
20005510:	0018      	movs	r0, r3
20005512:	f000 f9b7 	bl	20005884 <hw_endpoint_xfer_start>
20005516:	46c0      	nop			@ (mov r8, r8)
20005518:	46bd      	mov	sp, r7
2000551a:	b004      	add	sp, #16
2000551c:	bd80      	pop	{r7, pc}
	...

20005520 <dcd_init>:
20005520:	b580      	push	{r7, lr}
20005522:	b082      	sub	sp, #8
20005524:	af00      	add	r7, sp, #0
20005526:	0002      	movs	r2, r0
20005528:	1dfb      	adds	r3, r7, #7
2000552a:	701a      	strb	r2, [r3, #0]
2000552c:	f000 f986 	bl	2000583c <rp2040_usb_init>
20005530:	4b17      	ldr	r3, [pc, #92]	@ (20005590 <dcd_init+0x70>)
20005532:	220c      	movs	r2, #12
20005534:	679a      	str	r2, [r3, #120]	@ 0x78
20005536:	4b17      	ldr	r3, [pc, #92]	@ (20005594 <dcd_init+0x74>)
20005538:	22ff      	movs	r2, #255	@ 0xff
2000553a:	0019      	movs	r1, r3
2000553c:	2005      	movs	r0, #5
2000553e:	f7fc fe7f 	bl	20002240 <irq_add_shared_handler>
20005542:	4b15      	ldr	r3, [pc, #84]	@ (20005598 <dcd_init+0x78>)
20005544:	2240      	movs	r2, #64	@ 0x40
20005546:	2100      	movs	r1, #0
20005548:	0018      	movs	r0, r3
2000554a:	f7fe fe8d 	bl	20004268 <__wrap_memset>
2000554e:	2200      	movs	r2, #0
20005550:	2140      	movs	r1, #64	@ 0x40
20005552:	2000      	movs	r0, #0
20005554:	f7ff ff32 	bl	200053bc <hw_endpoint_init>
20005558:	2200      	movs	r2, #0
2000555a:	2140      	movs	r1, #64	@ 0x40
2000555c:	2080      	movs	r0, #128	@ 0x80
2000555e:	f7ff ff2d 	bl	200053bc <hw_endpoint_init>
20005562:	f004 fd97 	bl	2000a094 <reset_non_control_endpoints>
20005566:	4b0a      	ldr	r3, [pc, #40]	@ (20005590 <dcd_init+0x70>)
20005568:	2201      	movs	r2, #1
2000556a:	641a      	str	r2, [r3, #64]	@ 0x40
2000556c:	4b08      	ldr	r3, [pc, #32]	@ (20005590 <dcd_init+0x70>)
2000556e:	2280      	movs	r2, #128	@ 0x80
20005570:	0592      	lsls	r2, r2, #22
20005572:	64da      	str	r2, [r3, #76]	@ 0x4c
20005574:	4a06      	ldr	r2, [pc, #24]	@ (20005590 <dcd_init+0x70>)
20005576:	2390      	movs	r3, #144	@ 0x90
20005578:	4908      	ldr	r1, [pc, #32]	@ (2000559c <dcd_init+0x7c>)
2000557a:	50d1      	str	r1, [r2, r3]
2000557c:	1dfb      	adds	r3, r7, #7
2000557e:	781b      	ldrb	r3, [r3, #0]
20005580:	0018      	movs	r0, r3
20005582:	f000 f82d 	bl	200055e0 <dcd_connect>
20005586:	46c0      	nop			@ (mov r8, r8)
20005588:	46bd      	mov	sp, r7
2000558a:	b002      	add	sp, #8
2000558c:	bd80      	pop	{r7, pc}
2000558e:	46c0      	nop			@ (mov r8, r8)
20005590:	50110000 	.word	0x50110000
20005594:	2000a101 	.word	0x2000a101
20005598:	2000b8d4 	.word	0x2000b8d4
2000559c:	0001d010 	.word	0x0001d010

200055a0 <dcd_int_enable>:
200055a0:	b580      	push	{r7, lr}
200055a2:	b082      	sub	sp, #8
200055a4:	af00      	add	r7, sp, #0
200055a6:	0002      	movs	r2, r0
200055a8:	1dfb      	adds	r3, r7, #7
200055aa:	701a      	strb	r2, [r3, #0]
200055ac:	2101      	movs	r1, #1
200055ae:	2005      	movs	r0, #5
200055b0:	f7fc fcbc 	bl	20001f2c <irq_set_enabled>
200055b4:	46c0      	nop			@ (mov r8, r8)
200055b6:	46bd      	mov	sp, r7
200055b8:	b002      	add	sp, #8
200055ba:	bd80      	pop	{r7, pc}

200055bc <dcd_set_address>:
200055bc:	b580      	push	{r7, lr}
200055be:	b082      	sub	sp, #8
200055c0:	af00      	add	r7, sp, #0
200055c2:	0002      	movs	r2, r0
200055c4:	1dfb      	adds	r3, r7, #7
200055c6:	701a      	strb	r2, [r3, #0]
200055c8:	1dbb      	adds	r3, r7, #6
200055ca:	1c0a      	adds	r2, r1, #0
200055cc:	701a      	strb	r2, [r3, #0]
200055ce:	2200      	movs	r2, #0
200055d0:	2100      	movs	r1, #0
200055d2:	2080      	movs	r0, #128	@ 0x80
200055d4:	f7ff ff86 	bl	200054e4 <hw_endpoint_xfer>
200055d8:	46c0      	nop			@ (mov r8, r8)
200055da:	46bd      	mov	sp, r7
200055dc:	b002      	add	sp, #8
200055de:	bd80      	pop	{r7, pc}

200055e0 <dcd_connect>:
200055e0:	b580      	push	{r7, lr}
200055e2:	b082      	sub	sp, #8
200055e4:	af00      	add	r7, sp, #0
200055e6:	0002      	movs	r2, r0
200055e8:	1dfb      	adds	r3, r7, #7
200055ea:	701a      	strb	r2, [r3, #0]
200055ec:	4b03      	ldr	r3, [pc, #12]	@ (200055fc <dcd_connect+0x1c>)
200055ee:	2280      	movs	r2, #128	@ 0x80
200055f0:	0252      	lsls	r2, r2, #9
200055f2:	64da      	str	r2, [r3, #76]	@ 0x4c
200055f4:	46c0      	nop			@ (mov r8, r8)
200055f6:	46bd      	mov	sp, r7
200055f8:	b002      	add	sp, #8
200055fa:	bd80      	pop	{r7, pc}
200055fc:	50112000 	.word	0x50112000

20005600 <dcd_edpt0_status_complete>:
20005600:	b580      	push	{r7, lr}
20005602:	b082      	sub	sp, #8
20005604:	af00      	add	r7, sp, #0
20005606:	0002      	movs	r2, r0
20005608:	6039      	str	r1, [r7, #0]
2000560a:	1dfb      	adds	r3, r7, #7
2000560c:	701a      	strb	r2, [r3, #0]
2000560e:	683b      	ldr	r3, [r7, #0]
20005610:	781b      	ldrb	r3, [r3, #0]
20005612:	221f      	movs	r2, #31
20005614:	4013      	ands	r3, r2
20005616:	b2db      	uxtb	r3, r3
20005618:	2b00      	cmp	r3, #0
2000561a:	d113      	bne.n	20005644 <dcd_edpt0_status_complete+0x44>
2000561c:	683b      	ldr	r3, [r7, #0]
2000561e:	781b      	ldrb	r3, [r3, #0]
20005620:	2260      	movs	r2, #96	@ 0x60
20005622:	4013      	ands	r3, r2
20005624:	b2db      	uxtb	r3, r3
20005626:	2b00      	cmp	r3, #0
20005628:	d10c      	bne.n	20005644 <dcd_edpt0_status_complete+0x44>
2000562a:	683b      	ldr	r3, [r7, #0]
2000562c:	785b      	ldrb	r3, [r3, #1]
2000562e:	2b05      	cmp	r3, #5
20005630:	d108      	bne.n	20005644 <dcd_edpt0_status_complete+0x44>
20005632:	683b      	ldr	r3, [r7, #0]
20005634:	789a      	ldrb	r2, [r3, #2]
20005636:	78db      	ldrb	r3, [r3, #3]
20005638:	021b      	lsls	r3, r3, #8
2000563a:	4313      	orrs	r3, r2
2000563c:	b29b      	uxth	r3, r3
2000563e:	b2da      	uxtb	r2, r3
20005640:	4b02      	ldr	r3, [pc, #8]	@ (2000564c <dcd_edpt0_status_complete+0x4c>)
20005642:	601a      	str	r2, [r3, #0]
20005644:	46c0      	nop			@ (mov r8, r8)
20005646:	46bd      	mov	sp, r7
20005648:	b002      	add	sp, #8
2000564a:	bd80      	pop	{r7, pc}
2000564c:	50110000 	.word	0x50110000

20005650 <dcd_edpt_open>:
20005650:	b580      	push	{r7, lr}
20005652:	b084      	sub	sp, #16
20005654:	af00      	add	r7, sp, #0
20005656:	0002      	movs	r2, r0
20005658:	6039      	str	r1, [r7, #0]
2000565a:	1dfb      	adds	r3, r7, #7
2000565c:	701a      	strb	r2, [r3, #0]
2000565e:	683b      	ldr	r3, [r7, #0]
20005660:	7898      	ldrb	r0, [r3, #2]
20005662:	683b      	ldr	r3, [r7, #0]
20005664:	60fb      	str	r3, [r7, #12]
20005666:	68fb      	ldr	r3, [r7, #12]
20005668:	791a      	ldrb	r2, [r3, #4]
2000566a:	795b      	ldrb	r3, [r3, #5]
2000566c:	021b      	lsls	r3, r3, #8
2000566e:	4313      	orrs	r3, r2
20005670:	b29b      	uxth	r3, r3
20005672:	055b      	lsls	r3, r3, #21
20005674:	0d5b      	lsrs	r3, r3, #21
20005676:	b299      	uxth	r1, r3
20005678:	683b      	ldr	r3, [r7, #0]
2000567a:	78db      	ldrb	r3, [r3, #3]
2000567c:	079b      	lsls	r3, r3, #30
2000567e:	0f9b      	lsrs	r3, r3, #30
20005680:	b2db      	uxtb	r3, r3
20005682:	001a      	movs	r2, r3
20005684:	f7ff fe9a 	bl	200053bc <hw_endpoint_init>
20005688:	2301      	movs	r3, #1
2000568a:	0018      	movs	r0, r3
2000568c:	46bd      	mov	sp, r7
2000568e:	b004      	add	sp, #16
20005690:	bd80      	pop	{r7, pc}

20005692 <dcd_edpt_close_all>:
20005692:	b580      	push	{r7, lr}
20005694:	b082      	sub	sp, #8
20005696:	af00      	add	r7, sp, #0
20005698:	0002      	movs	r2, r0
2000569a:	1dfb      	adds	r3, r7, #7
2000569c:	701a      	strb	r2, [r3, #0]
2000569e:	f004 fcf9 	bl	2000a094 <reset_non_control_endpoints>
200056a2:	46c0      	nop			@ (mov r8, r8)
200056a4:	46bd      	mov	sp, r7
200056a6:	b002      	add	sp, #8
200056a8:	bd80      	pop	{r7, pc}

200056aa <dcd_edpt_xfer>:
200056aa:	b590      	push	{r4, r7, lr}
200056ac:	b083      	sub	sp, #12
200056ae:	af00      	add	r7, sp, #0
200056b0:	0004      	movs	r4, r0
200056b2:	0008      	movs	r0, r1
200056b4:	603a      	str	r2, [r7, #0]
200056b6:	0019      	movs	r1, r3
200056b8:	1dfb      	adds	r3, r7, #7
200056ba:	1c22      	adds	r2, r4, #0
200056bc:	701a      	strb	r2, [r3, #0]
200056be:	1dbb      	adds	r3, r7, #6
200056c0:	1c02      	adds	r2, r0, #0
200056c2:	701a      	strb	r2, [r3, #0]
200056c4:	1d3b      	adds	r3, r7, #4
200056c6:	1c0a      	adds	r2, r1, #0
200056c8:	801a      	strh	r2, [r3, #0]
200056ca:	1d3b      	adds	r3, r7, #4
200056cc:	881a      	ldrh	r2, [r3, #0]
200056ce:	6839      	ldr	r1, [r7, #0]
200056d0:	1dbb      	adds	r3, r7, #6
200056d2:	781b      	ldrb	r3, [r3, #0]
200056d4:	0018      	movs	r0, r3
200056d6:	f7ff ff05 	bl	200054e4 <hw_endpoint_xfer>
200056da:	2301      	movs	r3, #1
200056dc:	0018      	movs	r0, r3
200056de:	46bd      	mov	sp, r7
200056e0:	b003      	add	sp, #12
200056e2:	bd90      	pop	{r4, r7, pc}

200056e4 <dcd_edpt_stall>:
200056e4:	b580      	push	{r7, lr}
200056e6:	b086      	sub	sp, #24
200056e8:	af00      	add	r7, sp, #0
200056ea:	0002      	movs	r2, r0
200056ec:	1dfb      	adds	r3, r7, #7
200056ee:	701a      	strb	r2, [r3, #0]
200056f0:	1dbb      	adds	r3, r7, #6
200056f2:	1c0a      	adds	r2, r1, #0
200056f4:	701a      	strb	r2, [r3, #0]
200056f6:	2113      	movs	r1, #19
200056f8:	187b      	adds	r3, r7, r1
200056fa:	1dba      	adds	r2, r7, #6
200056fc:	7812      	ldrb	r2, [r2, #0]
200056fe:	701a      	strb	r2, [r3, #0]
20005700:	187b      	adds	r3, r7, r1
20005702:	781b      	ldrb	r3, [r3, #0]
20005704:	227f      	movs	r2, #127	@ 0x7f
20005706:	4013      	ands	r3, r2
20005708:	b2db      	uxtb	r3, r3
2000570a:	2b00      	cmp	r3, #0
2000570c:	d10f      	bne.n	2000572e <dcd_edpt_stall+0x4a>
2000570e:	2112      	movs	r1, #18
20005710:	187b      	adds	r3, r7, r1
20005712:	1dba      	adds	r2, r7, #6
20005714:	7812      	ldrb	r2, [r2, #0]
20005716:	701a      	strb	r2, [r3, #0]
20005718:	187b      	adds	r3, r7, r1
2000571a:	781b      	ldrb	r3, [r3, #0]
2000571c:	09db      	lsrs	r3, r3, #7
2000571e:	b2db      	uxtb	r3, r3
20005720:	2b01      	cmp	r3, #1
20005722:	d101      	bne.n	20005728 <dcd_edpt_stall+0x44>
20005724:	2201      	movs	r2, #1
20005726:	e000      	b.n	2000572a <dcd_edpt_stall+0x46>
20005728:	2202      	movs	r2, #2
2000572a:	4b0c      	ldr	r3, [pc, #48]	@ (2000575c <dcd_edpt_stall+0x78>)
2000572c:	669a      	str	r2, [r3, #104]	@ 0x68
2000572e:	1dbb      	adds	r3, r7, #6
20005730:	781b      	ldrb	r3, [r3, #0]
20005732:	0018      	movs	r0, r3
20005734:	f7ff fdb8 	bl	200052a8 <hw_endpoint_get_by_addr>
20005738:	0003      	movs	r3, r0
2000573a:	617b      	str	r3, [r7, #20]
2000573c:	697b      	ldr	r3, [r7, #20]
2000573e:	60fb      	str	r3, [r7, #12]
20005740:	2380      	movs	r3, #128	@ 0x80
20005742:	011b      	lsls	r3, r3, #4
20005744:	60bb      	str	r3, [r7, #8]
20005746:	68ba      	ldr	r2, [r7, #8]
20005748:	68fb      	ldr	r3, [r7, #12]
2000574a:	2100      	movs	r1, #0
2000574c:	0018      	movs	r0, r3
2000574e:	f004 fe8b 	bl	2000a468 <_hw_endpoint_buffer_control_update32>
20005752:	46c0      	nop			@ (mov r8, r8)
20005754:	46bd      	mov	sp, r7
20005756:	b006      	add	sp, #24
20005758:	bd80      	pop	{r7, pc}
2000575a:	46c0      	nop			@ (mov r8, r8)
2000575c:	50112000 	.word	0x50112000

20005760 <dcd_edpt_clear_stall>:
20005760:	b580      	push	{r7, lr}
20005762:	b086      	sub	sp, #24
20005764:	af00      	add	r7, sp, #0
20005766:	0002      	movs	r2, r0
20005768:	1dfb      	adds	r3, r7, #7
2000576a:	701a      	strb	r2, [r3, #0]
2000576c:	1dbb      	adds	r3, r7, #6
2000576e:	1c0a      	adds	r2, r1, #0
20005770:	701a      	strb	r2, [r3, #0]
20005772:	2113      	movs	r1, #19
20005774:	187b      	adds	r3, r7, r1
20005776:	1dba      	adds	r2, r7, #6
20005778:	7812      	ldrb	r2, [r2, #0]
2000577a:	701a      	strb	r2, [r3, #0]
2000577c:	187b      	adds	r3, r7, r1
2000577e:	781b      	ldrb	r3, [r3, #0]
20005780:	227f      	movs	r2, #127	@ 0x7f
20005782:	4013      	ands	r3, r2
20005784:	b2db      	uxtb	r3, r3
20005786:	2b00      	cmp	r3, #0
20005788:	d015      	beq.n	200057b6 <dcd_edpt_clear_stall+0x56>
2000578a:	1dbb      	adds	r3, r7, #6
2000578c:	781b      	ldrb	r3, [r3, #0]
2000578e:	0018      	movs	r0, r3
20005790:	f7ff fd8a 	bl	200052a8 <hw_endpoint_get_by_addr>
20005794:	0003      	movs	r3, r0
20005796:	617b      	str	r3, [r7, #20]
20005798:	697b      	ldr	r3, [r7, #20]
2000579a:	2200      	movs	r2, #0
2000579c:	70da      	strb	r2, [r3, #3]
2000579e:	697b      	ldr	r3, [r7, #20]
200057a0:	60fb      	str	r3, [r7, #12]
200057a2:	2380      	movs	r3, #128	@ 0x80
200057a4:	011b      	lsls	r3, r3, #4
200057a6:	60bb      	str	r3, [r7, #8]
200057a8:	68bb      	ldr	r3, [r7, #8]
200057aa:	43d9      	mvns	r1, r3
200057ac:	68fb      	ldr	r3, [r7, #12]
200057ae:	2200      	movs	r2, #0
200057b0:	0018      	movs	r0, r3
200057b2:	f004 fe59 	bl	2000a468 <_hw_endpoint_buffer_control_update32>
200057b6:	46c0      	nop			@ (mov r8, r8)
200057b8:	46bd      	mov	sp, r7
200057ba:	b006      	add	sp, #24
200057bc:	bd80      	pop	{r7, pc}
	...

200057c0 <reset_block>:
200057c0:	b580      	push	{r7, lr}
200057c2:	b084      	sub	sp, #16
200057c4:	af00      	add	r7, sp, #0
200057c6:	6078      	str	r0, [r7, #4]
200057c8:	4b07      	ldr	r3, [pc, #28]	@ (200057e8 <reset_block+0x28>)
200057ca:	60fb      	str	r3, [r7, #12]
200057cc:	687b      	ldr	r3, [r7, #4]
200057ce:	60bb      	str	r3, [r7, #8]
200057d0:	68fb      	ldr	r3, [r7, #12]
200057d2:	2280      	movs	r2, #128	@ 0x80
200057d4:	0192      	lsls	r2, r2, #6
200057d6:	4313      	orrs	r3, r2
200057d8:	68ba      	ldr	r2, [r7, #8]
200057da:	601a      	str	r2, [r3, #0]
200057dc:	46c0      	nop			@ (mov r8, r8)
200057de:	46c0      	nop			@ (mov r8, r8)
200057e0:	46bd      	mov	sp, r7
200057e2:	b004      	add	sp, #16
200057e4:	bd80      	pop	{r7, pc}
200057e6:	46c0      	nop			@ (mov r8, r8)
200057e8:	4000c000 	.word	0x4000c000

200057ec <unreset_block_wait>:
200057ec:	b580      	push	{r7, lr}
200057ee:	b084      	sub	sp, #16
200057f0:	af00      	add	r7, sp, #0
200057f2:	6078      	str	r0, [r7, #4]
200057f4:	4b0b      	ldr	r3, [pc, #44]	@ (20005824 <unreset_block_wait+0x38>)
200057f6:	60fb      	str	r3, [r7, #12]
200057f8:	687b      	ldr	r3, [r7, #4]
200057fa:	60bb      	str	r3, [r7, #8]
200057fc:	68fb      	ldr	r3, [r7, #12]
200057fe:	22c0      	movs	r2, #192	@ 0xc0
20005800:	0192      	lsls	r2, r2, #6
20005802:	4313      	orrs	r3, r2
20005804:	68ba      	ldr	r2, [r7, #8]
20005806:	601a      	str	r2, [r3, #0]
20005808:	46c0      	nop			@ (mov r8, r8)
2000580a:	e000      	b.n	2000580e <unreset_block_wait+0x22>
2000580c:	46c0      	nop			@ (mov r8, r8)
2000580e:	4b05      	ldr	r3, [pc, #20]	@ (20005824 <unreset_block_wait+0x38>)
20005810:	689b      	ldr	r3, [r3, #8]
20005812:	43db      	mvns	r3, r3
20005814:	687a      	ldr	r2, [r7, #4]
20005816:	4013      	ands	r3, r2
20005818:	d1f8      	bne.n	2000580c <unreset_block_wait+0x20>
2000581a:	46c0      	nop			@ (mov r8, r8)
2000581c:	46c0      	nop			@ (mov r8, r8)
2000581e:	46bd      	mov	sp, r7
20005820:	b004      	add	sp, #16
20005822:	bd80      	pop	{r7, pc}
20005824:	4000c000 	.word	0x4000c000

20005828 <time_us_32>:
20005828:	b580      	push	{r7, lr}
2000582a:	af00      	add	r7, sp, #0
2000582c:	4b02      	ldr	r3, [pc, #8]	@ (20005838 <time_us_32+0x10>)
2000582e:	6a9b      	ldr	r3, [r3, #40]	@ 0x28
20005830:	0018      	movs	r0, r3
20005832:	46bd      	mov	sp, r7
20005834:	bd80      	pop	{r7, pc}
20005836:	46c0      	nop			@ (mov r8, r8)
20005838:	40054000 	.word	0x40054000

2000583c <rp2040_usb_init>:
2000583c:	b580      	push	{r7, lr}
2000583e:	af00      	add	r7, sp, #0
20005840:	2380      	movs	r3, #128	@ 0x80
20005842:	045b      	lsls	r3, r3, #17
20005844:	0018      	movs	r0, r3
20005846:	f7ff ffbb 	bl	200057c0 <reset_block>
2000584a:	2380      	movs	r3, #128	@ 0x80
2000584c:	045b      	lsls	r3, r3, #17
2000584e:	0018      	movs	r0, r3
20005850:	f7ff ffcc 	bl	200057ec <unreset_block_wait>
20005854:	4b09      	ldr	r3, [pc, #36]	@ (2000587c <rp2040_usb_init+0x40>)
20005856:	229c      	movs	r2, #156	@ 0x9c
20005858:	2100      	movs	r1, #0
2000585a:	0018      	movs	r0, r3
2000585c:	f7fe fd04 	bl	20004268 <__wrap_memset>
20005860:	2380      	movs	r3, #128	@ 0x80
20005862:	015b      	lsls	r3, r3, #5
20005864:	4806      	ldr	r0, [pc, #24]	@ (20005880 <rp2040_usb_init+0x44>)
20005866:	001a      	movs	r2, r3
20005868:	2100      	movs	r1, #0
2000586a:	f7fe fcfd 	bl	20004268 <__wrap_memset>
2000586e:	4b03      	ldr	r3, [pc, #12]	@ (2000587c <rp2040_usb_init+0x40>)
20005870:	2209      	movs	r2, #9
20005872:	675a      	str	r2, [r3, #116]	@ 0x74
20005874:	46c0      	nop			@ (mov r8, r8)
20005876:	46bd      	mov	sp, r7
20005878:	bd80      	pop	{r7, pc}
2000587a:	46c0      	nop			@ (mov r8, r8)
2000587c:	50110000 	.word	0x50110000
20005880:	50100000 	.word	0x50100000

20005884 <hw_endpoint_xfer_start>:
20005884:	b580      	push	{r7, lr}
20005886:	b088      	sub	sp, #32
20005888:	af00      	add	r7, sp, #0
2000588a:	60f8      	str	r0, [r7, #12]
2000588c:	60b9      	str	r1, [r7, #8]
2000588e:	1dbb      	adds	r3, r7, #6
20005890:	801a      	strh	r2, [r3, #0]
20005892:	68fb      	ldr	r3, [r7, #12]
20005894:	61fb      	str	r3, [r7, #28]
20005896:	2301      	movs	r3, #1
20005898:	61bb      	str	r3, [r7, #24]
2000589a:	46c0      	nop			@ (mov r8, r8)
2000589c:	68fb      	ldr	r3, [r7, #12]
2000589e:	7e9b      	ldrb	r3, [r3, #26]
200058a0:	2b00      	cmp	r3, #0
200058a2:	d003      	beq.n	200058ac <hw_endpoint_xfer_start+0x28>
200058a4:	68fb      	ldr	r3, [r7, #12]
200058a6:	0018      	movs	r0, r3
200058a8:	f004 fdca 	bl	2000a440 <hw_endpoint_reset_transfer>
200058ac:	68fb      	ldr	r3, [r7, #12]
200058ae:	1dba      	adds	r2, r7, #6
200058b0:	8812      	ldrh	r2, [r2, #0]
200058b2:	829a      	strh	r2, [r3, #20]
200058b4:	68fb      	ldr	r3, [r7, #12]
200058b6:	2200      	movs	r2, #0
200058b8:	82da      	strh	r2, [r3, #22]
200058ba:	68fb      	ldr	r3, [r7, #12]
200058bc:	2201      	movs	r2, #1
200058be:	769a      	strb	r2, [r3, #26]
200058c0:	68fb      	ldr	r3, [r7, #12]
200058c2:	68ba      	ldr	r2, [r7, #8]
200058c4:	611a      	str	r2, [r3, #16]
200058c6:	68fb      	ldr	r3, [r7, #12]
200058c8:	0018      	movs	r0, r3
200058ca:	f005 f803 	bl	2000a8d4 <e15_is_bulkin_ep>
200058ce:	1e03      	subs	r3, r0, #0
200058d0:	d004      	beq.n	200058dc <hw_endpoint_xfer_start+0x58>
200058d2:	490e      	ldr	r1, [pc, #56]	@ (2000590c <hw_endpoint_xfer_start+0x88>)
200058d4:	2290      	movs	r2, #144	@ 0x90
200058d6:	2380      	movs	r3, #128	@ 0x80
200058d8:	029b      	lsls	r3, r3, #10
200058da:	508b      	str	r3, [r1, r2]
200058dc:	68fb      	ldr	r3, [r7, #12]
200058de:	0018      	movs	r0, r3
200058e0:	f005 f824 	bl	2000a92c <e15_is_critical_frame_period>
200058e4:	1e03      	subs	r3, r0, #0
200058e6:	d003      	beq.n	200058f0 <hw_endpoint_xfer_start+0x6c>
200058e8:	68fb      	ldr	r3, [r7, #12]
200058ea:	2201      	movs	r2, #1
200058ec:	771a      	strb	r2, [r3, #28]
200058ee:	e003      	b.n	200058f8 <hw_endpoint_xfer_start+0x74>
200058f0:	68fb      	ldr	r3, [r7, #12]
200058f2:	0018      	movs	r0, r3
200058f4:	f004 fe88 	bl	2000a608 <hw_endpoint_start_next_buffer>
200058f8:	68fb      	ldr	r3, [r7, #12]
200058fa:	617b      	str	r3, [r7, #20]
200058fc:	2301      	movs	r3, #1
200058fe:	425b      	negs	r3, r3
20005900:	613b      	str	r3, [r7, #16]
20005902:	46c0      	nop			@ (mov r8, r8)
20005904:	46c0      	nop			@ (mov r8, r8)
20005906:	46bd      	mov	sp, r7
20005908:	b008      	add	sp, #32
2000590a:	bd80      	pop	{r7, pc}
2000590c:	50112000 	.word	0x50112000

20005910 <critical_section_enter_blocking>:
20005910:	b580      	push	{r7, lr}
20005912:	b086      	sub	sp, #24
20005914:	af00      	add	r7, sp, #0
20005916:	6078      	str	r0, [r7, #4]
20005918:	687b      	ldr	r3, [r7, #4]
2000591a:	681b      	ldr	r3, [r3, #0]
2000591c:	617b      	str	r3, [r7, #20]
2000591e:	f3ef 8310 	mrs	r3, PRIMASK
20005922:	b672      	cpsid	i
20005924:	613b      	str	r3, [r7, #16]
20005926:	693b      	ldr	r3, [r7, #16]
20005928:	60fb      	str	r3, [r7, #12]
2000592a:	697b      	ldr	r3, [r7, #20]
2000592c:	60bb      	str	r3, [r7, #8]
2000592e:	46c0      	nop			@ (mov r8, r8)
20005930:	68bb      	ldr	r3, [r7, #8]
20005932:	681b      	ldr	r3, [r3, #0]
20005934:	425a      	negs	r2, r3
20005936:	4153      	adcs	r3, r2
20005938:	b2db      	uxtb	r3, r3
2000593a:	2b00      	cmp	r3, #0
2000593c:	d1f8      	bne.n	20005930 <critical_section_enter_blocking+0x20>
2000593e:	f3bf 8f5f 	dmb	sy
20005942:	46c0      	nop			@ (mov r8, r8)
20005944:	46c0      	nop			@ (mov r8, r8)
20005946:	46c0      	nop			@ (mov r8, r8)
20005948:	68fa      	ldr	r2, [r7, #12]
2000594a:	687b      	ldr	r3, [r7, #4]
2000594c:	605a      	str	r2, [r3, #4]
2000594e:	46c0      	nop			@ (mov r8, r8)
20005950:	46bd      	mov	sp, r7
20005952:	b006      	add	sp, #24
20005954:	bd80      	pop	{r7, pc}

20005956 <critical_section_exit>:
20005956:	b580      	push	{r7, lr}
20005958:	b086      	sub	sp, #24
2000595a:	af00      	add	r7, sp, #0
2000595c:	6078      	str	r0, [r7, #4]
2000595e:	687b      	ldr	r3, [r7, #4]
20005960:	681a      	ldr	r2, [r3, #0]
20005962:	687b      	ldr	r3, [r7, #4]
20005964:	685b      	ldr	r3, [r3, #4]
20005966:	617a      	str	r2, [r7, #20]
20005968:	613b      	str	r3, [r7, #16]
2000596a:	697b      	ldr	r3, [r7, #20]
2000596c:	60fb      	str	r3, [r7, #12]
2000596e:	f3bf 8f5f 	dmb	sy
20005972:	46c0      	nop			@ (mov r8, r8)
20005974:	46c0      	nop			@ (mov r8, r8)
20005976:	68fb      	ldr	r3, [r7, #12]
20005978:	2200      	movs	r2, #0
2000597a:	601a      	str	r2, [r3, #0]
2000597c:	46c0      	nop			@ (mov r8, r8)
2000597e:	693b      	ldr	r3, [r7, #16]
20005980:	60bb      	str	r3, [r7, #8]
20005982:	68bb      	ldr	r3, [r7, #8]
20005984:	f383 8810 	msr	PRIMASK, r3
20005988:	46c0      	nop			@ (mov r8, r8)
2000598a:	46c0      	nop			@ (mov r8, r8)
2000598c:	46c0      	nop			@ (mov r8, r8)
2000598e:	46bd      	mov	sp, r7
20005990:	b006      	add	sp, #24
20005992:	bd80      	pop	{r7, pc}

20005994 <get_driver>:
20005994:	b580      	push	{r7, lr}
20005996:	b082      	sub	sp, #8
20005998:	af00      	add	r7, sp, #0
2000599a:	0002      	movs	r2, r0
2000599c:	1dfb      	adds	r3, r7, #7
2000599e:	701a      	strb	r2, [r3, #0]
200059a0:	4b15      	ldr	r3, [pc, #84]	@ (200059f8 <get_driver+0x64>)
200059a2:	2b00      	cmp	r3, #0
200059a4:	d016      	beq.n	200059d4 <get_driver+0x40>
200059a6:	4b15      	ldr	r3, [pc, #84]	@ (200059fc <get_driver+0x68>)
200059a8:	781b      	ldrb	r3, [r3, #0]
200059aa:	1dfa      	adds	r2, r7, #7
200059ac:	7812      	ldrb	r2, [r2, #0]
200059ae:	429a      	cmp	r2, r3
200059b0:	d209      	bcs.n	200059c6 <get_driver+0x32>
200059b2:	4b13      	ldr	r3, [pc, #76]	@ (20005a00 <get_driver+0x6c>)
200059b4:	6819      	ldr	r1, [r3, #0]
200059b6:	1dfb      	adds	r3, r7, #7
200059b8:	781a      	ldrb	r2, [r3, #0]
200059ba:	0013      	movs	r3, r2
200059bc:	005b      	lsls	r3, r3, #1
200059be:	189b      	adds	r3, r3, r2
200059c0:	00db      	lsls	r3, r3, #3
200059c2:	18cb      	adds	r3, r1, r3
200059c4:	e014      	b.n	200059f0 <get_driver+0x5c>
200059c6:	4b0d      	ldr	r3, [pc, #52]	@ (200059fc <get_driver+0x68>)
200059c8:	781a      	ldrb	r2, [r3, #0]
200059ca:	1dfb      	adds	r3, r7, #7
200059cc:	1df9      	adds	r1, r7, #7
200059ce:	7809      	ldrb	r1, [r1, #0]
200059d0:	1a8a      	subs	r2, r1, r2
200059d2:	701a      	strb	r2, [r3, #0]
200059d4:	1dfb      	adds	r3, r7, #7
200059d6:	781b      	ldrb	r3, [r3, #0]
200059d8:	2b00      	cmp	r3, #0
200059da:	d108      	bne.n	200059ee <get_driver+0x5a>
200059dc:	1dfb      	adds	r3, r7, #7
200059de:	781a      	ldrb	r2, [r3, #0]
200059e0:	0013      	movs	r3, r2
200059e2:	005b      	lsls	r3, r3, #1
200059e4:	189b      	adds	r3, r3, r2
200059e6:	00db      	lsls	r3, r3, #3
200059e8:	4a06      	ldr	r2, [pc, #24]	@ (20005a04 <get_driver+0x70>)
200059ea:	189b      	adds	r3, r3, r2
200059ec:	e000      	b.n	200059f0 <get_driver+0x5c>
200059ee:	2300      	movs	r3, #0
200059f0:	0018      	movs	r0, r3
200059f2:	46bd      	mov	sp, r7
200059f4:	b002      	add	sp, #8
200059f6:	bd80      	pop	{r7, pc}
200059f8:	20004859 	.word	0x20004859
200059fc:	2000bf49 	.word	0x2000bf49
20005a00:	2000b2d0 	.word	0x2000b2d0
20005a04:	2000afa8 	.word	0x2000afa8

20005a08 <tud_mounted>:
20005a08:	b580      	push	{r7, lr}
20005a0a:	af00      	add	r7, sp, #0
20005a0c:	4b04      	ldr	r3, [pc, #16]	@ (20005a20 <tud_mounted+0x18>)
20005a0e:	785b      	ldrb	r3, [r3, #1]
20005a10:	b2db      	uxtb	r3, r3
20005a12:	1e5a      	subs	r2, r3, #1
20005a14:	4193      	sbcs	r3, r2
20005a16:	b2db      	uxtb	r3, r3
20005a18:	0018      	movs	r0, r3
20005a1a:	46bd      	mov	sp, r7
20005a1c:	bd80      	pop	{r7, pc}
20005a1e:	46c0      	nop			@ (mov r8, r8)
20005a20:	2000b5f8 	.word	0x2000b5f8

20005a24 <tud_suspended>:
20005a24:	b580      	push	{r7, lr}
20005a26:	af00      	add	r7, sp, #0
20005a28:	4b05      	ldr	r3, [pc, #20]	@ (20005a40 <tud_suspended+0x1c>)
20005a2a:	781b      	ldrb	r3, [r3, #0]
20005a2c:	075b      	lsls	r3, r3, #29
20005a2e:	0fdb      	lsrs	r3, r3, #31
20005a30:	b2db      	uxtb	r3, r3
20005a32:	1e5a      	subs	r2, r3, #1
20005a34:	4193      	sbcs	r3, r2
20005a36:	b2db      	uxtb	r3, r3
20005a38:	0018      	movs	r0, r3
20005a3a:	46bd      	mov	sp, r7
20005a3c:	bd80      	pop	{r7, pc}
20005a3e:	46c0      	nop			@ (mov r8, r8)
20005a40:	2000b5f8 	.word	0x2000b5f8

20005a44 <tud_inited>:
20005a44:	b580      	push	{r7, lr}
20005a46:	af00      	add	r7, sp, #0
20005a48:	4b04      	ldr	r3, [pc, #16]	@ (20005a5c <tud_inited+0x18>)
20005a4a:	781b      	ldrb	r3, [r3, #0]
20005a4c:	3bff      	subs	r3, #255	@ 0xff
20005a4e:	1e5a      	subs	r2, r3, #1
20005a50:	4193      	sbcs	r3, r2
20005a52:	b2db      	uxtb	r3, r3
20005a54:	0018      	movs	r0, r3
20005a56:	46bd      	mov	sp, r7
20005a58:	bd80      	pop	{r7, pc}
20005a5a:	46c0      	nop			@ (mov r8, r8)
20005a5c:	2000b180 	.word	0x2000b180

20005a60 <tud_init>:
20005a60:	b580      	push	{r7, lr}
20005a62:	b086      	sub	sp, #24
20005a64:	af00      	add	r7, sp, #0
20005a66:	0002      	movs	r2, r0
20005a68:	1dfb      	adds	r3, r7, #7
20005a6a:	701a      	strb	r2, [r3, #0]
20005a6c:	f7ff ffea 	bl	20005a44 <tud_inited>
20005a70:	1e03      	subs	r3, r0, #0
20005a72:	d001      	beq.n	20005a78 <tud_init+0x18>
20005a74:	2301      	movs	r3, #1
20005a76:	e063      	b.n	20005b40 <tud_init+0xe0>
20005a78:	4b33      	ldr	r3, [pc, #204]	@ (20005b48 <tud_init+0xe8>)
20005a7a:	2253      	movs	r2, #83	@ 0x53
20005a7c:	2100      	movs	r1, #0
20005a7e:	0018      	movs	r0, r3
20005a80:	f7fe fbf2 	bl	20004268 <__wrap_memset>
20005a84:	4b31      	ldr	r3, [pc, #196]	@ (20005b4c <tud_init+0xec>)
20005a86:	60fb      	str	r3, [r7, #12]
20005a88:	68fb      	ldr	r3, [r7, #12]
20005a8a:	0018      	movs	r0, r3
20005a8c:	f7fa fead 	bl	200007ea <mutex_init>
20005a90:	68fa      	ldr	r2, [r7, #12]
20005a92:	4b2f      	ldr	r3, [pc, #188]	@ (20005b50 <tud_init+0xf0>)
20005a94:	601a      	str	r2, [r3, #0]
20005a96:	4b2e      	ldr	r3, [pc, #184]	@ (20005b50 <tud_init+0xf0>)
20005a98:	681b      	ldr	r3, [r3, #0]
20005a9a:	2b00      	cmp	r3, #0
20005a9c:	d101      	bne.n	20005aa2 <tud_init+0x42>
20005a9e:	2300      	movs	r3, #0
20005aa0:	e04e      	b.n	20005b40 <tud_init+0xe0>
20005aa2:	4b2c      	ldr	r3, [pc, #176]	@ (20005b54 <tud_init+0xf4>)
20005aa4:	60bb      	str	r3, [r7, #8]
20005aa6:	68bb      	ldr	r3, [r7, #8]
20005aa8:	3314      	adds	r3, #20
20005aaa:	0018      	movs	r0, r3
20005aac:	f7fa fece 	bl	2000084c <critical_section_init>
20005ab0:	68bb      	ldr	r3, [r7, #8]
20005ab2:	0018      	movs	r0, r3
20005ab4:	f003 fafe 	bl	200090b4 <tu_fifo_clear>
20005ab8:	68ba      	ldr	r2, [r7, #8]
20005aba:	4b27      	ldr	r3, [pc, #156]	@ (20005b58 <tud_init+0xf8>)
20005abc:	601a      	str	r2, [r3, #0]
20005abe:	4b26      	ldr	r3, [pc, #152]	@ (20005b58 <tud_init+0xf8>)
20005ac0:	681b      	ldr	r3, [r3, #0]
20005ac2:	2b00      	cmp	r3, #0
20005ac4:	d101      	bne.n	20005aca <tud_init+0x6a>
20005ac6:	2300      	movs	r3, #0
20005ac8:	e03a      	b.n	20005b40 <tud_init+0xe0>
20005aca:	4b24      	ldr	r3, [pc, #144]	@ (20005b5c <tud_init+0xfc>)
20005acc:	2b00      	cmp	r3, #0
20005ace:	d006      	beq.n	20005ade <tud_init+0x7e>
20005ad0:	4b23      	ldr	r3, [pc, #140]	@ (20005b60 <tud_init+0x100>)
20005ad2:	0018      	movs	r0, r3
20005ad4:	f7fe fec0 	bl	20004858 <usbd_app_driver_get_cb>
20005ad8:	0002      	movs	r2, r0
20005ada:	4b22      	ldr	r3, [pc, #136]	@ (20005b64 <tud_init+0x104>)
20005adc:	601a      	str	r2, [r3, #0]
20005ade:	2317      	movs	r3, #23
20005ae0:	18fb      	adds	r3, r7, r3
20005ae2:	2200      	movs	r2, #0
20005ae4:	701a      	strb	r2, [r3, #0]
20005ae6:	e015      	b.n	20005b14 <tud_init+0xb4>
20005ae8:	2317      	movs	r3, #23
20005aea:	18fb      	adds	r3, r7, r3
20005aec:	781b      	ldrb	r3, [r3, #0]
20005aee:	0018      	movs	r0, r3
20005af0:	f7ff ff50 	bl	20005994 <get_driver>
20005af4:	0003      	movs	r3, r0
20005af6:	613b      	str	r3, [r7, #16]
20005af8:	693b      	ldr	r3, [r7, #16]
20005afa:	2b00      	cmp	r3, #0
20005afc:	d101      	bne.n	20005b02 <tud_init+0xa2>
20005afe:	2300      	movs	r3, #0
20005b00:	e01e      	b.n	20005b40 <tud_init+0xe0>
20005b02:	693b      	ldr	r3, [r7, #16]
20005b04:	681b      	ldr	r3, [r3, #0]
20005b06:	4798      	blx	r3
20005b08:	2117      	movs	r1, #23
20005b0a:	187b      	adds	r3, r7, r1
20005b0c:	781a      	ldrb	r2, [r3, #0]
20005b0e:	187b      	adds	r3, r7, r1
20005b10:	3201      	adds	r2, #1
20005b12:	701a      	strb	r2, [r3, #0]
20005b14:	4b12      	ldr	r3, [pc, #72]	@ (20005b60 <tud_init+0x100>)
20005b16:	781b      	ldrb	r3, [r3, #0]
20005b18:	2217      	movs	r2, #23
20005b1a:	18ba      	adds	r2, r7, r2
20005b1c:	7812      	ldrb	r2, [r2, #0]
20005b1e:	429a      	cmp	r2, r3
20005b20:	d9e2      	bls.n	20005ae8 <tud_init+0x88>
20005b22:	4b11      	ldr	r3, [pc, #68]	@ (20005b68 <tud_init+0x108>)
20005b24:	1dfa      	adds	r2, r7, #7
20005b26:	7812      	ldrb	r2, [r2, #0]
20005b28:	701a      	strb	r2, [r3, #0]
20005b2a:	1dfb      	adds	r3, r7, #7
20005b2c:	781b      	ldrb	r3, [r3, #0]
20005b2e:	0018      	movs	r0, r3
20005b30:	f7ff fcf6 	bl	20005520 <dcd_init>
20005b34:	1dfb      	adds	r3, r7, #7
20005b36:	781b      	ldrb	r3, [r3, #0]
20005b38:	0018      	movs	r0, r3
20005b3a:	f7ff fd31 	bl	200055a0 <dcd_int_enable>
20005b3e:	2301      	movs	r3, #1
20005b40:	0018      	movs	r0, r3
20005b42:	46bd      	mov	sp, r7
20005b44:	b006      	add	sp, #24
20005b46:	bd80      	pop	{r7, pc}
20005b48:	2000b5f8 	.word	0x2000b5f8
20005b4c:	2000b5b0 	.word	0x2000b5b0
20005b50:	2000b64c 	.word	0x2000b64c
20005b54:	2000b184 	.word	0x2000b184
20005b58:	2000b650 	.word	0x2000b650
20005b5c:	20004859 	.word	0x20004859
20005b60:	2000bf49 	.word	0x2000bf49
20005b64:	2000b2d0 	.word	0x2000b2d0
20005b68:	2000b180 	.word	0x2000b180

20005b6c <configuration_reset>:
20005b6c:	b590      	push	{r4, r7, lr}
20005b6e:	b085      	sub	sp, #20
20005b70:	af00      	add	r7, sp, #0
20005b72:	0002      	movs	r2, r0
20005b74:	1dfb      	adds	r3, r7, #7
20005b76:	701a      	strb	r2, [r3, #0]
20005b78:	230f      	movs	r3, #15
20005b7a:	18fb      	adds	r3, r7, r3
20005b7c:	2200      	movs	r2, #0
20005b7e:	701a      	strb	r2, [r3, #0]
20005b80:	e015      	b.n	20005bae <configuration_reset+0x42>
20005b82:	240f      	movs	r4, #15
20005b84:	193b      	adds	r3, r7, r4
20005b86:	781b      	ldrb	r3, [r3, #0]
20005b88:	0018      	movs	r0, r3
20005b8a:	f7ff ff03 	bl	20005994 <get_driver>
20005b8e:	0003      	movs	r3, r0
20005b90:	60bb      	str	r3, [r7, #8]
20005b92:	68bb      	ldr	r3, [r7, #8]
20005b94:	2b00      	cmp	r3, #0
20005b96:	d023      	beq.n	20005be0 <configuration_reset+0x74>
20005b98:	68bb      	ldr	r3, [r7, #8]
20005b9a:	685b      	ldr	r3, [r3, #4]
20005b9c:	1dfa      	adds	r2, r7, #7
20005b9e:	7812      	ldrb	r2, [r2, #0]
20005ba0:	0010      	movs	r0, r2
20005ba2:	4798      	blx	r3
20005ba4:	193b      	adds	r3, r7, r4
20005ba6:	781a      	ldrb	r2, [r3, #0]
20005ba8:	193b      	adds	r3, r7, r4
20005baa:	3201      	adds	r2, #1
20005bac:	701a      	strb	r2, [r3, #0]
20005bae:	4b0e      	ldr	r3, [pc, #56]	@ (20005be8 <configuration_reset+0x7c>)
20005bb0:	781b      	ldrb	r3, [r3, #0]
20005bb2:	220f      	movs	r2, #15
20005bb4:	18ba      	adds	r2, r7, r2
20005bb6:	7812      	ldrb	r2, [r2, #0]
20005bb8:	429a      	cmp	r2, r3
20005bba:	d9e2      	bls.n	20005b82 <configuration_reset+0x16>
20005bbc:	4b0b      	ldr	r3, [pc, #44]	@ (20005bec <configuration_reset+0x80>)
20005bbe:	2253      	movs	r2, #83	@ 0x53
20005bc0:	2100      	movs	r1, #0
20005bc2:	0018      	movs	r0, r3
20005bc4:	f7fe fb50 	bl	20004268 <__wrap_memset>
20005bc8:	4b09      	ldr	r3, [pc, #36]	@ (20005bf0 <configuration_reset+0x84>)
20005bca:	2210      	movs	r2, #16
20005bcc:	21ff      	movs	r1, #255	@ 0xff
20005bce:	0018      	movs	r0, r3
20005bd0:	f7fe fb4a 	bl	20004268 <__wrap_memset>
20005bd4:	4b07      	ldr	r3, [pc, #28]	@ (20005bf4 <configuration_reset+0x88>)
20005bd6:	2220      	movs	r2, #32
20005bd8:	21ff      	movs	r1, #255	@ 0xff
20005bda:	0018      	movs	r0, r3
20005bdc:	f7fe fb44 	bl	20004268 <__wrap_memset>
20005be0:	46bd      	mov	sp, r7
20005be2:	b005      	add	sp, #20
20005be4:	bd90      	pop	{r4, r7, pc}
20005be6:	46c0      	nop			@ (mov r8, r8)
20005be8:	2000bf49 	.word	0x2000bf49
20005bec:	2000b5f8 	.word	0x2000b5f8
20005bf0:	2000b5fb 	.word	0x2000b5fb
20005bf4:	2000b60b 	.word	0x2000b60b

20005bf8 <usbd_reset>:
20005bf8:	b580      	push	{r7, lr}
20005bfa:	b082      	sub	sp, #8
20005bfc:	af00      	add	r7, sp, #0
20005bfe:	0002      	movs	r2, r0
20005c00:	1dfb      	adds	r3, r7, #7
20005c02:	701a      	strb	r2, [r3, #0]
20005c04:	1dfb      	adds	r3, r7, #7
20005c06:	781b      	ldrb	r3, [r3, #0]
20005c08:	0018      	movs	r0, r3
20005c0a:	f7ff ffaf 	bl	20005b6c <configuration_reset>
20005c0e:	f001 f9c5 	bl	20006f9c <usbd_control_reset>
20005c12:	46c0      	nop			@ (mov r8, r8)
20005c14:	46bd      	mov	sp, r7
20005c16:	b002      	add	sp, #8
20005c18:	bd80      	pop	{r7, pc}
	...

20005c1c <tud_task_ext>:
20005c1c:	b5f0      	push	{r4, r5, r6, r7, lr}
20005c1e:	b08f      	sub	sp, #60	@ 0x3c
20005c20:	af00      	add	r7, sp, #0
20005c22:	6078      	str	r0, [r7, #4]
20005c24:	000a      	movs	r2, r1
20005c26:	1cfb      	adds	r3, r7, #3
20005c28:	701a      	strb	r2, [r3, #0]
20005c2a:	f002 f821 	bl	20007c70 <tusb_inited>
20005c2e:	0003      	movs	r3, r0
20005c30:	001a      	movs	r2, r3
20005c32:	2301      	movs	r3, #1
20005c34:	4053      	eors	r3, r2
20005c36:	b2db      	uxtb	r3, r3
20005c38:	2b00      	cmp	r3, #0
20005c3a:	d000      	beq.n	20005c3e <tud_task_ext+0x22>
20005c3c:	e131      	b.n	20005ea2 <tud_task_ext+0x286>
20005c3e:	4b9c      	ldr	r3, [pc, #624]	@ (20005eb0 <tud_task_ext+0x294>)
20005c40:	681b      	ldr	r3, [r3, #0]
20005c42:	62fb      	str	r3, [r7, #44]	@ 0x2c
20005c44:	2508      	movs	r5, #8
20005c46:	197b      	adds	r3, r7, r5
20005c48:	62bb      	str	r3, [r7, #40]	@ 0x28
20005c4a:	687b      	ldr	r3, [r7, #4]
20005c4c:	627b      	str	r3, [r7, #36]	@ 0x24
20005c4e:	6afb      	ldr	r3, [r7, #44]	@ 0x2c
20005c50:	623b      	str	r3, [r7, #32]
20005c52:	6a3b      	ldr	r3, [r7, #32]
20005c54:	3314      	adds	r3, #20
20005c56:	0018      	movs	r0, r3
20005c58:	f7ff fe5a 	bl	20005910 <critical_section_enter_blocking>
20005c5c:	46c0      	nop			@ (mov r8, r8)
20005c5e:	6afb      	ldr	r3, [r7, #44]	@ 0x2c
20005c60:	261f      	movs	r6, #31
20005c62:	19bc      	adds	r4, r7, r6
20005c64:	6aba      	ldr	r2, [r7, #40]	@ 0x28
20005c66:	0011      	movs	r1, r2
20005c68:	0018      	movs	r0, r3
20005c6a:	f003 f936 	bl	20008eda <tu_fifo_read>
20005c6e:	0003      	movs	r3, r0
20005c70:	7023      	strb	r3, [r4, #0]
20005c72:	6afb      	ldr	r3, [r7, #44]	@ 0x2c
20005c74:	61bb      	str	r3, [r7, #24]
20005c76:	69bb      	ldr	r3, [r7, #24]
20005c78:	3314      	adds	r3, #20
20005c7a:	0018      	movs	r0, r3
20005c7c:	f7ff fe6b 	bl	20005956 <critical_section_exit>
20005c80:	46c0      	nop			@ (mov r8, r8)
20005c82:	19bb      	adds	r3, r7, r6
20005c84:	781b      	ldrb	r3, [r3, #0]
20005c86:	2201      	movs	r2, #1
20005c88:	4053      	eors	r3, r2
20005c8a:	b2db      	uxtb	r3, r3
20005c8c:	2b00      	cmp	r3, #0
20005c8e:	d000      	beq.n	20005c92 <tud_task_ext+0x76>
20005c90:	e109      	b.n	20005ea6 <tud_task_ext+0x28a>
20005c92:	197b      	adds	r3, r7, r5
20005c94:	785b      	ldrb	r3, [r3, #1]
20005c96:	2b08      	cmp	r3, #8
20005c98:	d900      	bls.n	20005c9c <tud_task_ext+0x80>
20005c9a:	e0f6      	b.n	20005e8a <tud_task_ext+0x26e>
20005c9c:	009a      	lsls	r2, r3, #2
20005c9e:	4b85      	ldr	r3, [pc, #532]	@ (20005eb4 <tud_task_ext+0x298>)
20005ca0:	18d3      	adds	r3, r2, r3
20005ca2:	681b      	ldr	r3, [r3, #0]
20005ca4:	469f      	mov	pc, r3
20005ca6:	2408      	movs	r4, #8
20005ca8:	193b      	adds	r3, r7, r4
20005caa:	781b      	ldrb	r3, [r3, #0]
20005cac:	0018      	movs	r0, r3
20005cae:	f7ff ffa3 	bl	20005bf8 <usbd_reset>
20005cb2:	193b      	adds	r3, r7, r4
20005cb4:	791a      	ldrb	r2, [r3, #4]
20005cb6:	4b80      	ldr	r3, [pc, #512]	@ (20005eb8 <tud_task_ext+0x29c>)
20005cb8:	709a      	strb	r2, [r3, #2]
20005cba:	e0f1      	b.n	20005ea0 <tud_task_ext+0x284>
20005cbc:	2308      	movs	r3, #8
20005cbe:	18fb      	adds	r3, r7, r3
20005cc0:	781b      	ldrb	r3, [r3, #0]
20005cc2:	0018      	movs	r0, r3
20005cc4:	f7ff ff98 	bl	20005bf8 <usbd_reset>
20005cc8:	4b7c      	ldr	r3, [pc, #496]	@ (20005ebc <tud_task_ext+0x2a0>)
20005cca:	2b00      	cmp	r3, #0
20005ccc:	d100      	bne.n	20005cd0 <tud_task_ext+0xb4>
20005cce:	e0de      	b.n	20005e8e <tud_task_ext+0x272>
20005cd0:	e000      	b.n	20005cd4 <tud_task_ext+0xb8>
20005cd2:	bf00      	nop
20005cd4:	e0db      	b.n	20005e8e <tud_task_ext+0x272>
20005cd6:	4a78      	ldr	r2, [pc, #480]	@ (20005eb8 <tud_task_ext+0x29c>)
20005cd8:	7813      	ldrb	r3, [r2, #0]
20005cda:	2101      	movs	r1, #1
20005cdc:	430b      	orrs	r3, r1
20005cde:	7013      	strb	r3, [r2, #0]
20005ce0:	4a75      	ldr	r2, [pc, #468]	@ (20005eb8 <tud_task_ext+0x29c>)
20005ce2:	2133      	movs	r1, #51	@ 0x33
20005ce4:	5c53      	ldrb	r3, [r2, r1]
20005ce6:	2001      	movs	r0, #1
20005ce8:	4383      	bics	r3, r0
20005cea:	5453      	strb	r3, [r2, r1]
20005cec:	4a72      	ldr	r2, [pc, #456]	@ (20005eb8 <tud_task_ext+0x29c>)
20005cee:	2133      	movs	r1, #51	@ 0x33
20005cf0:	5c53      	ldrb	r3, [r2, r1]
20005cf2:	2004      	movs	r0, #4
20005cf4:	4383      	bics	r3, r0
20005cf6:	5453      	strb	r3, [r2, r1]
20005cf8:	4a6f      	ldr	r2, [pc, #444]	@ (20005eb8 <tud_task_ext+0x29c>)
20005cfa:	2134      	movs	r1, #52	@ 0x34
20005cfc:	5c53      	ldrb	r3, [r2, r1]
20005cfe:	2001      	movs	r0, #1
20005d00:	4383      	bics	r3, r0
20005d02:	5453      	strb	r3, [r2, r1]
20005d04:	4a6c      	ldr	r2, [pc, #432]	@ (20005eb8 <tud_task_ext+0x29c>)
20005d06:	2134      	movs	r1, #52	@ 0x34
20005d08:	5c53      	ldrb	r3, [r2, r1]
20005d0a:	2004      	movs	r0, #4
20005d0c:	4383      	bics	r3, r0
20005d0e:	5453      	strb	r3, [r2, r1]
20005d10:	2408      	movs	r4, #8
20005d12:	193b      	adds	r3, r7, r4
20005d14:	781a      	ldrb	r2, [r3, #0]
20005d16:	193b      	adds	r3, r7, r4
20005d18:	3304      	adds	r3, #4
20005d1a:	0019      	movs	r1, r3
20005d1c:	0010      	movs	r0, r2
20005d1e:	f000 f8ef 	bl	20005f00 <process_control_request>
20005d22:	0003      	movs	r3, r0
20005d24:	001a      	movs	r2, r3
20005d26:	2301      	movs	r3, #1
20005d28:	4053      	eors	r3, r2
20005d2a:	b2db      	uxtb	r3, r3
20005d2c:	2b00      	cmp	r3, #0
20005d2e:	d100      	bne.n	20005d32 <tud_task_ext+0x116>
20005d30:	e0af      	b.n	20005e92 <tud_task_ext+0x276>
20005d32:	193b      	adds	r3, r7, r4
20005d34:	781b      	ldrb	r3, [r3, #0]
20005d36:	2100      	movs	r1, #0
20005d38:	0018      	movs	r0, r3
20005d3a:	f7ff fcd3 	bl	200056e4 <dcd_edpt_stall>
20005d3e:	193b      	adds	r3, r7, r4
20005d40:	781b      	ldrb	r3, [r3, #0]
20005d42:	2180      	movs	r1, #128	@ 0x80
20005d44:	0018      	movs	r0, r3
20005d46:	f7ff fccd 	bl	200056e4 <dcd_edpt_stall>
20005d4a:	e0a2      	b.n	20005e92 <tud_task_ext+0x276>
20005d4c:	2637      	movs	r6, #55	@ 0x37
20005d4e:	19bb      	adds	r3, r7, r6
20005d50:	2508      	movs	r5, #8
20005d52:	197a      	adds	r2, r7, r5
20005d54:	7912      	ldrb	r2, [r2, #4]
20005d56:	701a      	strb	r2, [r3, #0]
20005d58:	2116      	movs	r1, #22
20005d5a:	187b      	adds	r3, r7, r1
20005d5c:	19ba      	adds	r2, r7, r6
20005d5e:	7812      	ldrb	r2, [r2, #0]
20005d60:	701a      	strb	r2, [r3, #0]
20005d62:	187b      	adds	r3, r7, r1
20005d64:	781b      	ldrb	r3, [r3, #0]
20005d66:	227f      	movs	r2, #127	@ 0x7f
20005d68:	4013      	ands	r3, r2
20005d6a:	b2da      	uxtb	r2, r3
20005d6c:	2136      	movs	r1, #54	@ 0x36
20005d6e:	187b      	adds	r3, r7, r1
20005d70:	701a      	strb	r2, [r3, #0]
20005d72:	2017      	movs	r0, #23
20005d74:	183b      	adds	r3, r7, r0
20005d76:	19ba      	adds	r2, r7, r6
20005d78:	7812      	ldrb	r2, [r2, #0]
20005d7a:	701a      	strb	r2, [r3, #0]
20005d7c:	183b      	adds	r3, r7, r0
20005d7e:	781b      	ldrb	r3, [r3, #0]
20005d80:	09db      	lsrs	r3, r3, #7
20005d82:	b2da      	uxtb	r2, r3
20005d84:	2035      	movs	r0, #53	@ 0x35
20005d86:	183b      	adds	r3, r7, r0
20005d88:	701a      	strb	r2, [r3, #0]
20005d8a:	000c      	movs	r4, r1
20005d8c:	193b      	adds	r3, r7, r4
20005d8e:	781a      	ldrb	r2, [r3, #0]
20005d90:	183b      	adds	r3, r7, r0
20005d92:	781b      	ldrb	r3, [r3, #0]
20005d94:	4948      	ldr	r1, [pc, #288]	@ (20005eb8 <tud_task_ext+0x29c>)
20005d96:	2030      	movs	r0, #48	@ 0x30
20005d98:	0052      	lsls	r2, r2, #1
20005d9a:	188a      	adds	r2, r1, r2
20005d9c:	18d3      	adds	r3, r2, r3
20005d9e:	181a      	adds	r2, r3, r0
20005da0:	78d3      	ldrb	r3, [r2, #3]
20005da2:	2101      	movs	r1, #1
20005da4:	438b      	bics	r3, r1
20005da6:	70d3      	strb	r3, [r2, #3]
20005da8:	193b      	adds	r3, r7, r4
20005daa:	781a      	ldrb	r2, [r3, #0]
20005dac:	2035      	movs	r0, #53	@ 0x35
20005dae:	183b      	adds	r3, r7, r0
20005db0:	781b      	ldrb	r3, [r3, #0]
20005db2:	4941      	ldr	r1, [pc, #260]	@ (20005eb8 <tud_task_ext+0x29c>)
20005db4:	2030      	movs	r0, #48	@ 0x30
20005db6:	0052      	lsls	r2, r2, #1
20005db8:	188a      	adds	r2, r1, r2
20005dba:	18d3      	adds	r3, r2, r3
20005dbc:	181a      	adds	r2, r3, r0
20005dbe:	78d3      	ldrb	r3, [r2, #3]
20005dc0:	2104      	movs	r1, #4
20005dc2:	438b      	bics	r3, r1
20005dc4:	70d3      	strb	r3, [r2, #3]
20005dc6:	193b      	adds	r3, r7, r4
20005dc8:	781b      	ldrb	r3, [r3, #0]
20005dca:	2b00      	cmp	r3, #0
20005dcc:	d10b      	bne.n	20005de6 <tud_task_ext+0x1ca>
20005dce:	197b      	adds	r3, r7, r5
20005dd0:	7818      	ldrb	r0, [r3, #0]
20005dd2:	197b      	adds	r3, r7, r5
20005dd4:	795a      	ldrb	r2, [r3, #5]
20005dd6:	197b      	adds	r3, r7, r5
20005dd8:	689c      	ldr	r4, [r3, #8]
20005dda:	19bb      	adds	r3, r7, r6
20005ddc:	7819      	ldrb	r1, [r3, #0]
20005dde:	0023      	movs	r3, r4
20005de0:	f001 f914 	bl	2000700c <usbd_control_xfer_cb>
20005de4:	e05c      	b.n	20005ea0 <tud_task_ext+0x284>
20005de6:	2336      	movs	r3, #54	@ 0x36
20005de8:	18fb      	adds	r3, r7, r3
20005dea:	781a      	ldrb	r2, [r3, #0]
20005dec:	2335      	movs	r3, #53	@ 0x35
20005dee:	18fb      	adds	r3, r7, r3
20005df0:	781b      	ldrb	r3, [r3, #0]
20005df2:	4931      	ldr	r1, [pc, #196]	@ (20005eb8 <tud_task_ext+0x29c>)
20005df4:	0052      	lsls	r2, r2, #1
20005df6:	188a      	adds	r2, r1, r2
20005df8:	18d3      	adds	r3, r2, r3
20005dfa:	3313      	adds	r3, #19
20005dfc:	781b      	ldrb	r3, [r3, #0]
20005dfe:	0018      	movs	r0, r3
20005e00:	f7ff fdc8 	bl	20005994 <get_driver>
20005e04:	0003      	movs	r3, r0
20005e06:	633b      	str	r3, [r7, #48]	@ 0x30
20005e08:	6b3b      	ldr	r3, [r7, #48]	@ 0x30
20005e0a:	2b00      	cmp	r3, #0
20005e0c:	d04c      	beq.n	20005ea8 <tud_task_ext+0x28c>
20005e0e:	6b3b      	ldr	r3, [r7, #48]	@ 0x30
20005e10:	691c      	ldr	r4, [r3, #16]
20005e12:	2108      	movs	r1, #8
20005e14:	187b      	adds	r3, r7, r1
20005e16:	7818      	ldrb	r0, [r3, #0]
20005e18:	187b      	adds	r3, r7, r1
20005e1a:	795a      	ldrb	r2, [r3, #5]
20005e1c:	187b      	adds	r3, r7, r1
20005e1e:	689d      	ldr	r5, [r3, #8]
20005e20:	2337      	movs	r3, #55	@ 0x37
20005e22:	18fb      	adds	r3, r7, r3
20005e24:	7819      	ldrb	r1, [r3, #0]
20005e26:	002b      	movs	r3, r5
20005e28:	47a0      	blx	r4
20005e2a:	e039      	b.n	20005ea0 <tud_task_ext+0x284>
20005e2c:	4b22      	ldr	r3, [pc, #136]	@ (20005eb8 <tud_task_ext+0x29c>)
20005e2e:	781b      	ldrb	r3, [r3, #0]
20005e30:	07db      	lsls	r3, r3, #31
20005e32:	0fdb      	lsrs	r3, r3, #31
20005e34:	b2db      	uxtb	r3, r3
20005e36:	2b00      	cmp	r3, #0
20005e38:	d02d      	beq.n	20005e96 <tud_task_ext+0x27a>
20005e3a:	4b21      	ldr	r3, [pc, #132]	@ (20005ec0 <tud_task_ext+0x2a4>)
20005e3c:	2b00      	cmp	r3, #0
20005e3e:	d02a      	beq.n	20005e96 <tud_task_ext+0x27a>
20005e40:	4b1d      	ldr	r3, [pc, #116]	@ (20005eb8 <tud_task_ext+0x29c>)
20005e42:	781b      	ldrb	r3, [r3, #0]
20005e44:	071b      	lsls	r3, r3, #28
20005e46:	0fdb      	lsrs	r3, r3, #31
20005e48:	b2db      	uxtb	r3, r3
20005e4a:	1e5a      	subs	r2, r3, #1
20005e4c:	4193      	sbcs	r3, r2
20005e4e:	b2db      	uxtb	r3, r3
20005e50:	0018      	movs	r0, r3
20005e52:	e000      	b.n	20005e56 <tud_task_ext+0x23a>
20005e54:	bf00      	nop
20005e56:	e01e      	b.n	20005e96 <tud_task_ext+0x27a>
20005e58:	4b17      	ldr	r3, [pc, #92]	@ (20005eb8 <tud_task_ext+0x29c>)
20005e5a:	781b      	ldrb	r3, [r3, #0]
20005e5c:	07db      	lsls	r3, r3, #31
20005e5e:	0fdb      	lsrs	r3, r3, #31
20005e60:	b2db      	uxtb	r3, r3
20005e62:	2b00      	cmp	r3, #0
20005e64:	d019      	beq.n	20005e9a <tud_task_ext+0x27e>
20005e66:	4b17      	ldr	r3, [pc, #92]	@ (20005ec4 <tud_task_ext+0x2a8>)
20005e68:	2b00      	cmp	r3, #0
20005e6a:	d016      	beq.n	20005e9a <tud_task_ext+0x27e>
20005e6c:	e000      	b.n	20005e70 <tud_task_ext+0x254>
20005e6e:	bf00      	nop
20005e70:	e013      	b.n	20005e9a <tud_task_ext+0x27e>
20005e72:	2108      	movs	r1, #8
20005e74:	187b      	adds	r3, r7, r1
20005e76:	685b      	ldr	r3, [r3, #4]
20005e78:	2b00      	cmp	r3, #0
20005e7a:	d010      	beq.n	20005e9e <tud_task_ext+0x282>
20005e7c:	187b      	adds	r3, r7, r1
20005e7e:	685a      	ldr	r2, [r3, #4]
20005e80:	187b      	adds	r3, r7, r1
20005e82:	689b      	ldr	r3, [r3, #8]
20005e84:	0018      	movs	r0, r3
20005e86:	4790      	blx	r2
20005e88:	e009      	b.n	20005e9e <tud_task_ext+0x282>
20005e8a:	46c0      	nop			@ (mov r8, r8)
20005e8c:	e6d7      	b.n	20005c3e <tud_task_ext+0x22>
20005e8e:	46c0      	nop			@ (mov r8, r8)
20005e90:	e6d5      	b.n	20005c3e <tud_task_ext+0x22>
20005e92:	46c0      	nop			@ (mov r8, r8)
20005e94:	e6d3      	b.n	20005c3e <tud_task_ext+0x22>
20005e96:	46c0      	nop			@ (mov r8, r8)
20005e98:	e6d1      	b.n	20005c3e <tud_task_ext+0x22>
20005e9a:	46c0      	nop			@ (mov r8, r8)
20005e9c:	e6cf      	b.n	20005c3e <tud_task_ext+0x22>
20005e9e:	46c0      	nop			@ (mov r8, r8)
20005ea0:	e6cd      	b.n	20005c3e <tud_task_ext+0x22>
20005ea2:	46c0      	nop			@ (mov r8, r8)
20005ea4:	e000      	b.n	20005ea8 <tud_task_ext+0x28c>
20005ea6:	46c0      	nop			@ (mov r8, r8)
20005ea8:	46bd      	mov	sp, r7
20005eaa:	b00f      	add	sp, #60	@ 0x3c
20005eac:	bdf0      	pop	{r4, r5, r6, r7, pc}
20005eae:	46c0      	nop			@ (mov r8, r8)
20005eb0:	2000b650 	.word	0x2000b650
20005eb4:	2000afc0 	.word	0x2000afc0
20005eb8:	2000b5f8 	.word	0x2000b5f8
	...

20005ec8 <invoke_class_control>:
20005ec8:	b590      	push	{r4, r7, lr}
20005eca:	b085      	sub	sp, #20
20005ecc:	af00      	add	r7, sp, #0
20005ece:	60b9      	str	r1, [r7, #8]
20005ed0:	607a      	str	r2, [r7, #4]
20005ed2:	240f      	movs	r4, #15
20005ed4:	193b      	adds	r3, r7, r4
20005ed6:	1c02      	adds	r2, r0, #0
20005ed8:	701a      	strb	r2, [r3, #0]
20005eda:	68bb      	ldr	r3, [r7, #8]
20005edc:	68db      	ldr	r3, [r3, #12]
20005ede:	0018      	movs	r0, r3
20005ee0:	f001 f86a 	bl	20006fb8 <usbd_control_set_complete_callback>
20005ee4:	68bb      	ldr	r3, [r7, #8]
20005ee6:	68db      	ldr	r3, [r3, #12]
20005ee8:	6879      	ldr	r1, [r7, #4]
20005eea:	193a      	adds	r2, r7, r4
20005eec:	7810      	ldrb	r0, [r2, #0]
20005eee:	000a      	movs	r2, r1
20005ef0:	2101      	movs	r1, #1
20005ef2:	4798      	blx	r3
20005ef4:	0003      	movs	r3, r0
20005ef6:	0018      	movs	r0, r3
20005ef8:	46bd      	mov	sp, r7
20005efa:	b005      	add	sp, #20
20005efc:	bd90      	pop	{r4, r7, pc}
	...

20005f00 <process_control_request>:
20005f00:	b590      	push	{r4, r7, lr}
20005f02:	b08d      	sub	sp, #52	@ 0x34
20005f04:	af00      	add	r7, sp, #0
20005f06:	0002      	movs	r2, r0
20005f08:	6039      	str	r1, [r7, #0]
20005f0a:	1dfb      	adds	r3, r7, #7
20005f0c:	701a      	strb	r2, [r3, #0]
20005f0e:	2000      	movs	r0, #0
20005f10:	f001 f852 	bl	20006fb8 <usbd_control_set_complete_callback>
20005f14:	683b      	ldr	r3, [r7, #0]
20005f16:	781b      	ldrb	r3, [r3, #0]
20005f18:	2260      	movs	r2, #96	@ 0x60
20005f1a:	4013      	ands	r3, r2
20005f1c:	b2db      	uxtb	r3, r3
20005f1e:	2b60      	cmp	r3, #96	@ 0x60
20005f20:	d101      	bne.n	20005f26 <process_control_request+0x26>
20005f22:	2300      	movs	r3, #0
20005f24:	e25e      	b.n	200063e4 <process_control_request+0x4e4>
20005f26:	683b      	ldr	r3, [r7, #0]
20005f28:	781b      	ldrb	r3, [r3, #0]
20005f2a:	2260      	movs	r2, #96	@ 0x60
20005f2c:	4013      	ands	r3, r2
20005f2e:	b2db      	uxtb	r3, r3
20005f30:	2b40      	cmp	r3, #64	@ 0x40
20005f32:	d111      	bne.n	20005f58 <process_control_request+0x58>
20005f34:	4bcc      	ldr	r3, [pc, #816]	@ (20006268 <process_control_request+0x368>)
20005f36:	2b00      	cmp	r3, #0
20005f38:	d101      	bne.n	20005f3e <process_control_request+0x3e>
20005f3a:	2300      	movs	r3, #0
20005f3c:	e252      	b.n	200063e4 <process_control_request+0x4e4>
20005f3e:	4bca      	ldr	r3, [pc, #808]	@ (20006268 <process_control_request+0x368>)
20005f40:	0018      	movs	r0, r3
20005f42:	f001 f839 	bl	20006fb8 <usbd_control_set_complete_callback>
20005f46:	683a      	ldr	r2, [r7, #0]
20005f48:	1dfb      	adds	r3, r7, #7
20005f4a:	781b      	ldrb	r3, [r3, #0]
20005f4c:	2101      	movs	r1, #1
20005f4e:	0018      	movs	r0, r3
20005f50:	e000      	b.n	20005f54 <process_control_request+0x54>
20005f52:	bf00      	nop
20005f54:	0003      	movs	r3, r0
20005f56:	e245      	b.n	200063e4 <process_control_request+0x4e4>
20005f58:	683b      	ldr	r3, [r7, #0]
20005f5a:	781b      	ldrb	r3, [r3, #0]
20005f5c:	06db      	lsls	r3, r3, #27
20005f5e:	0edb      	lsrs	r3, r3, #27
20005f60:	b2db      	uxtb	r3, r3
20005f62:	2b02      	cmp	r3, #2
20005f64:	d100      	bne.n	20005f68 <process_control_request+0x68>
20005f66:	e185      	b.n	20006274 <process_control_request+0x374>
20005f68:	dd00      	ble.n	20005f6c <process_control_request+0x6c>
20005f6a:	e237      	b.n	200063dc <process_control_request+0x4dc>
20005f6c:	2b00      	cmp	r3, #0
20005f6e:	d003      	beq.n	20005f78 <process_control_request+0x78>
20005f70:	2b01      	cmp	r3, #1
20005f72:	d100      	bne.n	20005f76 <process_control_request+0x76>
20005f74:	e117      	b.n	200061a6 <process_control_request+0x2a6>
20005f76:	e231      	b.n	200063dc <process_control_request+0x4dc>
20005f78:	683b      	ldr	r3, [r7, #0]
20005f7a:	781b      	ldrb	r3, [r3, #0]
20005f7c:	2260      	movs	r2, #96	@ 0x60
20005f7e:	4013      	ands	r3, r2
20005f80:	b2db      	uxtb	r3, r3
20005f82:	2b20      	cmp	r3, #32
20005f84:	d12d      	bne.n	20005fe2 <process_control_request+0xe2>
20005f86:	683b      	ldr	r3, [r7, #0]
20005f88:	791a      	ldrb	r2, [r3, #4]
20005f8a:	795b      	ldrb	r3, [r3, #5]
20005f8c:	021b      	lsls	r3, r3, #8
20005f8e:	4313      	orrs	r3, r2
20005f90:	b29a      	uxth	r2, r3
20005f92:	2116      	movs	r1, #22
20005f94:	187b      	adds	r3, r7, r1
20005f96:	801a      	strh	r2, [r3, #0]
20005f98:	187b      	adds	r3, r7, r1
20005f9a:	881b      	ldrh	r3, [r3, #0]
20005f9c:	b2da      	uxtb	r2, r3
20005f9e:	211d      	movs	r1, #29
20005fa0:	187b      	adds	r3, r7, r1
20005fa2:	701a      	strb	r2, [r3, #0]
20005fa4:	187b      	adds	r3, r7, r1
20005fa6:	781b      	ldrb	r3, [r3, #0]
20005fa8:	2b0f      	cmp	r3, #15
20005faa:	d901      	bls.n	20005fb0 <process_control_request+0xb0>
20005fac:	2300      	movs	r3, #0
20005fae:	e219      	b.n	200063e4 <process_control_request+0x4e4>
20005fb0:	231d      	movs	r3, #29
20005fb2:	18fb      	adds	r3, r7, r3
20005fb4:	781b      	ldrb	r3, [r3, #0]
20005fb6:	4aad      	ldr	r2, [pc, #692]	@ (2000626c <process_control_request+0x36c>)
20005fb8:	18d3      	adds	r3, r2, r3
20005fba:	78db      	ldrb	r3, [r3, #3]
20005fbc:	0018      	movs	r0, r3
20005fbe:	f7ff fce9 	bl	20005994 <get_driver>
20005fc2:	0003      	movs	r3, r0
20005fc4:	61bb      	str	r3, [r7, #24]
20005fc6:	69bb      	ldr	r3, [r7, #24]
20005fc8:	2b00      	cmp	r3, #0
20005fca:	d101      	bne.n	20005fd0 <process_control_request+0xd0>
20005fcc:	2300      	movs	r3, #0
20005fce:	e209      	b.n	200063e4 <process_control_request+0x4e4>
20005fd0:	683a      	ldr	r2, [r7, #0]
20005fd2:	69b9      	ldr	r1, [r7, #24]
20005fd4:	1dfb      	adds	r3, r7, #7
20005fd6:	781b      	ldrb	r3, [r3, #0]
20005fd8:	0018      	movs	r0, r3
20005fda:	f7ff ff75 	bl	20005ec8 <invoke_class_control>
20005fde:	0003      	movs	r3, r0
20005fe0:	e200      	b.n	200063e4 <process_control_request+0x4e4>
20005fe2:	683b      	ldr	r3, [r7, #0]
20005fe4:	781b      	ldrb	r3, [r3, #0]
20005fe6:	2260      	movs	r2, #96	@ 0x60
20005fe8:	4013      	ands	r3, r2
20005fea:	b2db      	uxtb	r3, r3
20005fec:	2b00      	cmp	r3, #0
20005fee:	d001      	beq.n	20005ff4 <process_control_request+0xf4>
20005ff0:	2300      	movs	r3, #0
20005ff2:	e1f7      	b.n	200063e4 <process_control_request+0x4e4>
20005ff4:	683b      	ldr	r3, [r7, #0]
20005ff6:	785b      	ldrb	r3, [r3, #1]
20005ff8:	2b09      	cmp	r3, #9
20005ffa:	d900      	bls.n	20005ffe <process_control_request+0xfe>
20005ffc:	e0cf      	b.n	2000619e <process_control_request+0x29e>
20005ffe:	009a      	lsls	r2, r3, #2
20006000:	4b9b      	ldr	r3, [pc, #620]	@ (20006270 <process_control_request+0x370>)
20006002:	18d3      	adds	r3, r2, r3
20006004:	681b      	ldr	r3, [r3, #0]
20006006:	469f      	mov	pc, r3
20006008:	683b      	ldr	r3, [r7, #0]
2000600a:	0018      	movs	r0, r3
2000600c:	f000 ffe2 	bl	20006fd4 <usbd_control_set_request>
20006010:	683b      	ldr	r3, [r7, #0]
20006012:	789a      	ldrb	r2, [r3, #2]
20006014:	78db      	ldrb	r3, [r3, #3]
20006016:	021b      	lsls	r3, r3, #8
20006018:	4313      	orrs	r3, r2
2000601a:	b29b      	uxth	r3, r3
2000601c:	b2da      	uxtb	r2, r3
2000601e:	1dfb      	adds	r3, r7, #7
20006020:	781b      	ldrb	r3, [r3, #0]
20006022:	0011      	movs	r1, r2
20006024:	0018      	movs	r0, r3
20006026:	f7ff fac9 	bl	200055bc <dcd_set_address>
2000602a:	4a90      	ldr	r2, [pc, #576]	@ (2000626c <process_control_request+0x36c>)
2000602c:	7813      	ldrb	r3, [r2, #0]
2000602e:	2102      	movs	r1, #2
20006030:	430b      	orrs	r3, r1
20006032:	7013      	strb	r3, [r2, #0]
20006034:	e0b6      	b.n	200061a4 <process_control_request+0x2a4>
20006036:	4b8d      	ldr	r3, [pc, #564]	@ (2000626c <process_control_request+0x36c>)
20006038:	785b      	ldrb	r3, [r3, #1]
2000603a:	b2da      	uxtb	r2, r3
2000603c:	210f      	movs	r1, #15
2000603e:	187b      	adds	r3, r7, r1
20006040:	701a      	strb	r2, [r3, #0]
20006042:	187a      	adds	r2, r7, r1
20006044:	6839      	ldr	r1, [r7, #0]
20006046:	1dfb      	adds	r3, r7, #7
20006048:	7818      	ldrb	r0, [r3, #0]
2000604a:	2301      	movs	r3, #1
2000604c:	f000 ff36 	bl	20006ebc <tud_control_xfer>
20006050:	e0a8      	b.n	200061a4 <process_control_request+0x2a4>
20006052:	683b      	ldr	r3, [r7, #0]
20006054:	789a      	ldrb	r2, [r3, #2]
20006056:	78db      	ldrb	r3, [r3, #3]
20006058:	021b      	lsls	r3, r3, #8
2000605a:	4313      	orrs	r3, r2
2000605c:	b29a      	uxth	r2, r3
2000605e:	211f      	movs	r1, #31
20006060:	187b      	adds	r3, r7, r1
20006062:	701a      	strb	r2, [r3, #0]
20006064:	4b81      	ldr	r3, [pc, #516]	@ (2000626c <process_control_request+0x36c>)
20006066:	785b      	ldrb	r3, [r3, #1]
20006068:	b2db      	uxtb	r3, r3
2000606a:	187a      	adds	r2, r7, r1
2000606c:	7812      	ldrb	r2, [r2, #0]
2000606e:	429a      	cmp	r2, r3
20006070:	d02d      	beq.n	200060ce <process_control_request+0x1ce>
20006072:	4b7e      	ldr	r3, [pc, #504]	@ (2000626c <process_control_request+0x36c>)
20006074:	785b      	ldrb	r3, [r3, #1]
20006076:	b2db      	uxtb	r3, r3
20006078:	2b00      	cmp	r3, #0
2000607a:	d012      	beq.n	200060a2 <process_control_request+0x1a2>
2000607c:	1dfb      	adds	r3, r7, #7
2000607e:	781b      	ldrb	r3, [r3, #0]
20006080:	0018      	movs	r0, r3
20006082:	f7ff fb06 	bl	20005692 <dcd_edpt_close_all>
20006086:	241e      	movs	r4, #30
20006088:	193b      	adds	r3, r7, r4
2000608a:	4a78      	ldr	r2, [pc, #480]	@ (2000626c <process_control_request+0x36c>)
2000608c:	7892      	ldrb	r2, [r2, #2]
2000608e:	701a      	strb	r2, [r3, #0]
20006090:	1dfb      	adds	r3, r7, #7
20006092:	781b      	ldrb	r3, [r3, #0]
20006094:	0018      	movs	r0, r3
20006096:	f7ff fd69 	bl	20005b6c <configuration_reset>
2000609a:	4b74      	ldr	r3, [pc, #464]	@ (2000626c <process_control_request+0x36c>)
2000609c:	193a      	adds	r2, r7, r4
2000609e:	7812      	ldrb	r2, [r2, #0]
200060a0:	709a      	strb	r2, [r3, #2]
200060a2:	221f      	movs	r2, #31
200060a4:	18bb      	adds	r3, r7, r2
200060a6:	781b      	ldrb	r3, [r3, #0]
200060a8:	2b00      	cmp	r3, #0
200060aa:	d010      	beq.n	200060ce <process_control_request+0x1ce>
200060ac:	18bb      	adds	r3, r7, r2
200060ae:	781a      	ldrb	r2, [r3, #0]
200060b0:	1dfb      	adds	r3, r7, #7
200060b2:	781b      	ldrb	r3, [r3, #0]
200060b4:	0011      	movs	r1, r2
200060b6:	0018      	movs	r0, r3
200060b8:	f000 f99a 	bl	200063f0 <process_set_config>
200060bc:	0003      	movs	r3, r0
200060be:	001a      	movs	r2, r3
200060c0:	2301      	movs	r3, #1
200060c2:	4053      	eors	r3, r2
200060c4:	b2db      	uxtb	r3, r3
200060c6:	2b00      	cmp	r3, #0
200060c8:	d001      	beq.n	200060ce <process_control_request+0x1ce>
200060ca:	2300      	movs	r3, #0
200060cc:	e18a      	b.n	200063e4 <process_control_request+0x4e4>
200060ce:	4b67      	ldr	r3, [pc, #412]	@ (2000626c <process_control_request+0x36c>)
200060d0:	221f      	movs	r2, #31
200060d2:	18ba      	adds	r2, r7, r2
200060d4:	7812      	ldrb	r2, [r2, #0]
200060d6:	705a      	strb	r2, [r3, #1]
200060d8:	683a      	ldr	r2, [r7, #0]
200060da:	1dfb      	adds	r3, r7, #7
200060dc:	781b      	ldrb	r3, [r3, #0]
200060de:	0011      	movs	r1, r2
200060e0:	0018      	movs	r0, r3
200060e2:	f000 fe6d 	bl	20006dc0 <tud_control_status>
200060e6:	e05d      	b.n	200061a4 <process_control_request+0x2a4>
200060e8:	683a      	ldr	r2, [r7, #0]
200060ea:	1dfb      	adds	r3, r7, #7
200060ec:	781b      	ldrb	r3, [r3, #0]
200060ee:	0011      	movs	r1, r2
200060f0:	0018      	movs	r0, r3
200060f2:	f000 fa9d 	bl	20006630 <process_get_descriptor>
200060f6:	0003      	movs	r3, r0
200060f8:	001a      	movs	r2, r3
200060fa:	2301      	movs	r3, #1
200060fc:	4053      	eors	r3, r2
200060fe:	b2db      	uxtb	r3, r3
20006100:	2b00      	cmp	r3, #0
20006102:	d04e      	beq.n	200061a2 <process_control_request+0x2a2>
20006104:	2300      	movs	r3, #0
20006106:	e16d      	b.n	200063e4 <process_control_request+0x4e4>
20006108:	683b      	ldr	r3, [r7, #0]
2000610a:	789a      	ldrb	r2, [r3, #2]
2000610c:	78db      	ldrb	r3, [r3, #3]
2000610e:	021b      	lsls	r3, r3, #8
20006110:	4313      	orrs	r3, r2
20006112:	b29b      	uxth	r3, r3
20006114:	2b01      	cmp	r3, #1
20006116:	d001      	beq.n	2000611c <process_control_request+0x21c>
20006118:	2300      	movs	r3, #0
2000611a:	e163      	b.n	200063e4 <process_control_request+0x4e4>
2000611c:	4b53      	ldr	r3, [pc, #332]	@ (2000626c <process_control_request+0x36c>)
2000611e:	781a      	ldrb	r2, [r3, #0]
20006120:	2108      	movs	r1, #8
20006122:	430a      	orrs	r2, r1
20006124:	701a      	strb	r2, [r3, #0]
20006126:	683a      	ldr	r2, [r7, #0]
20006128:	1dfb      	adds	r3, r7, #7
2000612a:	781b      	ldrb	r3, [r3, #0]
2000612c:	0011      	movs	r1, r2
2000612e:	0018      	movs	r0, r3
20006130:	f000 fe46 	bl	20006dc0 <tud_control_status>
20006134:	e036      	b.n	200061a4 <process_control_request+0x2a4>
20006136:	683b      	ldr	r3, [r7, #0]
20006138:	789a      	ldrb	r2, [r3, #2]
2000613a:	78db      	ldrb	r3, [r3, #3]
2000613c:	021b      	lsls	r3, r3, #8
2000613e:	4313      	orrs	r3, r2
20006140:	b29b      	uxth	r3, r3
20006142:	2b01      	cmp	r3, #1
20006144:	d001      	beq.n	2000614a <process_control_request+0x24a>
20006146:	2300      	movs	r3, #0
20006148:	e14c      	b.n	200063e4 <process_control_request+0x4e4>
2000614a:	4b48      	ldr	r3, [pc, #288]	@ (2000626c <process_control_request+0x36c>)
2000614c:	781a      	ldrb	r2, [r3, #0]
2000614e:	2108      	movs	r1, #8
20006150:	438a      	bics	r2, r1
20006152:	701a      	strb	r2, [r3, #0]
20006154:	683a      	ldr	r2, [r7, #0]
20006156:	1dfb      	adds	r3, r7, #7
20006158:	781b      	ldrb	r3, [r3, #0]
2000615a:	0011      	movs	r1, r2
2000615c:	0018      	movs	r0, r3
2000615e:	f000 fe2f 	bl	20006dc0 <tud_control_status>
20006162:	e01f      	b.n	200061a4 <process_control_request+0x2a4>
20006164:	4b41      	ldr	r3, [pc, #260]	@ (2000626c <process_control_request+0x36c>)
20006166:	781b      	ldrb	r3, [r3, #0]
20006168:	095b      	lsrs	r3, r3, #5
2000616a:	b2db      	uxtb	r3, r3
2000616c:	001a      	movs	r2, r3
2000616e:	2301      	movs	r3, #1
20006170:	4013      	ands	r3, r2
20006172:	b29a      	uxth	r2, r3
20006174:	4b3d      	ldr	r3, [pc, #244]	@ (2000626c <process_control_request+0x36c>)
20006176:	781b      	ldrb	r3, [r3, #0]
20006178:	089b      	lsrs	r3, r3, #2
2000617a:	b2db      	uxtb	r3, r3
2000617c:	0019      	movs	r1, r3
2000617e:	2302      	movs	r3, #2
20006180:	400b      	ands	r3, r1
20006182:	b29b      	uxth	r3, r3
20006184:	4313      	orrs	r3, r2
20006186:	b29a      	uxth	r2, r3
20006188:	210c      	movs	r1, #12
2000618a:	187b      	adds	r3, r7, r1
2000618c:	801a      	strh	r2, [r3, #0]
2000618e:	187a      	adds	r2, r7, r1
20006190:	6839      	ldr	r1, [r7, #0]
20006192:	1dfb      	adds	r3, r7, #7
20006194:	7818      	ldrb	r0, [r3, #0]
20006196:	2302      	movs	r3, #2
20006198:	f000 fe90 	bl	20006ebc <tud_control_xfer>
2000619c:	e002      	b.n	200061a4 <process_control_request+0x2a4>
2000619e:	2300      	movs	r3, #0
200061a0:	e120      	b.n	200063e4 <process_control_request+0x4e4>
200061a2:	46c0      	nop			@ (mov r8, r8)
200061a4:	e11d      	b.n	200063e2 <process_control_request+0x4e2>
200061a6:	683b      	ldr	r3, [r7, #0]
200061a8:	791a      	ldrb	r2, [r3, #4]
200061aa:	795b      	ldrb	r3, [r3, #5]
200061ac:	021b      	lsls	r3, r3, #8
200061ae:	4313      	orrs	r3, r2
200061b0:	b29a      	uxth	r2, r3
200061b2:	2114      	movs	r1, #20
200061b4:	187b      	adds	r3, r7, r1
200061b6:	801a      	strh	r2, [r3, #0]
200061b8:	187b      	adds	r3, r7, r1
200061ba:	881b      	ldrh	r3, [r3, #0]
200061bc:	b2da      	uxtb	r2, r3
200061be:	2127      	movs	r1, #39	@ 0x27
200061c0:	187b      	adds	r3, r7, r1
200061c2:	701a      	strb	r2, [r3, #0]
200061c4:	187b      	adds	r3, r7, r1
200061c6:	781b      	ldrb	r3, [r3, #0]
200061c8:	2b0f      	cmp	r3, #15
200061ca:	d901      	bls.n	200061d0 <process_control_request+0x2d0>
200061cc:	2300      	movs	r3, #0
200061ce:	e109      	b.n	200063e4 <process_control_request+0x4e4>
200061d0:	2327      	movs	r3, #39	@ 0x27
200061d2:	18fb      	adds	r3, r7, r3
200061d4:	781b      	ldrb	r3, [r3, #0]
200061d6:	4a25      	ldr	r2, [pc, #148]	@ (2000626c <process_control_request+0x36c>)
200061d8:	18d3      	adds	r3, r2, r3
200061da:	78db      	ldrb	r3, [r3, #3]
200061dc:	0018      	movs	r0, r3
200061de:	f7ff fbd9 	bl	20005994 <get_driver>
200061e2:	0003      	movs	r3, r0
200061e4:	623b      	str	r3, [r7, #32]
200061e6:	6a3b      	ldr	r3, [r7, #32]
200061e8:	2b00      	cmp	r3, #0
200061ea:	d101      	bne.n	200061f0 <process_control_request+0x2f0>
200061ec:	2300      	movs	r3, #0
200061ee:	e0f9      	b.n	200063e4 <process_control_request+0x4e4>
200061f0:	683a      	ldr	r2, [r7, #0]
200061f2:	6a39      	ldr	r1, [r7, #32]
200061f4:	1dfb      	adds	r3, r7, #7
200061f6:	781b      	ldrb	r3, [r3, #0]
200061f8:	0018      	movs	r0, r3
200061fa:	f7ff fe65 	bl	20005ec8 <invoke_class_control>
200061fe:	0003      	movs	r3, r0
20006200:	001a      	movs	r2, r3
20006202:	2301      	movs	r3, #1
20006204:	4053      	eors	r3, r2
20006206:	b2db      	uxtb	r3, r3
20006208:	2b00      	cmp	r3, #0
2000620a:	d100      	bne.n	2000620e <process_control_request+0x30e>
2000620c:	e0e8      	b.n	200063e0 <process_control_request+0x4e0>
2000620e:	683b      	ldr	r3, [r7, #0]
20006210:	781b      	ldrb	r3, [r3, #0]
20006212:	2260      	movs	r2, #96	@ 0x60
20006214:	4013      	ands	r3, r2
20006216:	b2db      	uxtb	r3, r3
20006218:	2b00      	cmp	r3, #0
2000621a:	d001      	beq.n	20006220 <process_control_request+0x320>
2000621c:	2300      	movs	r3, #0
2000621e:	e0e1      	b.n	200063e4 <process_control_request+0x4e4>
20006220:	683b      	ldr	r3, [r7, #0]
20006222:	785b      	ldrb	r3, [r3, #1]
20006224:	3b0a      	subs	r3, #10
20006226:	2b01      	cmp	r3, #1
20006228:	d81a      	bhi.n	20006260 <process_control_request+0x360>
2000622a:	2000      	movs	r0, #0
2000622c:	f000 fec4 	bl	20006fb8 <usbd_control_set_complete_callback>
20006230:	683b      	ldr	r3, [r7, #0]
20006232:	785b      	ldrb	r3, [r3, #1]
20006234:	2b0a      	cmp	r3, #10
20006236:	d10b      	bne.n	20006250 <process_control_request+0x350>
20006238:	210b      	movs	r1, #11
2000623a:	187b      	adds	r3, r7, r1
2000623c:	2200      	movs	r2, #0
2000623e:	701a      	strb	r2, [r3, #0]
20006240:	187a      	adds	r2, r7, r1
20006242:	6839      	ldr	r1, [r7, #0]
20006244:	1dfb      	adds	r3, r7, #7
20006246:	7818      	ldrb	r0, [r3, #0]
20006248:	2301      	movs	r3, #1
2000624a:	f000 fe37 	bl	20006ebc <tud_control_xfer>
2000624e:	e009      	b.n	20006264 <process_control_request+0x364>
20006250:	683a      	ldr	r2, [r7, #0]
20006252:	1dfb      	adds	r3, r7, #7
20006254:	781b      	ldrb	r3, [r3, #0]
20006256:	0011      	movs	r1, r2
20006258:	0018      	movs	r0, r3
2000625a:	f000 fdb1 	bl	20006dc0 <tud_control_status>
2000625e:	e001      	b.n	20006264 <process_control_request+0x364>
20006260:	2300      	movs	r3, #0
20006262:	e0bf      	b.n	200063e4 <process_control_request+0x4e4>
20006264:	e0bc      	b.n	200063e0 <process_control_request+0x4e0>
20006266:	46c0      	nop			@ (mov r8, r8)
20006268:	00000000 	.word	0x00000000
2000626c:	2000b5f8 	.word	0x2000b5f8
20006270:	2000afe4 	.word	0x2000afe4
20006274:	683b      	ldr	r3, [r7, #0]
20006276:	791a      	ldrb	r2, [r3, #4]
20006278:	795b      	ldrb	r3, [r3, #5]
2000627a:	021b      	lsls	r3, r3, #8
2000627c:	4313      	orrs	r3, r2
2000627e:	b29a      	uxth	r2, r3
20006280:	2110      	movs	r1, #16
20006282:	187b      	adds	r3, r7, r1
20006284:	801a      	strh	r2, [r3, #0]
20006286:	187b      	adds	r3, r7, r1
20006288:	881b      	ldrh	r3, [r3, #0]
2000628a:	b2da      	uxtb	r2, r3
2000628c:	212f      	movs	r1, #47	@ 0x2f
2000628e:	187b      	adds	r3, r7, r1
20006290:	701a      	strb	r2, [r3, #0]
20006292:	2012      	movs	r0, #18
20006294:	183b      	adds	r3, r7, r0
20006296:	187a      	adds	r2, r7, r1
20006298:	7812      	ldrb	r2, [r2, #0]
2000629a:	701a      	strb	r2, [r3, #0]
2000629c:	183b      	adds	r3, r7, r0
2000629e:	781b      	ldrb	r3, [r3, #0]
200062a0:	227f      	movs	r2, #127	@ 0x7f
200062a2:	4013      	ands	r3, r2
200062a4:	b2da      	uxtb	r2, r3
200062a6:	202e      	movs	r0, #46	@ 0x2e
200062a8:	183b      	adds	r3, r7, r0
200062aa:	701a      	strb	r2, [r3, #0]
200062ac:	2413      	movs	r4, #19
200062ae:	193b      	adds	r3, r7, r4
200062b0:	187a      	adds	r2, r7, r1
200062b2:	7812      	ldrb	r2, [r2, #0]
200062b4:	701a      	strb	r2, [r3, #0]
200062b6:	193b      	adds	r3, r7, r4
200062b8:	781b      	ldrb	r3, [r3, #0]
200062ba:	09db      	lsrs	r3, r3, #7
200062bc:	b2da      	uxtb	r2, r3
200062be:	232d      	movs	r3, #45	@ 0x2d
200062c0:	18fb      	adds	r3, r7, r3
200062c2:	701a      	strb	r2, [r3, #0]
200062c4:	183b      	adds	r3, r7, r0
200062c6:	781b      	ldrb	r3, [r3, #0]
200062c8:	2b0f      	cmp	r3, #15
200062ca:	d901      	bls.n	200062d0 <process_control_request+0x3d0>
200062cc:	2300      	movs	r3, #0
200062ce:	e089      	b.n	200063e4 <process_control_request+0x4e4>
200062d0:	232e      	movs	r3, #46	@ 0x2e
200062d2:	18fb      	adds	r3, r7, r3
200062d4:	781a      	ldrb	r2, [r3, #0]
200062d6:	232d      	movs	r3, #45	@ 0x2d
200062d8:	18fb      	adds	r3, r7, r3
200062da:	781b      	ldrb	r3, [r3, #0]
200062dc:	4943      	ldr	r1, [pc, #268]	@ (200063ec <process_control_request+0x4ec>)
200062de:	0052      	lsls	r2, r2, #1
200062e0:	188a      	adds	r2, r1, r2
200062e2:	18d3      	adds	r3, r2, r3
200062e4:	3313      	adds	r3, #19
200062e6:	781b      	ldrb	r3, [r3, #0]
200062e8:	0018      	movs	r0, r3
200062ea:	f7ff fb53 	bl	20005994 <get_driver>
200062ee:	0003      	movs	r3, r0
200062f0:	62bb      	str	r3, [r7, #40]	@ 0x28
200062f2:	683b      	ldr	r3, [r7, #0]
200062f4:	781b      	ldrb	r3, [r3, #0]
200062f6:	2260      	movs	r2, #96	@ 0x60
200062f8:	4013      	ands	r3, r2
200062fa:	b2db      	uxtb	r3, r3
200062fc:	2b00      	cmp	r3, #0
200062fe:	d00d      	beq.n	2000631c <process_control_request+0x41c>
20006300:	6abb      	ldr	r3, [r7, #40]	@ 0x28
20006302:	2b00      	cmp	r3, #0
20006304:	d101      	bne.n	2000630a <process_control_request+0x40a>
20006306:	2300      	movs	r3, #0
20006308:	e06c      	b.n	200063e4 <process_control_request+0x4e4>
2000630a:	683a      	ldr	r2, [r7, #0]
2000630c:	6ab9      	ldr	r1, [r7, #40]	@ 0x28
2000630e:	1dfb      	adds	r3, r7, #7
20006310:	781b      	ldrb	r3, [r3, #0]
20006312:	0018      	movs	r0, r3
20006314:	f7ff fdd8 	bl	20005ec8 <invoke_class_control>
20006318:	0003      	movs	r3, r0
2000631a:	e063      	b.n	200063e4 <process_control_request+0x4e4>
2000631c:	683b      	ldr	r3, [r7, #0]
2000631e:	785b      	ldrb	r3, [r3, #1]
20006320:	2b03      	cmp	r3, #3
20006322:	d01b      	beq.n	2000635c <process_control_request+0x45c>
20006324:	dc56      	bgt.n	200063d4 <process_control_request+0x4d4>
20006326:	2b00      	cmp	r3, #0
20006328:	d002      	beq.n	20006330 <process_control_request+0x430>
2000632a:	2b01      	cmp	r3, #1
2000632c:	d016      	beq.n	2000635c <process_control_request+0x45c>
2000632e:	e051      	b.n	200063d4 <process_control_request+0x4d4>
20006330:	232f      	movs	r3, #47	@ 0x2f
20006332:	18fb      	adds	r3, r7, r3
20006334:	781a      	ldrb	r2, [r3, #0]
20006336:	1dfb      	adds	r3, r7, #7
20006338:	781b      	ldrb	r3, [r3, #0]
2000633a:	0011      	movs	r1, r2
2000633c:	0018      	movs	r0, r3
2000633e:	f000 fce3 	bl	20006d08 <usbd_edpt_stalled>
20006342:	0003      	movs	r3, r0
20006344:	001a      	movs	r2, r3
20006346:	2108      	movs	r1, #8
20006348:	187b      	adds	r3, r7, r1
2000634a:	801a      	strh	r2, [r3, #0]
2000634c:	187a      	adds	r2, r7, r1
2000634e:	6839      	ldr	r1, [r7, #0]
20006350:	1dfb      	adds	r3, r7, #7
20006352:	7818      	ldrb	r0, [r3, #0]
20006354:	2302      	movs	r3, #2
20006356:	f000 fdb1 	bl	20006ebc <tud_control_xfer>
2000635a:	e03e      	b.n	200063da <process_control_request+0x4da>
2000635c:	683b      	ldr	r3, [r7, #0]
2000635e:	789a      	ldrb	r2, [r3, #2]
20006360:	78db      	ldrb	r3, [r3, #3]
20006362:	021b      	lsls	r3, r3, #8
20006364:	4313      	orrs	r3, r2
20006366:	b29b      	uxth	r3, r3
20006368:	2b00      	cmp	r3, #0
2000636a:	d116      	bne.n	2000639a <process_control_request+0x49a>
2000636c:	683b      	ldr	r3, [r7, #0]
2000636e:	785b      	ldrb	r3, [r3, #1]
20006370:	2b01      	cmp	r3, #1
20006372:	d109      	bne.n	20006388 <process_control_request+0x488>
20006374:	232f      	movs	r3, #47	@ 0x2f
20006376:	18fb      	adds	r3, r7, r3
20006378:	781a      	ldrb	r2, [r3, #0]
2000637a:	1dfb      	adds	r3, r7, #7
2000637c:	781b      	ldrb	r3, [r3, #0]
2000637e:	0011      	movs	r1, r2
20006380:	0018      	movs	r0, r3
20006382:	f000 fc5f 	bl	20006c44 <usbd_edpt_clear_stall>
20006386:	e008      	b.n	2000639a <process_control_request+0x49a>
20006388:	232f      	movs	r3, #47	@ 0x2f
2000638a:	18fb      	adds	r3, r7, r3
2000638c:	781a      	ldrb	r2, [r3, #0]
2000638e:	1dfb      	adds	r3, r7, #7
20006390:	781b      	ldrb	r3, [r3, #0]
20006392:	0011      	movs	r1, r2
20006394:	0018      	movs	r0, r3
20006396:	f000 fbf3 	bl	20006b80 <usbd_edpt_stall>
2000639a:	6abb      	ldr	r3, [r7, #40]	@ 0x28
2000639c:	2b00      	cmp	r3, #0
2000639e:	d01b      	beq.n	200063d8 <process_control_request+0x4d8>
200063a0:	683a      	ldr	r2, [r7, #0]
200063a2:	6ab9      	ldr	r1, [r7, #40]	@ 0x28
200063a4:	1dfb      	adds	r3, r7, #7
200063a6:	781b      	ldrb	r3, [r3, #0]
200063a8:	0018      	movs	r0, r3
200063aa:	f7ff fd8d 	bl	20005ec8 <invoke_class_control>
200063ae:	2000      	movs	r0, #0
200063b0:	f000 fe02 	bl	20006fb8 <usbd_control_set_complete_callback>
200063b4:	4b0d      	ldr	r3, [pc, #52]	@ (200063ec <process_control_request+0x4ec>)
200063b6:	2234      	movs	r2, #52	@ 0x34
200063b8:	5c9b      	ldrb	r3, [r3, r2]
200063ba:	07db      	lsls	r3, r3, #31
200063bc:	0fdb      	lsrs	r3, r3, #31
200063be:	b2db      	uxtb	r3, r3
200063c0:	2b00      	cmp	r3, #0
200063c2:	d109      	bne.n	200063d8 <process_control_request+0x4d8>
200063c4:	683a      	ldr	r2, [r7, #0]
200063c6:	1dfb      	adds	r3, r7, #7
200063c8:	781b      	ldrb	r3, [r3, #0]
200063ca:	0011      	movs	r1, r2
200063cc:	0018      	movs	r0, r3
200063ce:	f000 fcf7 	bl	20006dc0 <tud_control_status>
200063d2:	e001      	b.n	200063d8 <process_control_request+0x4d8>
200063d4:	2300      	movs	r3, #0
200063d6:	e005      	b.n	200063e4 <process_control_request+0x4e4>
200063d8:	46c0      	nop			@ (mov r8, r8)
200063da:	e002      	b.n	200063e2 <process_control_request+0x4e2>
200063dc:	2300      	movs	r3, #0
200063de:	e001      	b.n	200063e4 <process_control_request+0x4e4>
200063e0:	46c0      	nop			@ (mov r8, r8)
200063e2:	2301      	movs	r3, #1
200063e4:	0018      	movs	r0, r3
200063e6:	46bd      	mov	sp, r7
200063e8:	b00d      	add	sp, #52	@ 0x34
200063ea:	bd90      	pop	{r4, r7, pc}
200063ec:	2000b5f8 	.word	0x2000b5f8

200063f0 <process_set_config>:
200063f0:	b5f0      	push	{r4, r5, r6, r7, lr}
200063f2:	b091      	sub	sp, #68	@ 0x44
200063f4:	af00      	add	r7, sp, #0
200063f6:	0002      	movs	r2, r0
200063f8:	1dfb      	adds	r3, r7, #7
200063fa:	701a      	strb	r2, [r3, #0]
200063fc:	1dbb      	adds	r3, r7, #6
200063fe:	1c0a      	adds	r2, r1, #0
20006400:	701a      	strb	r2, [r3, #0]
20006402:	1dbb      	adds	r3, r7, #6
20006404:	781b      	ldrb	r3, [r3, #0]
20006406:	3b01      	subs	r3, #1
20006408:	b2db      	uxtb	r3, r3
2000640a:	0018      	movs	r0, r3
2000640c:	f7fe fdee 	bl	20004fec <tud_descriptor_configuration_cb>
20006410:	0003      	movs	r3, r0
20006412:	637b      	str	r3, [r7, #52]	@ 0x34
20006414:	6b7b      	ldr	r3, [r7, #52]	@ 0x34
20006416:	2b00      	cmp	r3, #0
20006418:	d003      	beq.n	20006422 <process_set_config+0x32>
2000641a:	6b7b      	ldr	r3, [r7, #52]	@ 0x34
2000641c:	785b      	ldrb	r3, [r3, #1]
2000641e:	2b02      	cmp	r3, #2
20006420:	d001      	beq.n	20006426 <process_set_config+0x36>
20006422:	2300      	movs	r3, #0
20006424:	e0f6      	b.n	20006614 <process_set_config+0x224>
20006426:	6b7b      	ldr	r3, [r7, #52]	@ 0x34
20006428:	79db      	ldrb	r3, [r3, #7]
2000642a:	115b      	asrs	r3, r3, #5
2000642c:	1c1a      	adds	r2, r3, #0
2000642e:	2301      	movs	r3, #1
20006430:	4013      	ands	r3, r2
20006432:	b2da      	uxtb	r2, r3
20006434:	4b79      	ldr	r3, [pc, #484]	@ (2000661c <process_set_config+0x22c>)
20006436:	2101      	movs	r1, #1
20006438:	400a      	ands	r2, r1
2000643a:	0110      	lsls	r0, r2, #4
2000643c:	781a      	ldrb	r2, [r3, #0]
2000643e:	2110      	movs	r1, #16
20006440:	438a      	bics	r2, r1
20006442:	1c11      	adds	r1, r2, #0
20006444:	1c02      	adds	r2, r0, #0
20006446:	430a      	orrs	r2, r1
20006448:	701a      	strb	r2, [r3, #0]
2000644a:	6b7b      	ldr	r3, [r7, #52]	@ 0x34
2000644c:	79db      	ldrb	r3, [r3, #7]
2000644e:	119b      	asrs	r3, r3, #6
20006450:	1c1a      	adds	r2, r3, #0
20006452:	2301      	movs	r3, #1
20006454:	4013      	ands	r3, r2
20006456:	b2da      	uxtb	r2, r3
20006458:	4b70      	ldr	r3, [pc, #448]	@ (2000661c <process_set_config+0x22c>)
2000645a:	2101      	movs	r1, #1
2000645c:	400a      	ands	r2, r1
2000645e:	0150      	lsls	r0, r2, #5
20006460:	781a      	ldrb	r2, [r3, #0]
20006462:	2120      	movs	r1, #32
20006464:	438a      	bics	r2, r1
20006466:	1c11      	adds	r1, r2, #0
20006468:	1c02      	adds	r2, r0, #0
2000646a:	430a      	orrs	r2, r1
2000646c:	701a      	strb	r2, [r3, #0]
2000646e:	6b7b      	ldr	r3, [r7, #52]	@ 0x34
20006470:	3309      	adds	r3, #9
20006472:	63fb      	str	r3, [r7, #60]	@ 0x3c
20006474:	6b7b      	ldr	r3, [r7, #52]	@ 0x34
20006476:	789a      	ldrb	r2, [r3, #2]
20006478:	78db      	ldrb	r3, [r3, #3]
2000647a:	021b      	lsls	r3, r3, #8
2000647c:	4313      	orrs	r3, r2
2000647e:	b29b      	uxth	r3, r3
20006480:	001a      	movs	r2, r3
20006482:	6b7b      	ldr	r3, [r7, #52]	@ 0x34
20006484:	189b      	adds	r3, r3, r2
20006486:	633b      	str	r3, [r7, #48]	@ 0x30
20006488:	e0b9      	b.n	200065fe <process_set_config+0x20e>
2000648a:	213b      	movs	r1, #59	@ 0x3b
2000648c:	187b      	adds	r3, r7, r1
2000648e:	2201      	movs	r2, #1
20006490:	701a      	strb	r2, [r3, #0]
20006492:	6bfb      	ldr	r3, [r7, #60]	@ 0x3c
20006494:	61bb      	str	r3, [r7, #24]
20006496:	69bb      	ldr	r3, [r7, #24]
20006498:	3301      	adds	r3, #1
2000649a:	781b      	ldrb	r3, [r3, #0]
2000649c:	2b0b      	cmp	r3, #11
2000649e:	d10f      	bne.n	200064c0 <process_set_config+0xd0>
200064a0:	6bfb      	ldr	r3, [r7, #60]	@ 0x3c
200064a2:	62fb      	str	r3, [r7, #44]	@ 0x2c
200064a4:	187b      	adds	r3, r7, r1
200064a6:	6afa      	ldr	r2, [r7, #44]	@ 0x2c
200064a8:	78d2      	ldrb	r2, [r2, #3]
200064aa:	701a      	strb	r2, [r3, #0]
200064ac:	6bfb      	ldr	r3, [r7, #60]	@ 0x3c
200064ae:	617b      	str	r3, [r7, #20]
200064b0:	697b      	ldr	r3, [r7, #20]
200064b2:	613b      	str	r3, [r7, #16]
200064b4:	693b      	ldr	r3, [r7, #16]
200064b6:	781b      	ldrb	r3, [r3, #0]
200064b8:	001a      	movs	r2, r3
200064ba:	693b      	ldr	r3, [r7, #16]
200064bc:	189b      	adds	r3, r3, r2
200064be:	63fb      	str	r3, [r7, #60]	@ 0x3c
200064c0:	6bfb      	ldr	r3, [r7, #60]	@ 0x3c
200064c2:	60fb      	str	r3, [r7, #12]
200064c4:	68fb      	ldr	r3, [r7, #12]
200064c6:	3301      	adds	r3, #1
200064c8:	781b      	ldrb	r3, [r3, #0]
200064ca:	2b04      	cmp	r3, #4
200064cc:	d001      	beq.n	200064d2 <process_set_config+0xe2>
200064ce:	2300      	movs	r3, #0
200064d0:	e0a0      	b.n	20006614 <process_set_config+0x224>
200064d2:	6bfb      	ldr	r3, [r7, #60]	@ 0x3c
200064d4:	62bb      	str	r3, [r7, #40]	@ 0x28
200064d6:	6b3a      	ldr	r2, [r7, #48]	@ 0x30
200064d8:	6bfb      	ldr	r3, [r7, #60]	@ 0x3c
200064da:	1ad2      	subs	r2, r2, r3
200064dc:	2326      	movs	r3, #38	@ 0x26
200064de:	18fb      	adds	r3, r7, r3
200064e0:	801a      	strh	r2, [r3, #0]
200064e2:	233a      	movs	r3, #58	@ 0x3a
200064e4:	18fb      	adds	r3, r7, r3
200064e6:	2200      	movs	r2, #0
200064e8:	701a      	strb	r2, [r3, #0]
200064ea:	e077      	b.n	200065dc <process_set_config+0x1ec>
200064ec:	233a      	movs	r3, #58	@ 0x3a
200064ee:	18fb      	adds	r3, r7, r3
200064f0:	781b      	ldrb	r3, [r3, #0]
200064f2:	0018      	movs	r0, r3
200064f4:	f7ff fa4e 	bl	20005994 <get_driver>
200064f8:	0003      	movs	r3, r0
200064fa:	623b      	str	r3, [r7, #32]
200064fc:	6a3b      	ldr	r3, [r7, #32]
200064fe:	2b00      	cmp	r3, #0
20006500:	d101      	bne.n	20006506 <process_set_config+0x116>
20006502:	2300      	movs	r3, #0
20006504:	e086      	b.n	20006614 <process_set_config+0x224>
20006506:	6a3b      	ldr	r3, [r7, #32]
20006508:	689b      	ldr	r3, [r3, #8]
2000650a:	261e      	movs	r6, #30
2000650c:	19bc      	adds	r4, r7, r6
2000650e:	2226      	movs	r2, #38	@ 0x26
20006510:	18ba      	adds	r2, r7, r2
20006512:	8815      	ldrh	r5, [r2, #0]
20006514:	6ab9      	ldr	r1, [r7, #40]	@ 0x28
20006516:	1dfa      	adds	r2, r7, #7
20006518:	7810      	ldrb	r0, [r2, #0]
2000651a:	002a      	movs	r2, r5
2000651c:	4798      	blx	r3
2000651e:	0003      	movs	r3, r0
20006520:	8023      	strh	r3, [r4, #0]
20006522:	19bb      	adds	r3, r7, r6
20006524:	881b      	ldrh	r3, [r3, #0]
20006526:	2b08      	cmp	r3, #8
20006528:	d952      	bls.n	200065d0 <process_set_config+0x1e0>
2000652a:	19ba      	adds	r2, r7, r6
2000652c:	2326      	movs	r3, #38	@ 0x26
2000652e:	18fb      	adds	r3, r7, r3
20006530:	8812      	ldrh	r2, [r2, #0]
20006532:	881b      	ldrh	r3, [r3, #0]
20006534:	429a      	cmp	r2, r3
20006536:	d84b      	bhi.n	200065d0 <process_set_config+0x1e0>
20006538:	213b      	movs	r1, #59	@ 0x3b
2000653a:	187b      	adds	r3, r7, r1
2000653c:	781b      	ldrb	r3, [r3, #0]
2000653e:	2b01      	cmp	r3, #1
20006540:	d107      	bne.n	20006552 <process_set_config+0x162>
20006542:	6a3b      	ldr	r3, [r7, #32]
20006544:	689a      	ldr	r2, [r3, #8]
20006546:	4b36      	ldr	r3, [pc, #216]	@ (20006620 <process_set_config+0x230>)
20006548:	429a      	cmp	r2, r3
2000654a:	d102      	bne.n	20006552 <process_set_config+0x162>
2000654c:	187b      	adds	r3, r7, r1
2000654e:	2202      	movs	r2, #2
20006550:	701a      	strb	r2, [r3, #0]
20006552:	2339      	movs	r3, #57	@ 0x39
20006554:	18fb      	adds	r3, r7, r3
20006556:	2200      	movs	r2, #0
20006558:	701a      	strb	r2, [r3, #0]
2000655a:	e020      	b.n	2000659e <process_set_config+0x1ae>
2000655c:	6abb      	ldr	r3, [r7, #40]	@ 0x28
2000655e:	7899      	ldrb	r1, [r3, #2]
20006560:	201d      	movs	r0, #29
20006562:	183b      	adds	r3, r7, r0
20006564:	2239      	movs	r2, #57	@ 0x39
20006566:	18ba      	adds	r2, r7, r2
20006568:	7812      	ldrb	r2, [r2, #0]
2000656a:	188a      	adds	r2, r1, r2
2000656c:	701a      	strb	r2, [r3, #0]
2000656e:	183b      	adds	r3, r7, r0
20006570:	781b      	ldrb	r3, [r3, #0]
20006572:	4a2a      	ldr	r2, [pc, #168]	@ (2000661c <process_set_config+0x22c>)
20006574:	18d3      	adds	r3, r2, r3
20006576:	78db      	ldrb	r3, [r3, #3]
20006578:	2bff      	cmp	r3, #255	@ 0xff
2000657a:	d001      	beq.n	20006580 <process_set_config+0x190>
2000657c:	2300      	movs	r3, #0
2000657e:	e049      	b.n	20006614 <process_set_config+0x224>
20006580:	231d      	movs	r3, #29
20006582:	18fb      	adds	r3, r7, r3
20006584:	781b      	ldrb	r3, [r3, #0]
20006586:	4a25      	ldr	r2, [pc, #148]	@ (2000661c <process_set_config+0x22c>)
20006588:	18d3      	adds	r3, r2, r3
2000658a:	223a      	movs	r2, #58	@ 0x3a
2000658c:	18ba      	adds	r2, r7, r2
2000658e:	7812      	ldrb	r2, [r2, #0]
20006590:	70da      	strb	r2, [r3, #3]
20006592:	2139      	movs	r1, #57	@ 0x39
20006594:	187b      	adds	r3, r7, r1
20006596:	781a      	ldrb	r2, [r3, #0]
20006598:	187b      	adds	r3, r7, r1
2000659a:	3201      	adds	r2, #1
2000659c:	701a      	strb	r2, [r3, #0]
2000659e:	2339      	movs	r3, #57	@ 0x39
200065a0:	18fa      	adds	r2, r7, r3
200065a2:	233b      	movs	r3, #59	@ 0x3b
200065a4:	18fb      	adds	r3, r7, r3
200065a6:	7812      	ldrb	r2, [r2, #0]
200065a8:	781b      	ldrb	r3, [r3, #0]
200065aa:	429a      	cmp	r2, r3
200065ac:	d3d6      	bcc.n	2000655c <process_set_config+0x16c>
200065ae:	233a      	movs	r3, #58	@ 0x3a
200065b0:	18fb      	adds	r3, r7, r3
200065b2:	781c      	ldrb	r4, [r3, #0]
200065b4:	251e      	movs	r5, #30
200065b6:	197b      	adds	r3, r7, r5
200065b8:	881a      	ldrh	r2, [r3, #0]
200065ba:	6ab9      	ldr	r1, [r7, #40]	@ 0x28
200065bc:	4819      	ldr	r0, [pc, #100]	@ (20006624 <process_set_config+0x234>)
200065be:	0023      	movs	r3, r4
200065c0:	f001 fc6c 	bl	20007e9c <tu_edpt_bind_driver>
200065c4:	197b      	adds	r3, r7, r5
200065c6:	881b      	ldrh	r3, [r3, #0]
200065c8:	6bfa      	ldr	r2, [r7, #60]	@ 0x3c
200065ca:	18d3      	adds	r3, r2, r3
200065cc:	63fb      	str	r3, [r7, #60]	@ 0x3c
200065ce:	e00d      	b.n	200065ec <process_set_config+0x1fc>
200065d0:	213a      	movs	r1, #58	@ 0x3a
200065d2:	187b      	adds	r3, r7, r1
200065d4:	781a      	ldrb	r2, [r3, #0]
200065d6:	187b      	adds	r3, r7, r1
200065d8:	3201      	adds	r2, #1
200065da:	701a      	strb	r2, [r3, #0]
200065dc:	4b12      	ldr	r3, [pc, #72]	@ (20006628 <process_set_config+0x238>)
200065de:	781b      	ldrb	r3, [r3, #0]
200065e0:	223a      	movs	r2, #58	@ 0x3a
200065e2:	18ba      	adds	r2, r7, r2
200065e4:	7812      	ldrb	r2, [r2, #0]
200065e6:	429a      	cmp	r2, r3
200065e8:	d800      	bhi.n	200065ec <process_set_config+0x1fc>
200065ea:	e77f      	b.n	200064ec <process_set_config+0xfc>
200065ec:	4b0e      	ldr	r3, [pc, #56]	@ (20006628 <process_set_config+0x238>)
200065ee:	781b      	ldrb	r3, [r3, #0]
200065f0:	223a      	movs	r2, #58	@ 0x3a
200065f2:	18ba      	adds	r2, r7, r2
200065f4:	7812      	ldrb	r2, [r2, #0]
200065f6:	429a      	cmp	r2, r3
200065f8:	d901      	bls.n	200065fe <process_set_config+0x20e>
200065fa:	2300      	movs	r3, #0
200065fc:	e00a      	b.n	20006614 <process_set_config+0x224>
200065fe:	6bfa      	ldr	r2, [r7, #60]	@ 0x3c
20006600:	6b3b      	ldr	r3, [r7, #48]	@ 0x30
20006602:	429a      	cmp	r2, r3
20006604:	d200      	bcs.n	20006608 <process_set_config+0x218>
20006606:	e740      	b.n	2000648a <process_set_config+0x9a>
20006608:	4b08      	ldr	r3, [pc, #32]	@ (2000662c <process_set_config+0x23c>)
2000660a:	2b00      	cmp	r3, #0
2000660c:	d001      	beq.n	20006612 <process_set_config+0x222>
2000660e:	e000      	b.n	20006612 <process_set_config+0x222>
20006610:	bf00      	nop
20006612:	2301      	movs	r3, #1
20006614:	0018      	movs	r0, r3
20006616:	46bd      	mov	sp, r7
20006618:	b011      	add	sp, #68	@ 0x44
2000661a:	bdf0      	pop	{r4, r5, r6, r7, pc}
2000661c:	2000b5f8 	.word	0x2000b5f8
20006620:	20007675 	.word	0x20007675
20006624:	2000b60b 	.word	0x2000b60b
20006628:	2000bf49 	.word	0x2000bf49
2000662c:	00000000 	.word	0x00000000

20006630 <process_get_descriptor>:
20006630:	b590      	push	{r4, r7, lr}
20006632:	b095      	sub	sp, #84	@ 0x54
20006634:	af00      	add	r7, sp, #0
20006636:	0002      	movs	r2, r0
20006638:	6039      	str	r1, [r7, #0]
2000663a:	1dfb      	adds	r3, r7, #7
2000663c:	701a      	strb	r2, [r3, #0]
2000663e:	683b      	ldr	r3, [r7, #0]
20006640:	789a      	ldrb	r2, [r3, #2]
20006642:	78db      	ldrb	r3, [r3, #3]
20006644:	021b      	lsls	r3, r3, #8
20006646:	4313      	orrs	r3, r2
20006648:	b29a      	uxth	r2, r3
2000664a:	212c      	movs	r1, #44	@ 0x2c
2000664c:	187b      	adds	r3, r7, r1
2000664e:	801a      	strh	r2, [r3, #0]
20006650:	187b      	adds	r3, r7, r1
20006652:	881b      	ldrh	r3, [r3, #0]
20006654:	0a1b      	lsrs	r3, r3, #8
20006656:	b29b      	uxth	r3, r3
20006658:	b2da      	uxtb	r2, r3
2000665a:	214b      	movs	r1, #75	@ 0x4b
2000665c:	187b      	adds	r3, r7, r1
2000665e:	701a      	strb	r2, [r3, #0]
20006660:	683b      	ldr	r3, [r7, #0]
20006662:	789a      	ldrb	r2, [r3, #2]
20006664:	78db      	ldrb	r3, [r3, #3]
20006666:	021b      	lsls	r3, r3, #8
20006668:	4313      	orrs	r3, r2
2000666a:	b29a      	uxth	r2, r3
2000666c:	202e      	movs	r0, #46	@ 0x2e
2000666e:	183b      	adds	r3, r7, r0
20006670:	801a      	strh	r2, [r3, #0]
20006672:	183b      	adds	r3, r7, r0
20006674:	881b      	ldrh	r3, [r3, #0]
20006676:	b2da      	uxtb	r2, r3
20006678:	234a      	movs	r3, #74	@ 0x4a
2000667a:	18fb      	adds	r3, r7, r3
2000667c:	701a      	strb	r2, [r3, #0]
2000667e:	187b      	adds	r3, r7, r1
20006680:	781b      	ldrb	r3, [r3, #0]
20006682:	2b0f      	cmp	r3, #15
20006684:	d900      	bls.n	20006688 <process_get_descriptor+0x58>
20006686:	e0af      	b.n	200067e8 <process_get_descriptor+0x1b8>
20006688:	009a      	lsls	r2, r3, #2
2000668a:	4b5a      	ldr	r3, [pc, #360]	@ (200067f4 <process_get_descriptor+0x1c4>)
2000668c:	18d3      	adds	r3, r2, r3
2000668e:	681b      	ldr	r3, [r3, #0]
20006690:	469f      	mov	pc, r3
20006692:	f7fe fca3 	bl	20004fdc <tud_descriptor_device_cb>
20006696:	0003      	movs	r3, r0
20006698:	633b      	str	r3, [r7, #48]	@ 0x30
2000669a:	6b3a      	ldr	r2, [r7, #48]	@ 0x30
2000669c:	6839      	ldr	r1, [r7, #0]
2000669e:	1dfb      	adds	r3, r7, #7
200066a0:	7818      	ldrb	r0, [r3, #0]
200066a2:	2312      	movs	r3, #18
200066a4:	f000 fc0a 	bl	20006ebc <tud_control_xfer>
200066a8:	0003      	movs	r3, r0
200066aa:	e09e      	b.n	200067ea <process_get_descriptor+0x1ba>
200066ac:	4b52      	ldr	r3, [pc, #328]	@ (200067f8 <process_get_descriptor+0x1c8>)
200066ae:	2b00      	cmp	r3, #0
200066b0:	d101      	bne.n	200066b6 <process_get_descriptor+0x86>
200066b2:	2300      	movs	r3, #0
200066b4:	e099      	b.n	200067ea <process_get_descriptor+0x1ba>
200066b6:	e000      	b.n	200066ba <process_get_descriptor+0x8a>
200066b8:	bf00      	nop
200066ba:	0003      	movs	r3, r0
200066bc:	647b      	str	r3, [r7, #68]	@ 0x44
200066be:	6c7b      	ldr	r3, [r7, #68]	@ 0x44
200066c0:	2b00      	cmp	r3, #0
200066c2:	d101      	bne.n	200066c8 <process_get_descriptor+0x98>
200066c4:	2300      	movs	r3, #0
200066c6:	e090      	b.n	200067ea <process_get_descriptor+0x1ba>
200066c8:	6c7b      	ldr	r3, [r7, #68]	@ 0x44
200066ca:	3302      	adds	r3, #2
200066cc:	62bb      	str	r3, [r7, #40]	@ 0x28
200066ce:	6abb      	ldr	r3, [r7, #40]	@ 0x28
200066d0:	627b      	str	r3, [r7, #36]	@ 0x24
200066d2:	6a7b      	ldr	r3, [r7, #36]	@ 0x24
200066d4:	781a      	ldrb	r2, [r3, #0]
200066d6:	785b      	ldrb	r3, [r3, #1]
200066d8:	021b      	lsls	r3, r3, #8
200066da:	4313      	orrs	r3, r2
200066dc:	b29a      	uxth	r2, r3
200066de:	2142      	movs	r1, #66	@ 0x42
200066e0:	187b      	adds	r3, r7, r1
200066e2:	801a      	strh	r2, [r3, #0]
200066e4:	6c7a      	ldr	r2, [r7, #68]	@ 0x44
200066e6:	187b      	adds	r3, r7, r1
200066e8:	881c      	ldrh	r4, [r3, #0]
200066ea:	6839      	ldr	r1, [r7, #0]
200066ec:	1dfb      	adds	r3, r7, #7
200066ee:	7818      	ldrb	r0, [r3, #0]
200066f0:	0023      	movs	r3, r4
200066f2:	f000 fbe3 	bl	20006ebc <tud_control_xfer>
200066f6:	0003      	movs	r3, r0
200066f8:	e077      	b.n	200067ea <process_get_descriptor+0x1ba>
200066fa:	234b      	movs	r3, #75	@ 0x4b
200066fc:	18fb      	adds	r3, r7, r3
200066fe:	781b      	ldrb	r3, [r3, #0]
20006700:	2b02      	cmp	r3, #2
20006702:	d108      	bne.n	20006716 <process_get_descriptor+0xe6>
20006704:	234a      	movs	r3, #74	@ 0x4a
20006706:	18fb      	adds	r3, r7, r3
20006708:	781b      	ldrb	r3, [r3, #0]
2000670a:	0018      	movs	r0, r3
2000670c:	f7fe fc6e 	bl	20004fec <tud_descriptor_configuration_cb>
20006710:	0003      	movs	r3, r0
20006712:	64fb      	str	r3, [r7, #76]	@ 0x4c
20006714:	e00c      	b.n	20006730 <process_get_descriptor+0x100>
20006716:	4b39      	ldr	r3, [pc, #228]	@ (200067fc <process_get_descriptor+0x1cc>)
20006718:	2b00      	cmp	r3, #0
2000671a:	d101      	bne.n	20006720 <process_get_descriptor+0xf0>
2000671c:	2300      	movs	r3, #0
2000671e:	e064      	b.n	200067ea <process_get_descriptor+0x1ba>
20006720:	234a      	movs	r3, #74	@ 0x4a
20006722:	18fb      	adds	r3, r7, r3
20006724:	781b      	ldrb	r3, [r3, #0]
20006726:	0018      	movs	r0, r3
20006728:	e000      	b.n	2000672c <process_get_descriptor+0xfc>
2000672a:	bf00      	nop
2000672c:	0003      	movs	r3, r0
2000672e:	64fb      	str	r3, [r7, #76]	@ 0x4c
20006730:	6cfb      	ldr	r3, [r7, #76]	@ 0x4c
20006732:	2b00      	cmp	r3, #0
20006734:	d101      	bne.n	2000673a <process_get_descriptor+0x10a>
20006736:	2300      	movs	r3, #0
20006738:	e057      	b.n	200067ea <process_get_descriptor+0x1ba>
2000673a:	6cfb      	ldr	r3, [r7, #76]	@ 0x4c
2000673c:	3302      	adds	r3, #2
2000673e:	623b      	str	r3, [r7, #32]
20006740:	6a3b      	ldr	r3, [r7, #32]
20006742:	61fb      	str	r3, [r7, #28]
20006744:	69fb      	ldr	r3, [r7, #28]
20006746:	781a      	ldrb	r2, [r3, #0]
20006748:	785b      	ldrb	r3, [r3, #1]
2000674a:	021b      	lsls	r3, r3, #8
2000674c:	4313      	orrs	r3, r2
2000674e:	b29a      	uxth	r2, r3
20006750:	2136      	movs	r1, #54	@ 0x36
20006752:	187b      	adds	r3, r7, r1
20006754:	801a      	strh	r2, [r3, #0]
20006756:	6cfa      	ldr	r2, [r7, #76]	@ 0x4c
20006758:	187b      	adds	r3, r7, r1
2000675a:	881c      	ldrh	r4, [r3, #0]
2000675c:	6839      	ldr	r1, [r7, #0]
2000675e:	1dfb      	adds	r3, r7, #7
20006760:	7818      	ldrb	r0, [r3, #0]
20006762:	0023      	movs	r3, r4
20006764:	f000 fbaa 	bl	20006ebc <tud_control_xfer>
20006768:	0003      	movs	r3, r0
2000676a:	e03e      	b.n	200067ea <process_get_descriptor+0x1ba>
2000676c:	683b      	ldr	r3, [r7, #0]
2000676e:	791a      	ldrb	r2, [r3, #4]
20006770:	795b      	ldrb	r3, [r3, #5]
20006772:	021b      	lsls	r3, r3, #8
20006774:	4313      	orrs	r3, r2
20006776:	b29a      	uxth	r2, r3
20006778:	234a      	movs	r3, #74	@ 0x4a
2000677a:	18fb      	adds	r3, r7, r3
2000677c:	781b      	ldrb	r3, [r3, #0]
2000677e:	0011      	movs	r1, r2
20006780:	0018      	movs	r0, r3
20006782:	f7fe fc41 	bl	20005008 <tud_descriptor_string_cb>
20006786:	0003      	movs	r3, r0
20006788:	63bb      	str	r3, [r7, #56]	@ 0x38
2000678a:	6bbb      	ldr	r3, [r7, #56]	@ 0x38
2000678c:	2b00      	cmp	r3, #0
2000678e:	d101      	bne.n	20006794 <process_get_descriptor+0x164>
20006790:	2300      	movs	r3, #0
20006792:	e02a      	b.n	200067ea <process_get_descriptor+0x1ba>
20006794:	6bbb      	ldr	r3, [r7, #56]	@ 0x38
20006796:	61bb      	str	r3, [r7, #24]
20006798:	69bb      	ldr	r3, [r7, #24]
2000679a:	781b      	ldrb	r3, [r3, #0]
2000679c:	001c      	movs	r4, r3
2000679e:	6bba      	ldr	r2, [r7, #56]	@ 0x38
200067a0:	6839      	ldr	r1, [r7, #0]
200067a2:	1dfb      	adds	r3, r7, #7
200067a4:	7818      	ldrb	r0, [r3, #0]
200067a6:	0023      	movs	r3, r4
200067a8:	f000 fb88 	bl	20006ebc <tud_control_xfer>
200067ac:	0003      	movs	r3, r0
200067ae:	e01c      	b.n	200067ea <process_get_descriptor+0x1ba>
200067b0:	4b13      	ldr	r3, [pc, #76]	@ (20006800 <process_get_descriptor+0x1d0>)
200067b2:	2b00      	cmp	r3, #0
200067b4:	d101      	bne.n	200067ba <process_get_descriptor+0x18a>
200067b6:	2300      	movs	r3, #0
200067b8:	e017      	b.n	200067ea <process_get_descriptor+0x1ba>
200067ba:	e000      	b.n	200067be <process_get_descriptor+0x18e>
200067bc:	bf00      	nop
200067be:	0003      	movs	r3, r0
200067c0:	63fb      	str	r3, [r7, #60]	@ 0x3c
200067c2:	6bfb      	ldr	r3, [r7, #60]	@ 0x3c
200067c4:	2b00      	cmp	r3, #0
200067c6:	d101      	bne.n	200067cc <process_get_descriptor+0x19c>
200067c8:	2300      	movs	r3, #0
200067ca:	e00e      	b.n	200067ea <process_get_descriptor+0x1ba>
200067cc:	6bfb      	ldr	r3, [r7, #60]	@ 0x3c
200067ce:	617b      	str	r3, [r7, #20]
200067d0:	697b      	ldr	r3, [r7, #20]
200067d2:	781b      	ldrb	r3, [r3, #0]
200067d4:	001c      	movs	r4, r3
200067d6:	6bfa      	ldr	r2, [r7, #60]	@ 0x3c
200067d8:	6839      	ldr	r1, [r7, #0]
200067da:	1dfb      	adds	r3, r7, #7
200067dc:	7818      	ldrb	r0, [r3, #0]
200067de:	0023      	movs	r3, r4
200067e0:	f000 fb6c 	bl	20006ebc <tud_control_xfer>
200067e4:	0003      	movs	r3, r0
200067e6:	e000      	b.n	200067ea <process_get_descriptor+0x1ba>
200067e8:	2300      	movs	r3, #0
200067ea:	0018      	movs	r0, r3
200067ec:	46bd      	mov	sp, r7
200067ee:	b015      	add	sp, #84	@ 0x54
200067f0:	bd90      	pop	{r4, r7, pc}
200067f2:	46c0      	nop			@ (mov r8, r8)
200067f4:	2000b00c 	.word	0x2000b00c
	...

20006804 <usbd_open_edpt_pair>:
20006804:	b590      	push	{r4, r7, lr}
20006806:	b089      	sub	sp, #36	@ 0x24
20006808:	af00      	add	r7, sp, #0
2000680a:	0004      	movs	r4, r0
2000680c:	6039      	str	r1, [r7, #0]
2000680e:	0010      	movs	r0, r2
20006810:	0019      	movs	r1, r3
20006812:	1dfb      	adds	r3, r7, #7
20006814:	1c22      	adds	r2, r4, #0
20006816:	701a      	strb	r2, [r3, #0]
20006818:	1dbb      	adds	r3, r7, #6
2000681a:	1c02      	adds	r2, r0, #0
2000681c:	701a      	strb	r2, [r3, #0]
2000681e:	1d7b      	adds	r3, r7, #5
20006820:	1c0a      	adds	r2, r1, #0
20006822:	701a      	strb	r2, [r3, #0]
20006824:	2300      	movs	r3, #0
20006826:	61fb      	str	r3, [r7, #28]
20006828:	e042      	b.n	200068b0 <usbd_open_edpt_pair+0xac>
2000682a:	683b      	ldr	r3, [r7, #0]
2000682c:	61bb      	str	r3, [r7, #24]
2000682e:	69bb      	ldr	r3, [r7, #24]
20006830:	785b      	ldrb	r3, [r3, #1]
20006832:	2b05      	cmp	r3, #5
20006834:	d109      	bne.n	2000684a <usbd_open_edpt_pair+0x46>
20006836:	69bb      	ldr	r3, [r7, #24]
20006838:	78db      	ldrb	r3, [r3, #3]
2000683a:	079b      	lsls	r3, r3, #30
2000683c:	0f9b      	lsrs	r3, r3, #30
2000683e:	b2db      	uxtb	r3, r3
20006840:	001a      	movs	r2, r3
20006842:	1d7b      	adds	r3, r7, #5
20006844:	781b      	ldrb	r3, [r3, #0]
20006846:	4293      	cmp	r3, r2
20006848:	d001      	beq.n	2000684e <usbd_open_edpt_pair+0x4a>
2000684a:	2300      	movs	r3, #0
2000684c:	e036      	b.n	200068bc <usbd_open_edpt_pair+0xb8>
2000684e:	69ba      	ldr	r2, [r7, #24]
20006850:	1dfb      	adds	r3, r7, #7
20006852:	781b      	ldrb	r3, [r3, #0]
20006854:	0011      	movs	r1, r2
20006856:	0018      	movs	r0, r3
20006858:	f000 f858 	bl	2000690c <usbd_edpt_open>
2000685c:	0003      	movs	r3, r0
2000685e:	001a      	movs	r2, r3
20006860:	2301      	movs	r3, #1
20006862:	4053      	eors	r3, r2
20006864:	b2db      	uxtb	r3, r3
20006866:	2b00      	cmp	r3, #0
20006868:	d001      	beq.n	2000686e <usbd_open_edpt_pair+0x6a>
2000686a:	2300      	movs	r3, #0
2000686c:	e026      	b.n	200068bc <usbd_open_edpt_pair+0xb8>
2000686e:	69bb      	ldr	r3, [r7, #24]
20006870:	789a      	ldrb	r2, [r3, #2]
20006872:	2117      	movs	r1, #23
20006874:	187b      	adds	r3, r7, r1
20006876:	701a      	strb	r2, [r3, #0]
20006878:	187b      	adds	r3, r7, r1
2000687a:	781b      	ldrb	r3, [r3, #0]
2000687c:	09db      	lsrs	r3, r3, #7
2000687e:	b2db      	uxtb	r3, r3
20006880:	2b01      	cmp	r3, #1
20006882:	d104      	bne.n	2000688e <usbd_open_edpt_pair+0x8a>
20006884:	69bb      	ldr	r3, [r7, #24]
20006886:	789a      	ldrb	r2, [r3, #2]
20006888:	6b7b      	ldr	r3, [r7, #52]	@ 0x34
2000688a:	701a      	strb	r2, [r3, #0]
2000688c:	e003      	b.n	20006896 <usbd_open_edpt_pair+0x92>
2000688e:	69bb      	ldr	r3, [r7, #24]
20006890:	789a      	ldrb	r2, [r3, #2]
20006892:	6b3b      	ldr	r3, [r7, #48]	@ 0x30
20006894:	701a      	strb	r2, [r3, #0]
20006896:	683b      	ldr	r3, [r7, #0]
20006898:	613b      	str	r3, [r7, #16]
2000689a:	693b      	ldr	r3, [r7, #16]
2000689c:	60fb      	str	r3, [r7, #12]
2000689e:	68fb      	ldr	r3, [r7, #12]
200068a0:	781b      	ldrb	r3, [r3, #0]
200068a2:	001a      	movs	r2, r3
200068a4:	68fb      	ldr	r3, [r7, #12]
200068a6:	189b      	adds	r3, r3, r2
200068a8:	603b      	str	r3, [r7, #0]
200068aa:	69fb      	ldr	r3, [r7, #28]
200068ac:	3301      	adds	r3, #1
200068ae:	61fb      	str	r3, [r7, #28]
200068b0:	1dbb      	adds	r3, r7, #6
200068b2:	781b      	ldrb	r3, [r3, #0]
200068b4:	69fa      	ldr	r2, [r7, #28]
200068b6:	429a      	cmp	r2, r3
200068b8:	dbb7      	blt.n	2000682a <usbd_open_edpt_pair+0x26>
200068ba:	2301      	movs	r3, #1
200068bc:	0018      	movs	r0, r3
200068be:	46bd      	mov	sp, r7
200068c0:	b009      	add	sp, #36	@ 0x24
200068c2:	bd90      	pop	{r4, r7, pc}

200068c4 <usbd_defer_func>:
200068c4:	b590      	push	{r4, r7, lr}
200068c6:	b089      	sub	sp, #36	@ 0x24
200068c8:	af00      	add	r7, sp, #0
200068ca:	60f8      	str	r0, [r7, #12]
200068cc:	60b9      	str	r1, [r7, #8]
200068ce:	1dfb      	adds	r3, r7, #7
200068d0:	701a      	strb	r2, [r3, #0]
200068d2:	2414      	movs	r4, #20
200068d4:	193b      	adds	r3, r7, r4
200068d6:	0018      	movs	r0, r3
200068d8:	230c      	movs	r3, #12
200068da:	001a      	movs	r2, r3
200068dc:	2100      	movs	r1, #0
200068de:	f7fd fcc3 	bl	20004268 <__wrap_memset>
200068e2:	0021      	movs	r1, r4
200068e4:	187b      	adds	r3, r7, r1
200068e6:	2208      	movs	r2, #8
200068e8:	705a      	strb	r2, [r3, #1]
200068ea:	187b      	adds	r3, r7, r1
200068ec:	68fa      	ldr	r2, [r7, #12]
200068ee:	605a      	str	r2, [r3, #4]
200068f0:	187b      	adds	r3, r7, r1
200068f2:	68ba      	ldr	r2, [r7, #8]
200068f4:	609a      	str	r2, [r3, #8]
200068f6:	1dfb      	adds	r3, r7, #7
200068f8:	781a      	ldrb	r2, [r3, #0]
200068fa:	187b      	adds	r3, r7, r1
200068fc:	0011      	movs	r1, r2
200068fe:	0018      	movs	r0, r3
20006900:	f004 f840 	bl	2000a984 <dcd_event_handler>
20006904:	46c0      	nop			@ (mov r8, r8)
20006906:	46bd      	mov	sp, r7
20006908:	b009      	add	sp, #36	@ 0x24
2000690a:	bd90      	pop	{r4, r7, pc}

2000690c <usbd_edpt_open>:
2000690c:	b580      	push	{r7, lr}
2000690e:	b084      	sub	sp, #16
20006910:	af00      	add	r7, sp, #0
20006912:	0002      	movs	r2, r0
20006914:	6039      	str	r1, [r7, #0]
20006916:	1dfb      	adds	r3, r7, #7
20006918:	701a      	strb	r2, [r3, #0]
2000691a:	1dfb      	adds	r3, r7, #7
2000691c:	4a16      	ldr	r2, [pc, #88]	@ (20006978 <usbd_edpt_open+0x6c>)
2000691e:	7812      	ldrb	r2, [r2, #0]
20006920:	701a      	strb	r2, [r3, #0]
20006922:	683b      	ldr	r3, [r7, #0]
20006924:	789a      	ldrb	r2, [r3, #2]
20006926:	210f      	movs	r1, #15
20006928:	187b      	adds	r3, r7, r1
2000692a:	701a      	strb	r2, [r3, #0]
2000692c:	187b      	adds	r3, r7, r1
2000692e:	781b      	ldrb	r3, [r3, #0]
20006930:	227f      	movs	r2, #127	@ 0x7f
20006932:	4013      	ands	r3, r2
20006934:	b2db      	uxtb	r3, r3
20006936:	2b0f      	cmp	r3, #15
20006938:	d901      	bls.n	2000693e <usbd_edpt_open+0x32>
2000693a:	2300      	movs	r3, #0
2000693c:	e017      	b.n	2000696e <usbd_edpt_open+0x62>
2000693e:	4b0f      	ldr	r3, [pc, #60]	@ (2000697c <usbd_edpt_open+0x70>)
20006940:	789a      	ldrb	r2, [r3, #2]
20006942:	683b      	ldr	r3, [r7, #0]
20006944:	0011      	movs	r1, r2
20006946:	0018      	movs	r0, r3
20006948:	f001 fa3c 	bl	20007dc4 <tu_edpt_validate>
2000694c:	0003      	movs	r3, r0
2000694e:	001a      	movs	r2, r3
20006950:	2301      	movs	r3, #1
20006952:	4053      	eors	r3, r2
20006954:	b2db      	uxtb	r3, r3
20006956:	2b00      	cmp	r3, #0
20006958:	d001      	beq.n	2000695e <usbd_edpt_open+0x52>
2000695a:	2300      	movs	r3, #0
2000695c:	e007      	b.n	2000696e <usbd_edpt_open+0x62>
2000695e:	683a      	ldr	r2, [r7, #0]
20006960:	1dfb      	adds	r3, r7, #7
20006962:	781b      	ldrb	r3, [r3, #0]
20006964:	0011      	movs	r1, r2
20006966:	0018      	movs	r0, r3
20006968:	f7fe fe72 	bl	20005650 <dcd_edpt_open>
2000696c:	0003      	movs	r3, r0
2000696e:	0018      	movs	r0, r3
20006970:	46bd      	mov	sp, r7
20006972:	b004      	add	sp, #16
20006974:	bd80      	pop	{r7, pc}
20006976:	46c0      	nop			@ (mov r8, r8)
20006978:	2000b180 	.word	0x2000b180
2000697c:	2000b5f8 	.word	0x2000b5f8

20006980 <usbd_edpt_claim>:
20006980:	b580      	push	{r7, lr}
20006982:	b086      	sub	sp, #24
20006984:	af00      	add	r7, sp, #0
20006986:	0002      	movs	r2, r0
20006988:	1dfb      	adds	r3, r7, #7
2000698a:	701a      	strb	r2, [r3, #0]
2000698c:	1dbb      	adds	r3, r7, #6
2000698e:	1c0a      	adds	r2, r1, #0
20006990:	701a      	strb	r2, [r3, #0]
20006992:	210e      	movs	r1, #14
20006994:	187b      	adds	r3, r7, r1
20006996:	1dba      	adds	r2, r7, #6
20006998:	7812      	ldrb	r2, [r2, #0]
2000699a:	701a      	strb	r2, [r3, #0]
2000699c:	187b      	adds	r3, r7, r1
2000699e:	781b      	ldrb	r3, [r3, #0]
200069a0:	227f      	movs	r2, #127	@ 0x7f
200069a2:	4013      	ands	r3, r2
200069a4:	b2da      	uxtb	r2, r3
200069a6:	2117      	movs	r1, #23
200069a8:	187b      	adds	r3, r7, r1
200069aa:	701a      	strb	r2, [r3, #0]
200069ac:	200f      	movs	r0, #15
200069ae:	183b      	adds	r3, r7, r0
200069b0:	1dba      	adds	r2, r7, #6
200069b2:	7812      	ldrb	r2, [r2, #0]
200069b4:	701a      	strb	r2, [r3, #0]
200069b6:	183b      	adds	r3, r7, r0
200069b8:	781b      	ldrb	r3, [r3, #0]
200069ba:	09db      	lsrs	r3, r3, #7
200069bc:	b2da      	uxtb	r2, r3
200069be:	2016      	movs	r0, #22
200069c0:	183b      	adds	r3, r7, r0
200069c2:	701a      	strb	r2, [r3, #0]
200069c4:	187b      	adds	r3, r7, r1
200069c6:	781a      	ldrb	r2, [r3, #0]
200069c8:	183b      	adds	r3, r7, r0
200069ca:	781b      	ldrb	r3, [r3, #0]
200069cc:	0052      	lsls	r2, r2, #1
200069ce:	18d3      	adds	r3, r2, r3
200069d0:	3330      	adds	r3, #48	@ 0x30
200069d2:	001a      	movs	r2, r3
200069d4:	4b07      	ldr	r3, [pc, #28]	@ (200069f4 <usbd_edpt_claim+0x74>)
200069d6:	18d3      	adds	r3, r2, r3
200069d8:	3303      	adds	r3, #3
200069da:	613b      	str	r3, [r7, #16]
200069dc:	4b06      	ldr	r3, [pc, #24]	@ (200069f8 <usbd_edpt_claim+0x78>)
200069de:	681a      	ldr	r2, [r3, #0]
200069e0:	693b      	ldr	r3, [r7, #16]
200069e2:	0011      	movs	r1, r2
200069e4:	0018      	movs	r0, r3
200069e6:	f001 f960 	bl	20007caa <tu_edpt_claim>
200069ea:	0003      	movs	r3, r0
200069ec:	0018      	movs	r0, r3
200069ee:	46bd      	mov	sp, r7
200069f0:	b006      	add	sp, #24
200069f2:	bd80      	pop	{r7, pc}
200069f4:	2000b5f8 	.word	0x2000b5f8
200069f8:	2000b64c 	.word	0x2000b64c

200069fc <usbd_edpt_release>:
200069fc:	b580      	push	{r7, lr}
200069fe:	b086      	sub	sp, #24
20006a00:	af00      	add	r7, sp, #0
20006a02:	0002      	movs	r2, r0
20006a04:	1dfb      	adds	r3, r7, #7
20006a06:	701a      	strb	r2, [r3, #0]
20006a08:	1dbb      	adds	r3, r7, #6
20006a0a:	1c0a      	adds	r2, r1, #0
20006a0c:	701a      	strb	r2, [r3, #0]
20006a0e:	210e      	movs	r1, #14
20006a10:	187b      	adds	r3, r7, r1
20006a12:	1dba      	adds	r2, r7, #6
20006a14:	7812      	ldrb	r2, [r2, #0]
20006a16:	701a      	strb	r2, [r3, #0]
20006a18:	187b      	adds	r3, r7, r1
20006a1a:	781b      	ldrb	r3, [r3, #0]
20006a1c:	227f      	movs	r2, #127	@ 0x7f
20006a1e:	4013      	ands	r3, r2
20006a20:	b2da      	uxtb	r2, r3
20006a22:	2117      	movs	r1, #23
20006a24:	187b      	adds	r3, r7, r1
20006a26:	701a      	strb	r2, [r3, #0]
20006a28:	200f      	movs	r0, #15
20006a2a:	183b      	adds	r3, r7, r0
20006a2c:	1dba      	adds	r2, r7, #6
20006a2e:	7812      	ldrb	r2, [r2, #0]
20006a30:	701a      	strb	r2, [r3, #0]
20006a32:	183b      	adds	r3, r7, r0
20006a34:	781b      	ldrb	r3, [r3, #0]
20006a36:	09db      	lsrs	r3, r3, #7
20006a38:	b2da      	uxtb	r2, r3
20006a3a:	2016      	movs	r0, #22
20006a3c:	183b      	adds	r3, r7, r0
20006a3e:	701a      	strb	r2, [r3, #0]
20006a40:	187b      	adds	r3, r7, r1
20006a42:	781a      	ldrb	r2, [r3, #0]
20006a44:	183b      	adds	r3, r7, r0
20006a46:	781b      	ldrb	r3, [r3, #0]
20006a48:	0052      	lsls	r2, r2, #1
20006a4a:	18d3      	adds	r3, r2, r3
20006a4c:	3330      	adds	r3, #48	@ 0x30
20006a4e:	001a      	movs	r2, r3
20006a50:	4b07      	ldr	r3, [pc, #28]	@ (20006a70 <usbd_edpt_release+0x74>)
20006a52:	18d3      	adds	r3, r2, r3
20006a54:	3303      	adds	r3, #3
20006a56:	613b      	str	r3, [r7, #16]
20006a58:	4b06      	ldr	r3, [pc, #24]	@ (20006a74 <usbd_edpt_release+0x78>)
20006a5a:	681a      	ldr	r2, [r3, #0]
20006a5c:	693b      	ldr	r3, [r7, #16]
20006a5e:	0011      	movs	r1, r2
20006a60:	0018      	movs	r0, r3
20006a62:	f001 f970 	bl	20007d46 <tu_edpt_release>
20006a66:	0003      	movs	r3, r0
20006a68:	0018      	movs	r0, r3
20006a6a:	46bd      	mov	sp, r7
20006a6c:	b006      	add	sp, #24
20006a6e:	bd80      	pop	{r7, pc}
20006a70:	2000b5f8 	.word	0x2000b5f8
20006a74:	2000b64c 	.word	0x2000b64c

20006a78 <usbd_edpt_xfer>:
20006a78:	b5b0      	push	{r4, r5, r7, lr}
20006a7a:	b084      	sub	sp, #16
20006a7c:	af00      	add	r7, sp, #0
20006a7e:	0004      	movs	r4, r0
20006a80:	0008      	movs	r0, r1
20006a82:	603a      	str	r2, [r7, #0]
20006a84:	0019      	movs	r1, r3
20006a86:	1dfb      	adds	r3, r7, #7
20006a88:	1c22      	adds	r2, r4, #0
20006a8a:	701a      	strb	r2, [r3, #0]
20006a8c:	1dbb      	adds	r3, r7, #6
20006a8e:	1c02      	adds	r2, r0, #0
20006a90:	701a      	strb	r2, [r3, #0]
20006a92:	1d3b      	adds	r3, r7, #4
20006a94:	1c0a      	adds	r2, r1, #0
20006a96:	801a      	strh	r2, [r3, #0]
20006a98:	1dfb      	adds	r3, r7, #7
20006a9a:	4a37      	ldr	r2, [pc, #220]	@ (20006b78 <usbd_edpt_xfer+0x100>)
20006a9c:	7812      	ldrb	r2, [r2, #0]
20006a9e:	701a      	strb	r2, [r3, #0]
20006aa0:	210c      	movs	r1, #12
20006aa2:	187b      	adds	r3, r7, r1
20006aa4:	1dba      	adds	r2, r7, #6
20006aa6:	7812      	ldrb	r2, [r2, #0]
20006aa8:	701a      	strb	r2, [r3, #0]
20006aaa:	187b      	adds	r3, r7, r1
20006aac:	781b      	ldrb	r3, [r3, #0]
20006aae:	227f      	movs	r2, #127	@ 0x7f
20006ab0:	4013      	ands	r3, r2
20006ab2:	b2da      	uxtb	r2, r3
20006ab4:	210f      	movs	r1, #15
20006ab6:	187b      	adds	r3, r7, r1
20006ab8:	701a      	strb	r2, [r3, #0]
20006aba:	200d      	movs	r0, #13
20006abc:	183b      	adds	r3, r7, r0
20006abe:	1dba      	adds	r2, r7, #6
20006ac0:	7812      	ldrb	r2, [r2, #0]
20006ac2:	701a      	strb	r2, [r3, #0]
20006ac4:	183b      	adds	r3, r7, r0
20006ac6:	781b      	ldrb	r3, [r3, #0]
20006ac8:	09db      	lsrs	r3, r3, #7
20006aca:	b2da      	uxtb	r2, r3
20006acc:	200e      	movs	r0, #14
20006ace:	183b      	adds	r3, r7, r0
20006ad0:	701a      	strb	r2, [r3, #0]
20006ad2:	187b      	adds	r3, r7, r1
20006ad4:	781a      	ldrb	r2, [r3, #0]
20006ad6:	183b      	adds	r3, r7, r0
20006ad8:	781b      	ldrb	r3, [r3, #0]
20006ada:	4928      	ldr	r1, [pc, #160]	@ (20006b7c <usbd_edpt_xfer+0x104>)
20006adc:	2030      	movs	r0, #48	@ 0x30
20006ade:	0052      	lsls	r2, r2, #1
20006ae0:	188a      	adds	r2, r1, r2
20006ae2:	18d3      	adds	r3, r2, r3
20006ae4:	181b      	adds	r3, r3, r0
20006ae6:	78db      	ldrb	r3, [r3, #3]
20006ae8:	07db      	lsls	r3, r3, #31
20006aea:	0fdb      	lsrs	r3, r3, #31
20006aec:	b2db      	uxtb	r3, r3
20006aee:	2b00      	cmp	r3, #0
20006af0:	d001      	beq.n	20006af6 <usbd_edpt_xfer+0x7e>
20006af2:	2300      	movs	r3, #0
20006af4:	e03c      	b.n	20006b70 <usbd_edpt_xfer+0xf8>
20006af6:	230f      	movs	r3, #15
20006af8:	18fb      	adds	r3, r7, r3
20006afa:	781a      	ldrb	r2, [r3, #0]
20006afc:	230e      	movs	r3, #14
20006afe:	18fb      	adds	r3, r7, r3
20006b00:	781b      	ldrb	r3, [r3, #0]
20006b02:	491e      	ldr	r1, [pc, #120]	@ (20006b7c <usbd_edpt_xfer+0x104>)
20006b04:	2030      	movs	r0, #48	@ 0x30
20006b06:	0052      	lsls	r2, r2, #1
20006b08:	188a      	adds	r2, r1, r2
20006b0a:	18d3      	adds	r3, r2, r3
20006b0c:	181a      	adds	r2, r3, r0
20006b0e:	78d3      	ldrb	r3, [r2, #3]
20006b10:	2101      	movs	r1, #1
20006b12:	430b      	orrs	r3, r1
20006b14:	70d3      	strb	r3, [r2, #3]
20006b16:	1d3b      	adds	r3, r7, #4
20006b18:	881c      	ldrh	r4, [r3, #0]
20006b1a:	683a      	ldr	r2, [r7, #0]
20006b1c:	1dbb      	adds	r3, r7, #6
20006b1e:	7819      	ldrb	r1, [r3, #0]
20006b20:	1dfb      	adds	r3, r7, #7
20006b22:	7818      	ldrb	r0, [r3, #0]
20006b24:	0023      	movs	r3, r4
20006b26:	f7fe fdc0 	bl	200056aa <dcd_edpt_xfer>
20006b2a:	1e03      	subs	r3, r0, #0
20006b2c:	d001      	beq.n	20006b32 <usbd_edpt_xfer+0xba>
20006b2e:	2301      	movs	r3, #1
20006b30:	e01e      	b.n	20006b70 <usbd_edpt_xfer+0xf8>
20006b32:	240f      	movs	r4, #15
20006b34:	193b      	adds	r3, r7, r4
20006b36:	781a      	ldrb	r2, [r3, #0]
20006b38:	250e      	movs	r5, #14
20006b3a:	197b      	adds	r3, r7, r5
20006b3c:	781b      	ldrb	r3, [r3, #0]
20006b3e:	490f      	ldr	r1, [pc, #60]	@ (20006b7c <usbd_edpt_xfer+0x104>)
20006b40:	2030      	movs	r0, #48	@ 0x30
20006b42:	0052      	lsls	r2, r2, #1
20006b44:	188a      	adds	r2, r1, r2
20006b46:	18d3      	adds	r3, r2, r3
20006b48:	181a      	adds	r2, r3, r0
20006b4a:	78d3      	ldrb	r3, [r2, #3]
20006b4c:	2101      	movs	r1, #1
20006b4e:	438b      	bics	r3, r1
20006b50:	70d3      	strb	r3, [r2, #3]
20006b52:	193b      	adds	r3, r7, r4
20006b54:	781a      	ldrb	r2, [r3, #0]
20006b56:	197b      	adds	r3, r7, r5
20006b58:	781b      	ldrb	r3, [r3, #0]
20006b5a:	4908      	ldr	r1, [pc, #32]	@ (20006b7c <usbd_edpt_xfer+0x104>)
20006b5c:	2030      	movs	r0, #48	@ 0x30
20006b5e:	0052      	lsls	r2, r2, #1
20006b60:	188a      	adds	r2, r1, r2
20006b62:	18d3      	adds	r3, r2, r3
20006b64:	181a      	adds	r2, r3, r0
20006b66:	78d3      	ldrb	r3, [r2, #3]
20006b68:	2104      	movs	r1, #4
20006b6a:	438b      	bics	r3, r1
20006b6c:	70d3      	strb	r3, [r2, #3]
20006b6e:	2300      	movs	r3, #0
20006b70:	0018      	movs	r0, r3
20006b72:	46bd      	mov	sp, r7
20006b74:	b004      	add	sp, #16
20006b76:	bdb0      	pop	{r4, r5, r7, pc}
20006b78:	2000b180 	.word	0x2000b180
20006b7c:	2000b5f8 	.word	0x2000b5f8

20006b80 <usbd_edpt_stall>:
20006b80:	b5b0      	push	{r4, r5, r7, lr}
20006b82:	b084      	sub	sp, #16
20006b84:	af00      	add	r7, sp, #0
20006b86:	0002      	movs	r2, r0
20006b88:	1dfb      	adds	r3, r7, #7
20006b8a:	701a      	strb	r2, [r3, #0]
20006b8c:	1dbb      	adds	r3, r7, #6
20006b8e:	1c0a      	adds	r2, r1, #0
20006b90:	701a      	strb	r2, [r3, #0]
20006b92:	1dfb      	adds	r3, r7, #7
20006b94:	4a29      	ldr	r2, [pc, #164]	@ (20006c3c <usbd_edpt_stall+0xbc>)
20006b96:	7812      	ldrb	r2, [r2, #0]
20006b98:	701a      	strb	r2, [r3, #0]
20006b9a:	210c      	movs	r1, #12
20006b9c:	187b      	adds	r3, r7, r1
20006b9e:	1dba      	adds	r2, r7, #6
20006ba0:	7812      	ldrb	r2, [r2, #0]
20006ba2:	701a      	strb	r2, [r3, #0]
20006ba4:	187b      	adds	r3, r7, r1
20006ba6:	781b      	ldrb	r3, [r3, #0]
20006ba8:	227f      	movs	r2, #127	@ 0x7f
20006baa:	4013      	ands	r3, r2
20006bac:	b2da      	uxtb	r2, r3
20006bae:	240f      	movs	r4, #15
20006bb0:	193b      	adds	r3, r7, r4
20006bb2:	701a      	strb	r2, [r3, #0]
20006bb4:	210d      	movs	r1, #13
20006bb6:	187b      	adds	r3, r7, r1
20006bb8:	1dba      	adds	r2, r7, #6
20006bba:	7812      	ldrb	r2, [r2, #0]
20006bbc:	701a      	strb	r2, [r3, #0]
20006bbe:	187b      	adds	r3, r7, r1
20006bc0:	781b      	ldrb	r3, [r3, #0]
20006bc2:	09db      	lsrs	r3, r3, #7
20006bc4:	b2da      	uxtb	r2, r3
20006bc6:	250e      	movs	r5, #14
20006bc8:	197b      	adds	r3, r7, r5
20006bca:	701a      	strb	r2, [r3, #0]
20006bcc:	193b      	adds	r3, r7, r4
20006bce:	781a      	ldrb	r2, [r3, #0]
20006bd0:	197b      	adds	r3, r7, r5
20006bd2:	781b      	ldrb	r3, [r3, #0]
20006bd4:	491a      	ldr	r1, [pc, #104]	@ (20006c40 <usbd_edpt_stall+0xc0>)
20006bd6:	2030      	movs	r0, #48	@ 0x30
20006bd8:	0052      	lsls	r2, r2, #1
20006bda:	188a      	adds	r2, r1, r2
20006bdc:	18d3      	adds	r3, r2, r3
20006bde:	181b      	adds	r3, r3, r0
20006be0:	78db      	ldrb	r3, [r3, #3]
20006be2:	079b      	lsls	r3, r3, #30
20006be4:	0fdb      	lsrs	r3, r3, #31
20006be6:	b2db      	uxtb	r3, r3
20006be8:	2b00      	cmp	r3, #0
20006bea:	d123      	bne.n	20006c34 <usbd_edpt_stall+0xb4>
20006bec:	1dbb      	adds	r3, r7, #6
20006bee:	781a      	ldrb	r2, [r3, #0]
20006bf0:	1dfb      	adds	r3, r7, #7
20006bf2:	781b      	ldrb	r3, [r3, #0]
20006bf4:	0011      	movs	r1, r2
20006bf6:	0018      	movs	r0, r3
20006bf8:	f7fe fd74 	bl	200056e4 <dcd_edpt_stall>
20006bfc:	193b      	adds	r3, r7, r4
20006bfe:	781a      	ldrb	r2, [r3, #0]
20006c00:	197b      	adds	r3, r7, r5
20006c02:	781b      	ldrb	r3, [r3, #0]
20006c04:	490e      	ldr	r1, [pc, #56]	@ (20006c40 <usbd_edpt_stall+0xc0>)
20006c06:	2030      	movs	r0, #48	@ 0x30
20006c08:	0052      	lsls	r2, r2, #1
20006c0a:	188a      	adds	r2, r1, r2
20006c0c:	18d3      	adds	r3, r2, r3
20006c0e:	181a      	adds	r2, r3, r0
20006c10:	78d3      	ldrb	r3, [r2, #3]
20006c12:	2102      	movs	r1, #2
20006c14:	430b      	orrs	r3, r1
20006c16:	70d3      	strb	r3, [r2, #3]
20006c18:	193b      	adds	r3, r7, r4
20006c1a:	781a      	ldrb	r2, [r3, #0]
20006c1c:	197b      	adds	r3, r7, r5
20006c1e:	781b      	ldrb	r3, [r3, #0]
20006c20:	4907      	ldr	r1, [pc, #28]	@ (20006c40 <usbd_edpt_stall+0xc0>)
20006c22:	2030      	movs	r0, #48	@ 0x30
20006c24:	0052      	lsls	r2, r2, #1
20006c26:	188a      	adds	r2, r1, r2
20006c28:	18d3      	adds	r3, r2, r3
20006c2a:	181a      	adds	r2, r3, r0
20006c2c:	78d3      	ldrb	r3, [r2, #3]
20006c2e:	2101      	movs	r1, #1
20006c30:	430b      	orrs	r3, r1
20006c32:	70d3      	strb	r3, [r2, #3]
20006c34:	46c0      	nop			@ (mov r8, r8)
20006c36:	46bd      	mov	sp, r7
20006c38:	b004      	add	sp, #16
20006c3a:	bdb0      	pop	{r4, r5, r7, pc}
20006c3c:	2000b180 	.word	0x2000b180
20006c40:	2000b5f8 	.word	0x2000b5f8

20006c44 <usbd_edpt_clear_stall>:
20006c44:	b5b0      	push	{r4, r5, r7, lr}
20006c46:	b084      	sub	sp, #16
20006c48:	af00      	add	r7, sp, #0
20006c4a:	0002      	movs	r2, r0
20006c4c:	1dfb      	adds	r3, r7, #7
20006c4e:	701a      	strb	r2, [r3, #0]
20006c50:	1dbb      	adds	r3, r7, #6
20006c52:	1c0a      	adds	r2, r1, #0
20006c54:	701a      	strb	r2, [r3, #0]
20006c56:	1dfb      	adds	r3, r7, #7
20006c58:	4a29      	ldr	r2, [pc, #164]	@ (20006d00 <usbd_edpt_clear_stall+0xbc>)
20006c5a:	7812      	ldrb	r2, [r2, #0]
20006c5c:	701a      	strb	r2, [r3, #0]
20006c5e:	210c      	movs	r1, #12
20006c60:	187b      	adds	r3, r7, r1
20006c62:	1dba      	adds	r2, r7, #6
20006c64:	7812      	ldrb	r2, [r2, #0]
20006c66:	701a      	strb	r2, [r3, #0]
20006c68:	187b      	adds	r3, r7, r1
20006c6a:	781b      	ldrb	r3, [r3, #0]
20006c6c:	227f      	movs	r2, #127	@ 0x7f
20006c6e:	4013      	ands	r3, r2
20006c70:	b2da      	uxtb	r2, r3
20006c72:	240f      	movs	r4, #15
20006c74:	193b      	adds	r3, r7, r4
20006c76:	701a      	strb	r2, [r3, #0]
20006c78:	210d      	movs	r1, #13
20006c7a:	187b      	adds	r3, r7, r1
20006c7c:	1dba      	adds	r2, r7, #6
20006c7e:	7812      	ldrb	r2, [r2, #0]
20006c80:	701a      	strb	r2, [r3, #0]
20006c82:	187b      	adds	r3, r7, r1
20006c84:	781b      	ldrb	r3, [r3, #0]
20006c86:	09db      	lsrs	r3, r3, #7
20006c88:	b2da      	uxtb	r2, r3
20006c8a:	250e      	movs	r5, #14
20006c8c:	197b      	adds	r3, r7, r5
20006c8e:	701a      	strb	r2, [r3, #0]
20006c90:	193b      	adds	r3, r7, r4
20006c92:	781a      	ldrb	r2, [r3, #0]
20006c94:	197b      	adds	r3, r7, r5
20006c96:	781b      	ldrb	r3, [r3, #0]
20006c98:	491a      	ldr	r1, [pc, #104]	@ (20006d04 <usbd_edpt_clear_stall+0xc0>)
20006c9a:	2030      	movs	r0, #48	@ 0x30
20006c9c:	0052      	lsls	r2, r2, #1
20006c9e:	188a      	adds	r2, r1, r2
20006ca0:	18d3      	adds	r3, r2, r3
20006ca2:	181b      	adds	r3, r3, r0
20006ca4:	78db      	ldrb	r3, [r3, #3]
20006ca6:	079b      	lsls	r3, r3, #30
20006ca8:	0fdb      	lsrs	r3, r3, #31
20006caa:	b2db      	uxtb	r3, r3
20006cac:	2b00      	cmp	r3, #0
20006cae:	d023      	beq.n	20006cf8 <usbd_edpt_clear_stall+0xb4>
20006cb0:	1dbb      	adds	r3, r7, #6
20006cb2:	781a      	ldrb	r2, [r3, #0]
20006cb4:	1dfb      	adds	r3, r7, #7
20006cb6:	781b      	ldrb	r3, [r3, #0]
20006cb8:	0011      	movs	r1, r2
20006cba:	0018      	movs	r0, r3
20006cbc:	f7fe fd50 	bl	20005760 <dcd_edpt_clear_stall>
20006cc0:	193b      	adds	r3, r7, r4
20006cc2:	781a      	ldrb	r2, [r3, #0]
20006cc4:	197b      	adds	r3, r7, r5
20006cc6:	781b      	ldrb	r3, [r3, #0]
20006cc8:	490e      	ldr	r1, [pc, #56]	@ (20006d04 <usbd_edpt_clear_stall+0xc0>)
20006cca:	2030      	movs	r0, #48	@ 0x30
20006ccc:	0052      	lsls	r2, r2, #1
20006cce:	188a      	adds	r2, r1, r2
20006cd0:	18d3      	adds	r3, r2, r3
20006cd2:	181a      	adds	r2, r3, r0
20006cd4:	78d3      	ldrb	r3, [r2, #3]
20006cd6:	2102      	movs	r1, #2
20006cd8:	438b      	bics	r3, r1
20006cda:	70d3      	strb	r3, [r2, #3]
20006cdc:	193b      	adds	r3, r7, r4
20006cde:	781a      	ldrb	r2, [r3, #0]
20006ce0:	197b      	adds	r3, r7, r5
20006ce2:	781b      	ldrb	r3, [r3, #0]
20006ce4:	4907      	ldr	r1, [pc, #28]	@ (20006d04 <usbd_edpt_clear_stall+0xc0>)
20006ce6:	2030      	movs	r0, #48	@ 0x30
20006ce8:	0052      	lsls	r2, r2, #1
20006cea:	188a      	adds	r2, r1, r2
20006cec:	18d3      	adds	r3, r2, r3
20006cee:	181a      	adds	r2, r3, r0
20006cf0:	78d3      	ldrb	r3, [r2, #3]
20006cf2:	2101      	movs	r1, #1
20006cf4:	438b      	bics	r3, r1
20006cf6:	70d3      	strb	r3, [r2, #3]
20006cf8:	46c0      	nop			@ (mov r8, r8)
20006cfa:	46bd      	mov	sp, r7
20006cfc:	b004      	add	sp, #16
20006cfe:	bdb0      	pop	{r4, r5, r7, pc}
20006d00:	2000b180 	.word	0x2000b180
20006d04:	2000b5f8 	.word	0x2000b5f8

20006d08 <usbd_edpt_stalled>:
20006d08:	b580      	push	{r7, lr}
20006d0a:	b084      	sub	sp, #16
20006d0c:	af00      	add	r7, sp, #0
20006d0e:	0002      	movs	r2, r0
20006d10:	1dfb      	adds	r3, r7, #7
20006d12:	701a      	strb	r2, [r3, #0]
20006d14:	1dbb      	adds	r3, r7, #6
20006d16:	1c0a      	adds	r2, r1, #0
20006d18:	701a      	strb	r2, [r3, #0]
20006d1a:	210c      	movs	r1, #12
20006d1c:	187b      	adds	r3, r7, r1
20006d1e:	1dba      	adds	r2, r7, #6
20006d20:	7812      	ldrb	r2, [r2, #0]
20006d22:	701a      	strb	r2, [r3, #0]
20006d24:	187b      	adds	r3, r7, r1
20006d26:	781b      	ldrb	r3, [r3, #0]
20006d28:	227f      	movs	r2, #127	@ 0x7f
20006d2a:	4013      	ands	r3, r2
20006d2c:	b2da      	uxtb	r2, r3
20006d2e:	210f      	movs	r1, #15
20006d30:	187b      	adds	r3, r7, r1
20006d32:	701a      	strb	r2, [r3, #0]
20006d34:	200d      	movs	r0, #13
20006d36:	183b      	adds	r3, r7, r0
20006d38:	1dba      	adds	r2, r7, #6
20006d3a:	7812      	ldrb	r2, [r2, #0]
20006d3c:	701a      	strb	r2, [r3, #0]
20006d3e:	183b      	adds	r3, r7, r0
20006d40:	781b      	ldrb	r3, [r3, #0]
20006d42:	09db      	lsrs	r3, r3, #7
20006d44:	b2da      	uxtb	r2, r3
20006d46:	200e      	movs	r0, #14
20006d48:	183b      	adds	r3, r7, r0
20006d4a:	701a      	strb	r2, [r3, #0]
20006d4c:	187b      	adds	r3, r7, r1
20006d4e:	781a      	ldrb	r2, [r3, #0]
20006d50:	183b      	adds	r3, r7, r0
20006d52:	781b      	ldrb	r3, [r3, #0]
20006d54:	4908      	ldr	r1, [pc, #32]	@ (20006d78 <usbd_edpt_stalled+0x70>)
20006d56:	2030      	movs	r0, #48	@ 0x30
20006d58:	0052      	lsls	r2, r2, #1
20006d5a:	188a      	adds	r2, r1, r2
20006d5c:	18d3      	adds	r3, r2, r3
20006d5e:	181b      	adds	r3, r3, r0
20006d60:	78db      	ldrb	r3, [r3, #3]
20006d62:	079b      	lsls	r3, r3, #30
20006d64:	0fdb      	lsrs	r3, r3, #31
20006d66:	b2db      	uxtb	r3, r3
20006d68:	1e5a      	subs	r2, r3, #1
20006d6a:	4193      	sbcs	r3, r2
20006d6c:	b2db      	uxtb	r3, r3
20006d6e:	0018      	movs	r0, r3
20006d70:	46bd      	mov	sp, r7
20006d72:	b004      	add	sp, #16
20006d74:	bd80      	pop	{r7, pc}
20006d76:	46c0      	nop			@ (mov r8, r8)
20006d78:	2000b5f8 	.word	0x2000b5f8

20006d7c <_status_stage_xact>:
20006d7c:	b580      	push	{r7, lr}
20006d7e:	b084      	sub	sp, #16
20006d80:	af00      	add	r7, sp, #0
20006d82:	0002      	movs	r2, r0
20006d84:	6039      	str	r1, [r7, #0]
20006d86:	1dfb      	adds	r3, r7, #7
20006d88:	701a      	strb	r2, [r3, #0]
20006d8a:	683b      	ldr	r3, [r7, #0]
20006d8c:	781b      	ldrb	r3, [r3, #0]
20006d8e:	227f      	movs	r2, #127	@ 0x7f
20006d90:	4393      	bics	r3, r2
20006d92:	b2db      	uxtb	r3, r3
20006d94:	2b00      	cmp	r3, #0
20006d96:	d001      	beq.n	20006d9c <_status_stage_xact+0x20>
20006d98:	2200      	movs	r2, #0
20006d9a:	e000      	b.n	20006d9e <_status_stage_xact+0x22>
20006d9c:	2280      	movs	r2, #128	@ 0x80
20006d9e:	210f      	movs	r1, #15
20006da0:	187b      	adds	r3, r7, r1
20006da2:	701a      	strb	r2, [r3, #0]
20006da4:	187b      	adds	r3, r7, r1
20006da6:	7819      	ldrb	r1, [r3, #0]
20006da8:	1dfb      	adds	r3, r7, #7
20006daa:	7818      	ldrb	r0, [r3, #0]
20006dac:	2300      	movs	r3, #0
20006dae:	2200      	movs	r2, #0
20006db0:	f7ff fe62 	bl	20006a78 <usbd_edpt_xfer>
20006db4:	0003      	movs	r3, r0
20006db6:	0018      	movs	r0, r3
20006db8:	46bd      	mov	sp, r7
20006dba:	b004      	add	sp, #16
20006dbc:	bd80      	pop	{r7, pc}
	...

20006dc0 <tud_control_status>:
20006dc0:	b580      	push	{r7, lr}
20006dc2:	b082      	sub	sp, #8
20006dc4:	af00      	add	r7, sp, #0
20006dc6:	0002      	movs	r2, r0
20006dc8:	6039      	str	r1, [r7, #0]
20006dca:	1dfb      	adds	r3, r7, #7
20006dcc:	701a      	strb	r2, [r3, #0]
20006dce:	4a0e      	ldr	r2, [pc, #56]	@ (20006e08 <tud_control_status+0x48>)
20006dd0:	683b      	ldr	r3, [r7, #0]
20006dd2:	0010      	movs	r0, r2
20006dd4:	0019      	movs	r1, r3
20006dd6:	2308      	movs	r3, #8
20006dd8:	001a      	movs	r2, r3
20006dda:	f7fd fa4b 	bl	20004274 <__wrap___aeabi_memcpy>
20006dde:	4b0a      	ldr	r3, [pc, #40]	@ (20006e08 <tud_control_status+0x48>)
20006de0:	2200      	movs	r2, #0
20006de2:	609a      	str	r2, [r3, #8]
20006de4:	4b08      	ldr	r3, [pc, #32]	@ (20006e08 <tud_control_status+0x48>)
20006de6:	2200      	movs	r2, #0
20006de8:	81da      	strh	r2, [r3, #14]
20006dea:	4b07      	ldr	r3, [pc, #28]	@ (20006e08 <tud_control_status+0x48>)
20006dec:	2200      	movs	r2, #0
20006dee:	819a      	strh	r2, [r3, #12]
20006df0:	683a      	ldr	r2, [r7, #0]
20006df2:	1dfb      	adds	r3, r7, #7
20006df4:	781b      	ldrb	r3, [r3, #0]
20006df6:	0011      	movs	r1, r2
20006df8:	0018      	movs	r0, r3
20006dfa:	f7ff ffbf 	bl	20006d7c <_status_stage_xact>
20006dfe:	0003      	movs	r3, r0
20006e00:	0018      	movs	r0, r3
20006e02:	46bd      	mov	sp, r7
20006e04:	b002      	add	sp, #8
20006e06:	bd80      	pop	{r7, pc}
20006e08:	2000b59c 	.word	0x2000b59c

20006e0c <_data_stage_xact>:
20006e0c:	b590      	push	{r4, r7, lr}
20006e0e:	b085      	sub	sp, #20
20006e10:	af00      	add	r7, sp, #0
20006e12:	0002      	movs	r2, r0
20006e14:	1dfb      	adds	r3, r7, #7
20006e16:	701a      	strb	r2, [r3, #0]
20006e18:	4b26      	ldr	r3, [pc, #152]	@ (20006eb4 <_data_stage_xact+0xa8>)
20006e1a:	899a      	ldrh	r2, [r3, #12]
20006e1c:	4b25      	ldr	r3, [pc, #148]	@ (20006eb4 <_data_stage_xact+0xa8>)
20006e1e:	89db      	ldrh	r3, [r3, #14]
20006e20:	1ad3      	subs	r3, r2, r3
20006e22:	b29a      	uxth	r2, r3
20006e24:	210a      	movs	r1, #10
20006e26:	187b      	adds	r3, r7, r1
20006e28:	801a      	strh	r2, [r3, #0]
20006e2a:	2008      	movs	r0, #8
20006e2c:	183b      	adds	r3, r7, r0
20006e2e:	2240      	movs	r2, #64	@ 0x40
20006e30:	801a      	strh	r2, [r3, #0]
20006e32:	187b      	adds	r3, r7, r1
20006e34:	183a      	adds	r2, r7, r0
20006e36:	8810      	ldrh	r0, [r2, #0]
20006e38:	881b      	ldrh	r3, [r3, #0]
20006e3a:	b299      	uxth	r1, r3
20006e3c:	b282      	uxth	r2, r0
20006e3e:	4291      	cmp	r1, r2
20006e40:	d900      	bls.n	20006e44 <_data_stage_xact+0x38>
20006e42:	1c03      	adds	r3, r0, #0
20006e44:	b29a      	uxth	r2, r3
20006e46:	210c      	movs	r1, #12
20006e48:	187b      	adds	r3, r7, r1
20006e4a:	801a      	strh	r2, [r3, #0]
20006e4c:	200f      	movs	r0, #15
20006e4e:	183b      	adds	r3, r7, r0
20006e50:	2200      	movs	r2, #0
20006e52:	701a      	strb	r2, [r3, #0]
20006e54:	4b17      	ldr	r3, [pc, #92]	@ (20006eb4 <_data_stage_xact+0xa8>)
20006e56:	781b      	ldrb	r3, [r3, #0]
20006e58:	227f      	movs	r2, #127	@ 0x7f
20006e5a:	4393      	bics	r3, r2
20006e5c:	b2db      	uxtb	r3, r3
20006e5e:	2b00      	cmp	r3, #0
20006e60:	d00f      	beq.n	20006e82 <_data_stage_xact+0x76>
20006e62:	183b      	adds	r3, r7, r0
20006e64:	2280      	movs	r2, #128	@ 0x80
20006e66:	701a      	strb	r2, [r3, #0]
20006e68:	000a      	movs	r2, r1
20006e6a:	18bb      	adds	r3, r7, r2
20006e6c:	881b      	ldrh	r3, [r3, #0]
20006e6e:	2b00      	cmp	r3, #0
20006e70:	d007      	beq.n	20006e82 <_data_stage_xact+0x76>
20006e72:	4b10      	ldr	r3, [pc, #64]	@ (20006eb4 <_data_stage_xact+0xa8>)
20006e74:	6899      	ldr	r1, [r3, #8]
20006e76:	18bb      	adds	r3, r7, r2
20006e78:	881a      	ldrh	r2, [r3, #0]
20006e7a:	4b0f      	ldr	r3, [pc, #60]	@ (20006eb8 <_data_stage_xact+0xac>)
20006e7c:	0018      	movs	r0, r3
20006e7e:	f7fd f9f9 	bl	20004274 <__wrap___aeabi_memcpy>
20006e82:	230c      	movs	r3, #12
20006e84:	18fb      	adds	r3, r7, r3
20006e86:	881b      	ldrh	r3, [r3, #0]
20006e88:	2b00      	cmp	r3, #0
20006e8a:	d001      	beq.n	20006e90 <_data_stage_xact+0x84>
20006e8c:	4a0a      	ldr	r2, [pc, #40]	@ (20006eb8 <_data_stage_xact+0xac>)
20006e8e:	e000      	b.n	20006e92 <_data_stage_xact+0x86>
20006e90:	2200      	movs	r2, #0
20006e92:	230c      	movs	r3, #12
20006e94:	18fb      	adds	r3, r7, r3
20006e96:	881c      	ldrh	r4, [r3, #0]
20006e98:	230f      	movs	r3, #15
20006e9a:	18fb      	adds	r3, r7, r3
20006e9c:	7819      	ldrb	r1, [r3, #0]
20006e9e:	1dfb      	adds	r3, r7, #7
20006ea0:	7818      	ldrb	r0, [r3, #0]
20006ea2:	0023      	movs	r3, r4
20006ea4:	f7ff fde8 	bl	20006a78 <usbd_edpt_xfer>
20006ea8:	0003      	movs	r3, r0
20006eaa:	0018      	movs	r0, r3
20006eac:	46bd      	mov	sp, r7
20006eae:	b005      	add	sp, #20
20006eb0:	bd90      	pop	{r4, r7, pc}
20006eb2:	46c0      	nop			@ (mov r8, r8)
20006eb4:	2000b59c 	.word	0x2000b59c
20006eb8:	2000b5b8 	.word	0x2000b5b8

20006ebc <tud_control_xfer>:
20006ebc:	b590      	push	{r4, r7, lr}
20006ebe:	b087      	sub	sp, #28
20006ec0:	af00      	add	r7, sp, #0
20006ec2:	60b9      	str	r1, [r7, #8]
20006ec4:	607a      	str	r2, [r7, #4]
20006ec6:	0019      	movs	r1, r3
20006ec8:	230f      	movs	r3, #15
20006eca:	18fb      	adds	r3, r7, r3
20006ecc:	1c02      	adds	r2, r0, #0
20006ece:	701a      	strb	r2, [r3, #0]
20006ed0:	240c      	movs	r4, #12
20006ed2:	193b      	adds	r3, r7, r4
20006ed4:	1c0a      	adds	r2, r1, #0
20006ed6:	801a      	strh	r2, [r3, #0]
20006ed8:	4a2f      	ldr	r2, [pc, #188]	@ (20006f98 <tud_control_xfer+0xdc>)
20006eda:	68bb      	ldr	r3, [r7, #8]
20006edc:	0010      	movs	r0, r2
20006ede:	0019      	movs	r1, r3
20006ee0:	2308      	movs	r3, #8
20006ee2:	001a      	movs	r2, r3
20006ee4:	f7fd f9c6 	bl	20004274 <__wrap___aeabi_memcpy>
20006ee8:	4b2b      	ldr	r3, [pc, #172]	@ (20006f98 <tud_control_xfer+0xdc>)
20006eea:	687a      	ldr	r2, [r7, #4]
20006eec:	609a      	str	r2, [r3, #8]
20006eee:	4b2a      	ldr	r3, [pc, #168]	@ (20006f98 <tud_control_xfer+0xdc>)
20006ef0:	2200      	movs	r2, #0
20006ef2:	81da      	strh	r2, [r3, #14]
20006ef4:	68bb      	ldr	r3, [r7, #8]
20006ef6:	799a      	ldrb	r2, [r3, #6]
20006ef8:	79db      	ldrb	r3, [r3, #7]
20006efa:	021b      	lsls	r3, r3, #8
20006efc:	4313      	orrs	r3, r2
20006efe:	b299      	uxth	r1, r3
20006f00:	2016      	movs	r0, #22
20006f02:	183b      	adds	r3, r7, r0
20006f04:	193a      	adds	r2, r7, r4
20006f06:	8812      	ldrh	r2, [r2, #0]
20006f08:	801a      	strh	r2, [r3, #0]
20006f0a:	2414      	movs	r4, #20
20006f0c:	193b      	adds	r3, r7, r4
20006f0e:	1c0a      	adds	r2, r1, #0
20006f10:	801a      	strh	r2, [r3, #0]
20006f12:	183b      	adds	r3, r7, r0
20006f14:	193a      	adds	r2, r7, r4
20006f16:	8810      	ldrh	r0, [r2, #0]
20006f18:	881b      	ldrh	r3, [r3, #0]
20006f1a:	b299      	uxth	r1, r3
20006f1c:	b282      	uxth	r2, r0
20006f1e:	4291      	cmp	r1, r2
20006f20:	d900      	bls.n	20006f24 <tud_control_xfer+0x68>
20006f22:	1c03      	adds	r3, r0, #0
20006f24:	b29a      	uxth	r2, r3
20006f26:	4b1c      	ldr	r3, [pc, #112]	@ (20006f98 <tud_control_xfer+0xdc>)
20006f28:	819a      	strh	r2, [r3, #12]
20006f2a:	68bb      	ldr	r3, [r7, #8]
20006f2c:	799a      	ldrb	r2, [r3, #6]
20006f2e:	79db      	ldrb	r3, [r3, #7]
20006f30:	021b      	lsls	r3, r3, #8
20006f32:	4313      	orrs	r3, r2
20006f34:	b29b      	uxth	r3, r3
20006f36:	2b00      	cmp	r3, #0
20006f38:	d017      	beq.n	20006f6a <tud_control_xfer+0xae>
20006f3a:	4b17      	ldr	r3, [pc, #92]	@ (20006f98 <tud_control_xfer+0xdc>)
20006f3c:	899b      	ldrh	r3, [r3, #12]
20006f3e:	2b00      	cmp	r3, #0
20006f40:	d004      	beq.n	20006f4c <tud_control_xfer+0x90>
20006f42:	687b      	ldr	r3, [r7, #4]
20006f44:	2b00      	cmp	r3, #0
20006f46:	d101      	bne.n	20006f4c <tud_control_xfer+0x90>
20006f48:	2300      	movs	r3, #0
20006f4a:	e020      	b.n	20006f8e <tud_control_xfer+0xd2>
20006f4c:	230f      	movs	r3, #15
20006f4e:	18fb      	adds	r3, r7, r3
20006f50:	781b      	ldrb	r3, [r3, #0]
20006f52:	0018      	movs	r0, r3
20006f54:	f7ff ff5a 	bl	20006e0c <_data_stage_xact>
20006f58:	0003      	movs	r3, r0
20006f5a:	001a      	movs	r2, r3
20006f5c:	2301      	movs	r3, #1
20006f5e:	4053      	eors	r3, r2
20006f60:	b2db      	uxtb	r3, r3
20006f62:	2b00      	cmp	r3, #0
20006f64:	d012      	beq.n	20006f8c <tud_control_xfer+0xd0>
20006f66:	2300      	movs	r3, #0
20006f68:	e011      	b.n	20006f8e <tud_control_xfer+0xd2>
20006f6a:	68ba      	ldr	r2, [r7, #8]
20006f6c:	230f      	movs	r3, #15
20006f6e:	18fb      	adds	r3, r7, r3
20006f70:	781b      	ldrb	r3, [r3, #0]
20006f72:	0011      	movs	r1, r2
20006f74:	0018      	movs	r0, r3
20006f76:	f7ff ff01 	bl	20006d7c <_status_stage_xact>
20006f7a:	0003      	movs	r3, r0
20006f7c:	001a      	movs	r2, r3
20006f7e:	2301      	movs	r3, #1
20006f80:	4053      	eors	r3, r2
20006f82:	b2db      	uxtb	r3, r3
20006f84:	2b00      	cmp	r3, #0
20006f86:	d001      	beq.n	20006f8c <tud_control_xfer+0xd0>
20006f88:	2300      	movs	r3, #0
20006f8a:	e000      	b.n	20006f8e <tud_control_xfer+0xd2>
20006f8c:	2301      	movs	r3, #1
20006f8e:	0018      	movs	r0, r3
20006f90:	46bd      	mov	sp, r7
20006f92:	b007      	add	sp, #28
20006f94:	bd90      	pop	{r4, r7, pc}
20006f96:	46c0      	nop			@ (mov r8, r8)
20006f98:	2000b59c 	.word	0x2000b59c

20006f9c <usbd_control_reset>:
20006f9c:	b580      	push	{r7, lr}
20006f9e:	af00      	add	r7, sp, #0
20006fa0:	4b04      	ldr	r3, [pc, #16]	@ (20006fb4 <usbd_control_reset+0x18>)
20006fa2:	2214      	movs	r2, #20
20006fa4:	2100      	movs	r1, #0
20006fa6:	0018      	movs	r0, r3
20006fa8:	f7fd f95e 	bl	20004268 <__wrap_memset>
20006fac:	46c0      	nop			@ (mov r8, r8)
20006fae:	46bd      	mov	sp, r7
20006fb0:	bd80      	pop	{r7, pc}
20006fb2:	46c0      	nop			@ (mov r8, r8)
20006fb4:	2000b59c 	.word	0x2000b59c

20006fb8 <usbd_control_set_complete_callback>:
20006fb8:	b580      	push	{r7, lr}
20006fba:	b082      	sub	sp, #8
20006fbc:	af00      	add	r7, sp, #0
20006fbe:	6078      	str	r0, [r7, #4]
20006fc0:	4b03      	ldr	r3, [pc, #12]	@ (20006fd0 <usbd_control_set_complete_callback+0x18>)
20006fc2:	687a      	ldr	r2, [r7, #4]
20006fc4:	611a      	str	r2, [r3, #16]
20006fc6:	46c0      	nop			@ (mov r8, r8)
20006fc8:	46bd      	mov	sp, r7
20006fca:	b002      	add	sp, #8
20006fcc:	bd80      	pop	{r7, pc}
20006fce:	46c0      	nop			@ (mov r8, r8)
20006fd0:	2000b59c 	.word	0x2000b59c

20006fd4 <usbd_control_set_request>:
20006fd4:	b580      	push	{r7, lr}
20006fd6:	b082      	sub	sp, #8
20006fd8:	af00      	add	r7, sp, #0
20006fda:	6078      	str	r0, [r7, #4]
20006fdc:	4a0a      	ldr	r2, [pc, #40]	@ (20007008 <usbd_control_set_request+0x34>)
20006fde:	687b      	ldr	r3, [r7, #4]
20006fe0:	0010      	movs	r0, r2
20006fe2:	0019      	movs	r1, r3
20006fe4:	2308      	movs	r3, #8
20006fe6:	001a      	movs	r2, r3
20006fe8:	f7fd f944 	bl	20004274 <__wrap___aeabi_memcpy>
20006fec:	4b06      	ldr	r3, [pc, #24]	@ (20007008 <usbd_control_set_request+0x34>)
20006fee:	2200      	movs	r2, #0
20006ff0:	609a      	str	r2, [r3, #8]
20006ff2:	4b05      	ldr	r3, [pc, #20]	@ (20007008 <usbd_control_set_request+0x34>)
20006ff4:	2200      	movs	r2, #0
20006ff6:	81da      	strh	r2, [r3, #14]
20006ff8:	4b03      	ldr	r3, [pc, #12]	@ (20007008 <usbd_control_set_request+0x34>)
20006ffa:	2200      	movs	r2, #0
20006ffc:	819a      	strh	r2, [r3, #12]
20006ffe:	46c0      	nop			@ (mov r8, r8)
20007000:	46bd      	mov	sp, r7
20007002:	b002      	add	sp, #8
20007004:	bd80      	pop	{r7, pc}
20007006:	46c0      	nop			@ (mov r8, r8)
20007008:	2000b59c 	.word	0x2000b59c

2000700c <usbd_control_xfer_cb>:
2000700c:	b590      	push	{r4, r7, lr}
2000700e:	b085      	sub	sp, #20
20007010:	af00      	add	r7, sp, #0
20007012:	0004      	movs	r4, r0
20007014:	0008      	movs	r0, r1
20007016:	0011      	movs	r1, r2
20007018:	603b      	str	r3, [r7, #0]
2000701a:	1dfb      	adds	r3, r7, #7
2000701c:	1c22      	adds	r2, r4, #0
2000701e:	701a      	strb	r2, [r3, #0]
20007020:	1dbb      	adds	r3, r7, #6
20007022:	1c02      	adds	r2, r0, #0
20007024:	701a      	strb	r2, [r3, #0]
20007026:	1d7b      	adds	r3, r7, #5
20007028:	1c0a      	adds	r2, r1, #0
2000702a:	701a      	strb	r2, [r3, #0]
2000702c:	210e      	movs	r1, #14
2000702e:	187b      	adds	r3, r7, r1
20007030:	1dba      	adds	r2, r7, #6
20007032:	7812      	ldrb	r2, [r2, #0]
20007034:	701a      	strb	r2, [r3, #0]
20007036:	187b      	adds	r3, r7, r1
20007038:	781b      	ldrb	r3, [r3, #0]
2000703a:	09db      	lsrs	r3, r3, #7
2000703c:	b2db      	uxtb	r3, r3
2000703e:	4a4c      	ldr	r2, [pc, #304]	@ (20007170 <usbd_control_xfer_cb+0x164>)
20007040:	7812      	ldrb	r2, [r2, #0]
20007042:	0612      	lsls	r2, r2, #24
20007044:	0fd2      	lsrs	r2, r2, #31
20007046:	b2d2      	uxtb	r2, r2
20007048:	4293      	cmp	r3, r2
2000704a:	d01c      	beq.n	20007086 <usbd_control_xfer_cb+0x7a>
2000704c:	683b      	ldr	r3, [r7, #0]
2000704e:	2b00      	cmp	r3, #0
20007050:	d001      	beq.n	20007056 <usbd_control_xfer_cb+0x4a>
20007052:	2300      	movs	r3, #0
20007054:	e087      	b.n	20007166 <usbd_control_xfer_cb+0x15a>
20007056:	4b47      	ldr	r3, [pc, #284]	@ (20007174 <usbd_control_xfer_cb+0x168>)
20007058:	2b00      	cmp	r3, #0
2000705a:	d006      	beq.n	2000706a <usbd_control_xfer_cb+0x5e>
2000705c:	4a44      	ldr	r2, [pc, #272]	@ (20007170 <usbd_control_xfer_cb+0x164>)
2000705e:	1dfb      	adds	r3, r7, #7
20007060:	781b      	ldrb	r3, [r3, #0]
20007062:	0011      	movs	r1, r2
20007064:	0018      	movs	r0, r3
20007066:	f7fe facb 	bl	20005600 <dcd_edpt0_status_complete>
2000706a:	4b41      	ldr	r3, [pc, #260]	@ (20007170 <usbd_control_xfer_cb+0x164>)
2000706c:	691b      	ldr	r3, [r3, #16]
2000706e:	2b00      	cmp	r3, #0
20007070:	d007      	beq.n	20007082 <usbd_control_xfer_cb+0x76>
20007072:	4b3f      	ldr	r3, [pc, #252]	@ (20007170 <usbd_control_xfer_cb+0x164>)
20007074:	691b      	ldr	r3, [r3, #16]
20007076:	493e      	ldr	r1, [pc, #248]	@ (20007170 <usbd_control_xfer_cb+0x164>)
20007078:	1dfa      	adds	r2, r7, #7
2000707a:	7810      	ldrb	r0, [r2, #0]
2000707c:	000a      	movs	r2, r1
2000707e:	2103      	movs	r1, #3
20007080:	4798      	blx	r3
20007082:	2301      	movs	r3, #1
20007084:	e06f      	b.n	20007166 <usbd_control_xfer_cb+0x15a>
20007086:	4b3a      	ldr	r3, [pc, #232]	@ (20007170 <usbd_control_xfer_cb+0x164>)
20007088:	781b      	ldrb	r3, [r3, #0]
2000708a:	227f      	movs	r2, #127	@ 0x7f
2000708c:	4393      	bics	r3, r2
2000708e:	b2db      	uxtb	r3, r3
20007090:	2b00      	cmp	r3, #0
20007092:	d10c      	bne.n	200070ae <usbd_control_xfer_cb+0xa2>
20007094:	4b36      	ldr	r3, [pc, #216]	@ (20007170 <usbd_control_xfer_cb+0x164>)
20007096:	689b      	ldr	r3, [r3, #8]
20007098:	2b00      	cmp	r3, #0
2000709a:	d101      	bne.n	200070a0 <usbd_control_xfer_cb+0x94>
2000709c:	2300      	movs	r3, #0
2000709e:	e062      	b.n	20007166 <usbd_control_xfer_cb+0x15a>
200070a0:	4b33      	ldr	r3, [pc, #204]	@ (20007170 <usbd_control_xfer_cb+0x164>)
200070a2:	689b      	ldr	r3, [r3, #8]
200070a4:	683a      	ldr	r2, [r7, #0]
200070a6:	4934      	ldr	r1, [pc, #208]	@ (20007178 <usbd_control_xfer_cb+0x16c>)
200070a8:	0018      	movs	r0, r3
200070aa:	f7fd f8e3 	bl	20004274 <__wrap___aeabi_memcpy>
200070ae:	4b30      	ldr	r3, [pc, #192]	@ (20007170 <usbd_control_xfer_cb+0x164>)
200070b0:	89da      	ldrh	r2, [r3, #14]
200070b2:	683b      	ldr	r3, [r7, #0]
200070b4:	b29b      	uxth	r3, r3
200070b6:	18d3      	adds	r3, r2, r3
200070b8:	b29a      	uxth	r2, r3
200070ba:	4b2d      	ldr	r3, [pc, #180]	@ (20007170 <usbd_control_xfer_cb+0x164>)
200070bc:	81da      	strh	r2, [r3, #14]
200070be:	4b2c      	ldr	r3, [pc, #176]	@ (20007170 <usbd_control_xfer_cb+0x164>)
200070c0:	689a      	ldr	r2, [r3, #8]
200070c2:	683b      	ldr	r3, [r7, #0]
200070c4:	18d2      	adds	r2, r2, r3
200070c6:	4b2a      	ldr	r3, [pc, #168]	@ (20007170 <usbd_control_xfer_cb+0x164>)
200070c8:	609a      	str	r2, [r3, #8]
200070ca:	4b29      	ldr	r3, [pc, #164]	@ (20007170 <usbd_control_xfer_cb+0x164>)
200070cc:	88da      	ldrh	r2, [r3, #6]
200070ce:	4b28      	ldr	r3, [pc, #160]	@ (20007170 <usbd_control_xfer_cb+0x164>)
200070d0:	89db      	ldrh	r3, [r3, #14]
200070d2:	429a      	cmp	r2, r3
200070d4:	d002      	beq.n	200070dc <usbd_control_xfer_cb+0xd0>
200070d6:	683b      	ldr	r3, [r7, #0]
200070d8:	2b3f      	cmp	r3, #63	@ 0x3f
200070da:	d834      	bhi.n	20007146 <usbd_control_xfer_cb+0x13a>
200070dc:	210f      	movs	r1, #15
200070de:	187b      	adds	r3, r7, r1
200070e0:	2201      	movs	r2, #1
200070e2:	701a      	strb	r2, [r3, #0]
200070e4:	4b22      	ldr	r3, [pc, #136]	@ (20007170 <usbd_control_xfer_cb+0x164>)
200070e6:	691b      	ldr	r3, [r3, #16]
200070e8:	2b00      	cmp	r3, #0
200070ea:	d00a      	beq.n	20007102 <usbd_control_xfer_cb+0xf6>
200070ec:	4b20      	ldr	r3, [pc, #128]	@ (20007170 <usbd_control_xfer_cb+0x164>)
200070ee:	691b      	ldr	r3, [r3, #16]
200070f0:	187c      	adds	r4, r7, r1
200070f2:	491f      	ldr	r1, [pc, #124]	@ (20007170 <usbd_control_xfer_cb+0x164>)
200070f4:	1dfa      	adds	r2, r7, #7
200070f6:	7810      	ldrb	r0, [r2, #0]
200070f8:	000a      	movs	r2, r1
200070fa:	2102      	movs	r1, #2
200070fc:	4798      	blx	r3
200070fe:	0003      	movs	r3, r0
20007100:	7023      	strb	r3, [r4, #0]
20007102:	230f      	movs	r3, #15
20007104:	18fb      	adds	r3, r7, r3
20007106:	781b      	ldrb	r3, [r3, #0]
20007108:	2b00      	cmp	r3, #0
2000710a:	d00f      	beq.n	2000712c <usbd_control_xfer_cb+0x120>
2000710c:	4a18      	ldr	r2, [pc, #96]	@ (20007170 <usbd_control_xfer_cb+0x164>)
2000710e:	1dfb      	adds	r3, r7, #7
20007110:	781b      	ldrb	r3, [r3, #0]
20007112:	0011      	movs	r1, r2
20007114:	0018      	movs	r0, r3
20007116:	f7ff fe31 	bl	20006d7c <_status_stage_xact>
2000711a:	0003      	movs	r3, r0
2000711c:	001a      	movs	r2, r3
2000711e:	2301      	movs	r3, #1
20007120:	4053      	eors	r3, r2
20007122:	b2db      	uxtb	r3, r3
20007124:	2b00      	cmp	r3, #0
20007126:	d01c      	beq.n	20007162 <usbd_control_xfer_cb+0x156>
20007128:	2300      	movs	r3, #0
2000712a:	e01c      	b.n	20007166 <usbd_control_xfer_cb+0x15a>
2000712c:	1dfb      	adds	r3, r7, #7
2000712e:	781b      	ldrb	r3, [r3, #0]
20007130:	2100      	movs	r1, #0
20007132:	0018      	movs	r0, r3
20007134:	f7fe fad6 	bl	200056e4 <dcd_edpt_stall>
20007138:	1dfb      	adds	r3, r7, #7
2000713a:	781b      	ldrb	r3, [r3, #0]
2000713c:	2180      	movs	r1, #128	@ 0x80
2000713e:	0018      	movs	r0, r3
20007140:	f7fe fad0 	bl	200056e4 <dcd_edpt_stall>
20007144:	e00d      	b.n	20007162 <usbd_control_xfer_cb+0x156>
20007146:	1dfb      	adds	r3, r7, #7
20007148:	781b      	ldrb	r3, [r3, #0]
2000714a:	0018      	movs	r0, r3
2000714c:	f7ff fe5e 	bl	20006e0c <_data_stage_xact>
20007150:	0003      	movs	r3, r0
20007152:	001a      	movs	r2, r3
20007154:	2301      	movs	r3, #1
20007156:	4053      	eors	r3, r2
20007158:	b2db      	uxtb	r3, r3
2000715a:	2b00      	cmp	r3, #0
2000715c:	d002      	beq.n	20007164 <usbd_control_xfer_cb+0x158>
2000715e:	2300      	movs	r3, #0
20007160:	e001      	b.n	20007166 <usbd_control_xfer_cb+0x15a>
20007162:	46c0      	nop			@ (mov r8, r8)
20007164:	2301      	movs	r3, #1
20007166:	0018      	movs	r0, r3
20007168:	46bd      	mov	sp, r7
2000716a:	b005      	add	sp, #20
2000716c:	bd90      	pop	{r4, r7, pc}
2000716e:	46c0      	nop			@ (mov r8, r8)
20007170:	2000b59c 	.word	0x2000b59c
20007174:	20005601 	.word	0x20005601
20007178:	2000b5b8 	.word	0x2000b5b8

2000717c <_prep_out_transaction>:
2000717c:	b5b0      	push	{r4, r5, r7, lr}
2000717e:	b084      	sub	sp, #16
20007180:	af00      	add	r7, sp, #0
20007182:	6078      	str	r0, [r7, #4]
20007184:	230f      	movs	r3, #15
20007186:	18fb      	adds	r3, r7, r3
20007188:	2200      	movs	r2, #0
2000718a:	701a      	strb	r2, [r3, #0]
2000718c:	687b      	ldr	r3, [r7, #4]
2000718e:	3310      	adds	r3, #16
20007190:	250c      	movs	r5, #12
20007192:	197c      	adds	r4, r7, r5
20007194:	0018      	movs	r0, r3
20007196:	f001 fe4a 	bl	20008e2e <tu_fifo_remaining>
2000719a:	0003      	movs	r3, r0
2000719c:	8023      	strh	r3, [r4, #0]
2000719e:	197b      	adds	r3, r7, r5
200071a0:	881b      	ldrh	r3, [r3, #0]
200071a2:	2b3f      	cmp	r3, #63	@ 0x3f
200071a4:	d801      	bhi.n	200071aa <_prep_out_transaction+0x2e>
200071a6:	2300      	movs	r3, #0
200071a8:	e036      	b.n	20007218 <_prep_out_transaction+0x9c>
200071aa:	687b      	ldr	r3, [r7, #4]
200071ac:	78da      	ldrb	r2, [r3, #3]
200071ae:	230f      	movs	r3, #15
200071b0:	18fb      	adds	r3, r7, r3
200071b2:	781b      	ldrb	r3, [r3, #0]
200071b4:	0011      	movs	r1, r2
200071b6:	0018      	movs	r0, r3
200071b8:	f7ff fbe2 	bl	20006980 <usbd_edpt_claim>
200071bc:	0003      	movs	r3, r0
200071be:	001a      	movs	r2, r3
200071c0:	2301      	movs	r3, #1
200071c2:	4053      	eors	r3, r2
200071c4:	b2db      	uxtb	r3, r3
200071c6:	2b00      	cmp	r3, #0
200071c8:	d001      	beq.n	200071ce <_prep_out_transaction+0x52>
200071ca:	2300      	movs	r3, #0
200071cc:	e024      	b.n	20007218 <_prep_out_transaction+0x9c>
200071ce:	687b      	ldr	r3, [r7, #4]
200071d0:	3310      	adds	r3, #16
200071d2:	250c      	movs	r5, #12
200071d4:	197c      	adds	r4, r7, r5
200071d6:	0018      	movs	r0, r3
200071d8:	f001 fe29 	bl	20008e2e <tu_fifo_remaining>
200071dc:	0003      	movs	r3, r0
200071de:	8023      	strh	r3, [r4, #0]
200071e0:	197b      	adds	r3, r7, r5
200071e2:	881b      	ldrh	r3, [r3, #0]
200071e4:	2b3f      	cmp	r3, #63	@ 0x3f
200071e6:	d90d      	bls.n	20007204 <_prep_out_transaction+0x88>
200071e8:	687b      	ldr	r3, [r7, #4]
200071ea:	78d9      	ldrb	r1, [r3, #3]
200071ec:	687b      	ldr	r3, [r7, #4]
200071ee:	2292      	movs	r2, #146	@ 0x92
200071f0:	0092      	lsls	r2, r2, #2
200071f2:	189a      	adds	r2, r3, r2
200071f4:	230f      	movs	r3, #15
200071f6:	18fb      	adds	r3, r7, r3
200071f8:	7818      	ldrb	r0, [r3, #0]
200071fa:	2340      	movs	r3, #64	@ 0x40
200071fc:	f7ff fc3c 	bl	20006a78 <usbd_edpt_xfer>
20007200:	0003      	movs	r3, r0
20007202:	e009      	b.n	20007218 <_prep_out_transaction+0x9c>
20007204:	687b      	ldr	r3, [r7, #4]
20007206:	78da      	ldrb	r2, [r3, #3]
20007208:	230f      	movs	r3, #15
2000720a:	18fb      	adds	r3, r7, r3
2000720c:	781b      	ldrb	r3, [r3, #0]
2000720e:	0011      	movs	r1, r2
20007210:	0018      	movs	r0, r3
20007212:	f7ff fbf3 	bl	200069fc <usbd_edpt_release>
20007216:	2300      	movs	r3, #0
20007218:	0018      	movs	r0, r3
2000721a:	46bd      	mov	sp, r7
2000721c:	b004      	add	sp, #16
2000721e:	bdb0      	pop	{r4, r5, r7, pc}

20007220 <tud_cdc_n_connected>:
20007220:	b580      	push	{r7, lr}
20007222:	b084      	sub	sp, #16
20007224:	af00      	add	r7, sp, #0
20007226:	0002      	movs	r2, r0
20007228:	1dfb      	adds	r3, r7, #7
2000722a:	701a      	strb	r2, [r3, #0]
2000722c:	f7fe fbec 	bl	20005a08 <tud_mounted>
20007230:	1e03      	subs	r3, r0, #0
20007232:	d00a      	beq.n	2000724a <tud_cdc_n_connected+0x2a>
20007234:	f7fe fbf6 	bl	20005a24 <tud_suspended>
20007238:	0003      	movs	r3, r0
2000723a:	001a      	movs	r2, r3
2000723c:	2301      	movs	r3, #1
2000723e:	4053      	eors	r3, r2
20007240:	b2db      	uxtb	r3, r3
20007242:	2b00      	cmp	r3, #0
20007244:	d001      	beq.n	2000724a <tud_cdc_n_connected+0x2a>
20007246:	2301      	movs	r3, #1
20007248:	e000      	b.n	2000724c <tud_cdc_n_connected+0x2c>
2000724a:	2300      	movs	r3, #0
2000724c:	1c1a      	adds	r2, r3, #0
2000724e:	2301      	movs	r3, #1
20007250:	4013      	ands	r3, r2
20007252:	b2db      	uxtb	r3, r3
20007254:	2b00      	cmp	r3, #0
20007256:	d01c      	beq.n	20007292 <tud_cdc_n_connected+0x72>
20007258:	1dfb      	adds	r3, r7, #7
2000725a:	781b      	ldrb	r3, [r3, #0]
2000725c:	4a11      	ldr	r2, [pc, #68]	@ (200072a4 <tud_cdc_n_connected+0x84>)
2000725e:	21b2      	movs	r1, #178	@ 0xb2
20007260:	0089      	lsls	r1, r1, #2
20007262:	434b      	muls	r3, r1
20007264:	18d3      	adds	r3, r2, r3
20007266:	3304      	adds	r3, #4
20007268:	781b      	ldrb	r3, [r3, #0]
2000726a:	60fb      	str	r3, [r7, #12]
2000726c:	210b      	movs	r1, #11
2000726e:	187b      	adds	r3, r7, r1
20007270:	2200      	movs	r2, #0
20007272:	701a      	strb	r2, [r3, #0]
20007274:	187b      	adds	r3, r7, r1
20007276:	781b      	ldrb	r3, [r3, #0]
20007278:	68fa      	ldr	r2, [r7, #12]
2000727a:	40da      	lsrs	r2, r3
2000727c:	0013      	movs	r3, r2
2000727e:	001a      	movs	r2, r3
20007280:	2301      	movs	r3, #1
20007282:	4013      	ands	r3, r2
20007284:	1e5a      	subs	r2, r3, #1
20007286:	4193      	sbcs	r3, r2
20007288:	b2db      	uxtb	r3, r3
2000728a:	2b00      	cmp	r3, #0
2000728c:	d001      	beq.n	20007292 <tud_cdc_n_connected+0x72>
2000728e:	2301      	movs	r3, #1
20007290:	e000      	b.n	20007294 <tud_cdc_n_connected+0x74>
20007292:	2300      	movs	r3, #0
20007294:	1c1a      	adds	r2, r3, #0
20007296:	2301      	movs	r3, #1
20007298:	4013      	ands	r3, r2
2000729a:	b2db      	uxtb	r3, r3
2000729c:	0018      	movs	r0, r3
2000729e:	46bd      	mov	sp, r7
200072a0:	b004      	add	sp, #16
200072a2:	bd80      	pop	{r7, pc}
200072a4:	2000b2d4 	.word	0x2000b2d4

200072a8 <tud_cdc_n_available>:
200072a8:	b580      	push	{r7, lr}
200072aa:	b082      	sub	sp, #8
200072ac:	af00      	add	r7, sp, #0
200072ae:	0002      	movs	r2, r0
200072b0:	1dfb      	adds	r3, r7, #7
200072b2:	701a      	strb	r2, [r3, #0]
200072b4:	1dfb      	adds	r3, r7, #7
200072b6:	781b      	ldrb	r3, [r3, #0]
200072b8:	22b2      	movs	r2, #178	@ 0xb2
200072ba:	0092      	lsls	r2, r2, #2
200072bc:	4353      	muls	r3, r2
200072be:	3310      	adds	r3, #16
200072c0:	001a      	movs	r2, r3
200072c2:	4b05      	ldr	r3, [pc, #20]	@ (200072d8 <tud_cdc_n_available+0x30>)
200072c4:	18d3      	adds	r3, r2, r3
200072c6:	0018      	movs	r0, r3
200072c8:	f001 fd17 	bl	20008cfa <tu_fifo_count>
200072cc:	0003      	movs	r3, r0
200072ce:	0018      	movs	r0, r3
200072d0:	46bd      	mov	sp, r7
200072d2:	b002      	add	sp, #8
200072d4:	bd80      	pop	{r7, pc}
200072d6:	46c0      	nop			@ (mov r8, r8)
200072d8:	2000b2d4 	.word	0x2000b2d4

200072dc <tud_cdc_n_read>:
200072dc:	b580      	push	{r7, lr}
200072de:	b086      	sub	sp, #24
200072e0:	af00      	add	r7, sp, #0
200072e2:	60b9      	str	r1, [r7, #8]
200072e4:	607a      	str	r2, [r7, #4]
200072e6:	210f      	movs	r1, #15
200072e8:	187b      	adds	r3, r7, r1
200072ea:	1c02      	adds	r2, r0, #0
200072ec:	701a      	strb	r2, [r3, #0]
200072ee:	187b      	adds	r3, r7, r1
200072f0:	781b      	ldrb	r3, [r3, #0]
200072f2:	22b2      	movs	r2, #178	@ 0xb2
200072f4:	0092      	lsls	r2, r2, #2
200072f6:	435a      	muls	r2, r3
200072f8:	4b0a      	ldr	r3, [pc, #40]	@ (20007324 <tud_cdc_n_read+0x48>)
200072fa:	18d3      	adds	r3, r2, r3
200072fc:	617b      	str	r3, [r7, #20]
200072fe:	697b      	ldr	r3, [r7, #20]
20007300:	3310      	adds	r3, #16
20007302:	687a      	ldr	r2, [r7, #4]
20007304:	b292      	uxth	r2, r2
20007306:	68b9      	ldr	r1, [r7, #8]
20007308:	0018      	movs	r0, r3
2000730a:	f001 fe2e 	bl	20008f6a <tu_fifo_read_n>
2000730e:	0003      	movs	r3, r0
20007310:	613b      	str	r3, [r7, #16]
20007312:	697b      	ldr	r3, [r7, #20]
20007314:	0018      	movs	r0, r3
20007316:	f7ff ff31 	bl	2000717c <_prep_out_transaction>
2000731a:	693b      	ldr	r3, [r7, #16]
2000731c:	0018      	movs	r0, r3
2000731e:	46bd      	mov	sp, r7
20007320:	b006      	add	sp, #24
20007322:	bd80      	pop	{r7, pc}
20007324:	2000b2d4 	.word	0x2000b2d4

20007328 <tud_cdc_n_write>:
20007328:	b5b0      	push	{r4, r5, r7, lr}
2000732a:	b086      	sub	sp, #24
2000732c:	af00      	add	r7, sp, #0
2000732e:	60b9      	str	r1, [r7, #8]
20007330:	607a      	str	r2, [r7, #4]
20007332:	250f      	movs	r5, #15
20007334:	197b      	adds	r3, r7, r5
20007336:	1c02      	adds	r2, r0, #0
20007338:	701a      	strb	r2, [r3, #0]
2000733a:	197b      	adds	r3, r7, r5
2000733c:	781b      	ldrb	r3, [r3, #0]
2000733e:	22b2      	movs	r2, #178	@ 0xb2
20007340:	0092      	lsls	r2, r2, #2
20007342:	435a      	muls	r2, r3
20007344:	4b11      	ldr	r3, [pc, #68]	@ (2000738c <tud_cdc_n_write+0x64>)
20007346:	18d3      	adds	r3, r2, r3
20007348:	617b      	str	r3, [r7, #20]
2000734a:	697b      	ldr	r3, [r7, #20]
2000734c:	3324      	adds	r3, #36	@ 0x24
2000734e:	687a      	ldr	r2, [r7, #4]
20007350:	b292      	uxth	r2, r2
20007352:	2112      	movs	r1, #18
20007354:	187c      	adds	r4, r7, r1
20007356:	68b9      	ldr	r1, [r7, #8]
20007358:	0018      	movs	r0, r3
2000735a:	f001 fe98 	bl	2000908e <tu_fifo_write_n>
2000735e:	0003      	movs	r3, r0
20007360:	8023      	strh	r3, [r4, #0]
20007362:	697b      	ldr	r3, [r7, #20]
20007364:	3324      	adds	r3, #36	@ 0x24
20007366:	0018      	movs	r0, r3
20007368:	f001 fcc7 	bl	20008cfa <tu_fifo_count>
2000736c:	0003      	movs	r3, r0
2000736e:	2b3f      	cmp	r3, #63	@ 0x3f
20007370:	d904      	bls.n	2000737c <tud_cdc_n_write+0x54>
20007372:	197b      	adds	r3, r7, r5
20007374:	781b      	ldrb	r3, [r3, #0]
20007376:	0018      	movs	r0, r3
20007378:	f000 f80a 	bl	20007390 <tud_cdc_n_write_flush>
2000737c:	2312      	movs	r3, #18
2000737e:	18fb      	adds	r3, r7, r3
20007380:	881b      	ldrh	r3, [r3, #0]
20007382:	0018      	movs	r0, r3
20007384:	46bd      	mov	sp, r7
20007386:	b006      	add	sp, #24
20007388:	bdb0      	pop	{r4, r5, r7, pc}
2000738a:	46c0      	nop			@ (mov r8, r8)
2000738c:	2000b2d4 	.word	0x2000b2d4

20007390 <tud_cdc_n_write_flush>:
20007390:	b5b0      	push	{r4, r5, r7, lr}
20007392:	b084      	sub	sp, #16
20007394:	af00      	add	r7, sp, #0
20007396:	0002      	movs	r2, r0
20007398:	1dfb      	adds	r3, r7, #7
2000739a:	701a      	strb	r2, [r3, #0]
2000739c:	1dfb      	adds	r3, r7, #7
2000739e:	781b      	ldrb	r3, [r3, #0]
200073a0:	22b2      	movs	r2, #178	@ 0xb2
200073a2:	0092      	lsls	r2, r2, #2
200073a4:	435a      	muls	r2, r3
200073a6:	4b3d      	ldr	r3, [pc, #244]	@ (2000749c <tud_cdc_n_write_flush+0x10c>)
200073a8:	18d3      	adds	r3, r2, r3
200073aa:	60fb      	str	r3, [r7, #12]
200073ac:	f7fe fb2c 	bl	20005a08 <tud_mounted>
200073b0:	1e03      	subs	r3, r0, #0
200073b2:	d00a      	beq.n	200073ca <tud_cdc_n_write_flush+0x3a>
200073b4:	f7fe fb36 	bl	20005a24 <tud_suspended>
200073b8:	0003      	movs	r3, r0
200073ba:	001a      	movs	r2, r3
200073bc:	2301      	movs	r3, #1
200073be:	4053      	eors	r3, r2
200073c0:	b2db      	uxtb	r3, r3
200073c2:	2b00      	cmp	r3, #0
200073c4:	d001      	beq.n	200073ca <tud_cdc_n_write_flush+0x3a>
200073c6:	2301      	movs	r3, #1
200073c8:	e000      	b.n	200073cc <tud_cdc_n_write_flush+0x3c>
200073ca:	2300      	movs	r3, #0
200073cc:	1c1a      	adds	r2, r3, #0
200073ce:	2301      	movs	r3, #1
200073d0:	4013      	ands	r3, r2
200073d2:	b2db      	uxtb	r3, r3
200073d4:	2201      	movs	r2, #1
200073d6:	4053      	eors	r3, r2
200073d8:	b2db      	uxtb	r3, r3
200073da:	2b00      	cmp	r3, #0
200073dc:	d001      	beq.n	200073e2 <tud_cdc_n_write_flush+0x52>
200073de:	2300      	movs	r3, #0
200073e0:	e057      	b.n	20007492 <tud_cdc_n_write_flush+0x102>
200073e2:	68fb      	ldr	r3, [r7, #12]
200073e4:	3324      	adds	r3, #36	@ 0x24
200073e6:	0018      	movs	r0, r3
200073e8:	f001 fc87 	bl	20008cfa <tu_fifo_count>
200073ec:	1e03      	subs	r3, r0, #0
200073ee:	d101      	bne.n	200073f4 <tud_cdc_n_write_flush+0x64>
200073f0:	2300      	movs	r3, #0
200073f2:	e04e      	b.n	20007492 <tud_cdc_n_write_flush+0x102>
200073f4:	210b      	movs	r1, #11
200073f6:	187b      	adds	r3, r7, r1
200073f8:	2200      	movs	r2, #0
200073fa:	701a      	strb	r2, [r3, #0]
200073fc:	68fb      	ldr	r3, [r7, #12]
200073fe:	789a      	ldrb	r2, [r3, #2]
20007400:	187b      	adds	r3, r7, r1
20007402:	781b      	ldrb	r3, [r3, #0]
20007404:	0011      	movs	r1, r2
20007406:	0018      	movs	r0, r3
20007408:	f7ff faba 	bl	20006980 <usbd_edpt_claim>
2000740c:	0003      	movs	r3, r0
2000740e:	001a      	movs	r2, r3
20007410:	2301      	movs	r3, #1
20007412:	4053      	eors	r3, r2
20007414:	b2db      	uxtb	r3, r3
20007416:	2b00      	cmp	r3, #0
20007418:	d001      	beq.n	2000741e <tud_cdc_n_write_flush+0x8e>
2000741a:	2300      	movs	r3, #0
2000741c:	e039      	b.n	20007492 <tud_cdc_n_write_flush+0x102>
2000741e:	68fb      	ldr	r3, [r7, #12]
20007420:	3324      	adds	r3, #36	@ 0x24
20007422:	0018      	movs	r0, r3
20007424:	68fb      	ldr	r3, [r7, #12]
20007426:	22a2      	movs	r2, #162	@ 0xa2
20007428:	0092      	lsls	r2, r2, #2
2000742a:	4694      	mov	ip, r2
2000742c:	4463      	add	r3, ip
2000742e:	2508      	movs	r5, #8
20007430:	197c      	adds	r4, r7, r5
20007432:	2240      	movs	r2, #64	@ 0x40
20007434:	0019      	movs	r1, r3
20007436:	f001 fd98 	bl	20008f6a <tu_fifo_read_n>
2000743a:	0003      	movs	r3, r0
2000743c:	8023      	strh	r3, [r4, #0]
2000743e:	0028      	movs	r0, r5
20007440:	183b      	adds	r3, r7, r0
20007442:	881b      	ldrh	r3, [r3, #0]
20007444:	2b00      	cmp	r3, #0
20007446:	d01a      	beq.n	2000747e <tud_cdc_n_write_flush+0xee>
20007448:	68fb      	ldr	r3, [r7, #12]
2000744a:	7899      	ldrb	r1, [r3, #2]
2000744c:	68fb      	ldr	r3, [r7, #12]
2000744e:	22a2      	movs	r2, #162	@ 0xa2
20007450:	0092      	lsls	r2, r2, #2
20007452:	189a      	adds	r2, r3, r2
20007454:	183b      	adds	r3, r7, r0
20007456:	881c      	ldrh	r4, [r3, #0]
20007458:	230b      	movs	r3, #11
2000745a:	18fb      	adds	r3, r7, r3
2000745c:	7818      	ldrb	r0, [r3, #0]
2000745e:	0023      	movs	r3, r4
20007460:	f7ff fb0a 	bl	20006a78 <usbd_edpt_xfer>
20007464:	0003      	movs	r3, r0
20007466:	001a      	movs	r2, r3
20007468:	2301      	movs	r3, #1
2000746a:	4053      	eors	r3, r2
2000746c:	b2db      	uxtb	r3, r3
2000746e:	2b00      	cmp	r3, #0
20007470:	d001      	beq.n	20007476 <tud_cdc_n_write_flush+0xe6>
20007472:	2300      	movs	r3, #0
20007474:	e00d      	b.n	20007492 <tud_cdc_n_write_flush+0x102>
20007476:	2308      	movs	r3, #8
20007478:	18fb      	adds	r3, r7, r3
2000747a:	881b      	ldrh	r3, [r3, #0]
2000747c:	e009      	b.n	20007492 <tud_cdc_n_write_flush+0x102>
2000747e:	68fb      	ldr	r3, [r7, #12]
20007480:	789a      	ldrb	r2, [r3, #2]
20007482:	230b      	movs	r3, #11
20007484:	18fb      	adds	r3, r7, r3
20007486:	781b      	ldrb	r3, [r3, #0]
20007488:	0011      	movs	r1, r2
2000748a:	0018      	movs	r0, r3
2000748c:	f7ff fab6 	bl	200069fc <usbd_edpt_release>
20007490:	2300      	movs	r3, #0
20007492:	0018      	movs	r0, r3
20007494:	46bd      	mov	sp, r7
20007496:	b004      	add	sp, #16
20007498:	bdb0      	pop	{r4, r5, r7, pc}
2000749a:	46c0      	nop			@ (mov r8, r8)
2000749c:	2000b2d4 	.word	0x2000b2d4

200074a0 <tud_cdc_n_write_available>:
200074a0:	b580      	push	{r7, lr}
200074a2:	b082      	sub	sp, #8
200074a4:	af00      	add	r7, sp, #0
200074a6:	0002      	movs	r2, r0
200074a8:	1dfb      	adds	r3, r7, #7
200074aa:	701a      	strb	r2, [r3, #0]
200074ac:	1dfb      	adds	r3, r7, #7
200074ae:	781b      	ldrb	r3, [r3, #0]
200074b0:	22b2      	movs	r2, #178	@ 0xb2
200074b2:	0092      	lsls	r2, r2, #2
200074b4:	4353      	muls	r3, r2
200074b6:	3320      	adds	r3, #32
200074b8:	001a      	movs	r2, r3
200074ba:	4b05      	ldr	r3, [pc, #20]	@ (200074d0 <tud_cdc_n_write_available+0x30>)
200074bc:	18d3      	adds	r3, r2, r3
200074be:	3304      	adds	r3, #4
200074c0:	0018      	movs	r0, r3
200074c2:	f001 fcb4 	bl	20008e2e <tu_fifo_remaining>
200074c6:	0003      	movs	r3, r0
200074c8:	0018      	movs	r0, r3
200074ca:	46bd      	mov	sp, r7
200074cc:	b002      	add	sp, #8
200074ce:	bd80      	pop	{r7, pc}
200074d0:	2000b2d4 	.word	0x2000b2d4

200074d4 <cdcd_init>:
200074d4:	b5b0      	push	{r4, r5, r7, lr}
200074d6:	b08c      	sub	sp, #48	@ 0x30
200074d8:	af02      	add	r7, sp, #8
200074da:	23b2      	movs	r3, #178	@ 0xb2
200074dc:	009a      	lsls	r2, r3, #2
200074de:	4b45      	ldr	r3, [pc, #276]	@ (200075f4 <cdcd_init+0x120>)
200074e0:	2100      	movs	r1, #0
200074e2:	0018      	movs	r0, r3
200074e4:	f7fc fec0 	bl	20004268 <__wrap_memset>
200074e8:	2327      	movs	r3, #39	@ 0x27
200074ea:	18fb      	adds	r3, r7, r3
200074ec:	2200      	movs	r2, #0
200074ee:	701a      	strb	r2, [r3, #0]
200074f0:	e076      	b.n	200075e0 <cdcd_init+0x10c>
200074f2:	2527      	movs	r5, #39	@ 0x27
200074f4:	197b      	adds	r3, r7, r5
200074f6:	781b      	ldrb	r3, [r3, #0]
200074f8:	22b2      	movs	r2, #178	@ 0xb2
200074fa:	0092      	lsls	r2, r2, #2
200074fc:	435a      	muls	r2, r3
200074fe:	4b3d      	ldr	r3, [pc, #244]	@ (200075f4 <cdcd_init+0x120>)
20007500:	18d3      	adds	r3, r2, r3
20007502:	623b      	str	r3, [r7, #32]
20007504:	6a3b      	ldr	r3, [r7, #32]
20007506:	22ff      	movs	r2, #255	@ 0xff
20007508:	715a      	strb	r2, [r3, #5]
2000750a:	6a3b      	ldr	r3, [r7, #32]
2000750c:	3306      	adds	r3, #6
2000750e:	881a      	ldrh	r2, [r3, #0]
20007510:	2100      	movs	r1, #0
20007512:	400a      	ands	r2, r1
20007514:	1c11      	adds	r1, r2, #0
20007516:	4a38      	ldr	r2, [pc, #224]	@ (200075f8 <cdcd_init+0x124>)
20007518:	430a      	orrs	r2, r1
2000751a:	801a      	strh	r2, [r3, #0]
2000751c:	885a      	ldrh	r2, [r3, #2]
2000751e:	2100      	movs	r1, #0
20007520:	400a      	ands	r2, r1
20007522:	1c11      	adds	r1, r2, #0
20007524:	2201      	movs	r2, #1
20007526:	430a      	orrs	r2, r1
20007528:	805a      	strh	r2, [r3, #2]
2000752a:	6a3b      	ldr	r3, [r7, #32]
2000752c:	2200      	movs	r2, #0
2000752e:	729a      	strb	r2, [r3, #10]
20007530:	6a3b      	ldr	r3, [r7, #32]
20007532:	2200      	movs	r2, #0
20007534:	72da      	strb	r2, [r3, #11]
20007536:	6a3b      	ldr	r3, [r7, #32]
20007538:	2208      	movs	r2, #8
2000753a:	731a      	strb	r2, [r3, #12]
2000753c:	6a3b      	ldr	r3, [r7, #32]
2000753e:	3310      	adds	r3, #16
20007540:	0018      	movs	r0, r3
20007542:	6a3b      	ldr	r3, [r7, #32]
20007544:	3338      	adds	r3, #56	@ 0x38
20007546:	0019      	movs	r1, r3
20007548:	2380      	movs	r3, #128	@ 0x80
2000754a:	005a      	lsls	r2, r3, #1
2000754c:	2300      	movs	r3, #0
2000754e:	9300      	str	r3, [sp, #0]
20007550:	2301      	movs	r3, #1
20007552:	f000 fcef 	bl	20007f34 <tu_fifo_config>
20007556:	6a3b      	ldr	r3, [r7, #32]
20007558:	3324      	adds	r3, #36	@ 0x24
2000755a:	0018      	movs	r0, r3
2000755c:	6a3b      	ldr	r3, [r7, #32]
2000755e:	3339      	adds	r3, #57	@ 0x39
20007560:	33ff      	adds	r3, #255	@ 0xff
20007562:	0019      	movs	r1, r3
20007564:	2380      	movs	r3, #128	@ 0x80
20007566:	005a      	lsls	r2, r3, #1
20007568:	2301      	movs	r3, #1
2000756a:	9300      	str	r3, [sp, #0]
2000756c:	2301      	movs	r3, #1
2000756e:	f000 fce1 	bl	20007f34 <tu_fifo_config>
20007572:	6a3b      	ldr	r3, [r7, #32]
20007574:	3310      	adds	r3, #16
20007576:	001c      	movs	r4, r3
20007578:	6a3b      	ldr	r3, [r7, #32]
2000757a:	228e      	movs	r2, #142	@ 0x8e
2000757c:	0092      	lsls	r2, r2, #2
2000757e:	4694      	mov	ip, r2
20007580:	4463      	add	r3, ip
20007582:	603b      	str	r3, [r7, #0]
20007584:	683b      	ldr	r3, [r7, #0]
20007586:	0018      	movs	r0, r3
20007588:	f7f9 f92f 	bl	200007ea <mutex_init>
2000758c:	683b      	ldr	r3, [r7, #0]
2000758e:	60fc      	str	r4, [r7, #12]
20007590:	2200      	movs	r2, #0
20007592:	60ba      	str	r2, [r7, #8]
20007594:	607b      	str	r3, [r7, #4]
20007596:	68fb      	ldr	r3, [r7, #12]
20007598:	68ba      	ldr	r2, [r7, #8]
2000759a:	60da      	str	r2, [r3, #12]
2000759c:	68fb      	ldr	r3, [r7, #12]
2000759e:	687a      	ldr	r2, [r7, #4]
200075a0:	611a      	str	r2, [r3, #16]
200075a2:	46c0      	nop			@ (mov r8, r8)
200075a4:	6a3b      	ldr	r3, [r7, #32]
200075a6:	3324      	adds	r3, #36	@ 0x24
200075a8:	001c      	movs	r4, r3
200075aa:	6a3b      	ldr	r3, [r7, #32]
200075ac:	2290      	movs	r2, #144	@ 0x90
200075ae:	0092      	lsls	r2, r2, #2
200075b0:	4694      	mov	ip, r2
200075b2:	4463      	add	r3, ip
200075b4:	613b      	str	r3, [r7, #16]
200075b6:	693b      	ldr	r3, [r7, #16]
200075b8:	0018      	movs	r0, r3
200075ba:	f7f9 f916 	bl	200007ea <mutex_init>
200075be:	693b      	ldr	r3, [r7, #16]
200075c0:	61fc      	str	r4, [r7, #28]
200075c2:	61bb      	str	r3, [r7, #24]
200075c4:	2300      	movs	r3, #0
200075c6:	617b      	str	r3, [r7, #20]
200075c8:	69fb      	ldr	r3, [r7, #28]
200075ca:	69ba      	ldr	r2, [r7, #24]
200075cc:	60da      	str	r2, [r3, #12]
200075ce:	69fb      	ldr	r3, [r7, #28]
200075d0:	697a      	ldr	r2, [r7, #20]
200075d2:	611a      	str	r2, [r3, #16]
200075d4:	46c0      	nop			@ (mov r8, r8)
200075d6:	197b      	adds	r3, r7, r5
200075d8:	781a      	ldrb	r2, [r3, #0]
200075da:	197b      	adds	r3, r7, r5
200075dc:	3201      	adds	r2, #1
200075de:	701a      	strb	r2, [r3, #0]
200075e0:	2327      	movs	r3, #39	@ 0x27
200075e2:	18fb      	adds	r3, r7, r3
200075e4:	781b      	ldrb	r3, [r3, #0]
200075e6:	2b00      	cmp	r3, #0
200075e8:	d083      	beq.n	200074f2 <cdcd_init+0x1e>
200075ea:	46c0      	nop			@ (mov r8, r8)
200075ec:	46c0      	nop			@ (mov r8, r8)
200075ee:	46bd      	mov	sp, r7
200075f0:	b00a      	add	sp, #40	@ 0x28
200075f2:	bdb0      	pop	{r4, r5, r7, pc}
200075f4:	2000b2d4 	.word	0x2000b2d4
200075f8:	ffffc200 	.word	0xffffc200

200075fc <cdcd_reset>:
200075fc:	b590      	push	{r4, r7, lr}
200075fe:	b085      	sub	sp, #20
20007600:	af00      	add	r7, sp, #0
20007602:	0002      	movs	r2, r0
20007604:	1dfb      	adds	r3, r7, #7
20007606:	701a      	strb	r2, [r3, #0]
20007608:	230f      	movs	r3, #15
2000760a:	18fb      	adds	r3, r7, r3
2000760c:	2200      	movs	r2, #0
2000760e:	701a      	strb	r2, [r3, #0]
20007610:	e023      	b.n	2000765a <cdcd_reset+0x5e>
20007612:	240f      	movs	r4, #15
20007614:	193b      	adds	r3, r7, r4
20007616:	781b      	ldrb	r3, [r3, #0]
20007618:	22b2      	movs	r2, #178	@ 0xb2
2000761a:	0092      	lsls	r2, r2, #2
2000761c:	435a      	muls	r2, r3
2000761e:	4b14      	ldr	r3, [pc, #80]	@ (20007670 <cdcd_reset+0x74>)
20007620:	18d3      	adds	r3, r2, r3
20007622:	60bb      	str	r3, [r7, #8]
20007624:	68bb      	ldr	r3, [r7, #8]
20007626:	2205      	movs	r2, #5
20007628:	2100      	movs	r1, #0
2000762a:	0018      	movs	r0, r3
2000762c:	f7fc fe1c 	bl	20004268 <__wrap_memset>
20007630:	68bb      	ldr	r3, [r7, #8]
20007632:	3310      	adds	r3, #16
20007634:	0018      	movs	r0, r3
20007636:	f001 fd3d 	bl	200090b4 <tu_fifo_clear>
2000763a:	68bb      	ldr	r3, [r7, #8]
2000763c:	3324      	adds	r3, #36	@ 0x24
2000763e:	0018      	movs	r0, r3
20007640:	f001 fd38 	bl	200090b4 <tu_fifo_clear>
20007644:	68bb      	ldr	r3, [r7, #8]
20007646:	3324      	adds	r3, #36	@ 0x24
20007648:	2101      	movs	r1, #1
2000764a:	0018      	movs	r0, r3
2000764c:	f001 fd7f 	bl	2000914e <tu_fifo_set_overwritable>
20007650:	193b      	adds	r3, r7, r4
20007652:	781a      	ldrb	r2, [r3, #0]
20007654:	193b      	adds	r3, r7, r4
20007656:	3201      	adds	r2, #1
20007658:	701a      	strb	r2, [r3, #0]
2000765a:	230f      	movs	r3, #15
2000765c:	18fb      	adds	r3, r7, r3
2000765e:	781b      	ldrb	r3, [r3, #0]
20007660:	2b00      	cmp	r3, #0
20007662:	d0d6      	beq.n	20007612 <cdcd_reset+0x16>
20007664:	46c0      	nop			@ (mov r8, r8)
20007666:	46c0      	nop			@ (mov r8, r8)
20007668:	46bd      	mov	sp, r7
2000766a:	b005      	add	sp, #20
2000766c:	bd90      	pop	{r4, r7, pc}
2000766e:	46c0      	nop			@ (mov r8, r8)
20007670:	2000b2d4 	.word	0x2000b2d4

20007674 <cdcd_open>:
20007674:	b590      	push	{r4, r7, lr}
20007676:	b097      	sub	sp, #92	@ 0x5c
20007678:	af02      	add	r7, sp, #8
2000767a:	6039      	str	r1, [r7, #0]
2000767c:	0011      	movs	r1, r2
2000767e:	1dfb      	adds	r3, r7, #7
20007680:	1c02      	adds	r2, r0, #0
20007682:	701a      	strb	r2, [r3, #0]
20007684:	1d3b      	adds	r3, r7, #4
20007686:	1c0a      	adds	r2, r1, #0
20007688:	801a      	strh	r2, [r3, #0]
2000768a:	683b      	ldr	r3, [r7, #0]
2000768c:	795b      	ldrb	r3, [r3, #5]
2000768e:	2b02      	cmp	r3, #2
20007690:	d103      	bne.n	2000769a <cdcd_open+0x26>
20007692:	683b      	ldr	r3, [r7, #0]
20007694:	799b      	ldrb	r3, [r3, #6]
20007696:	2b02      	cmp	r3, #2
20007698:	d001      	beq.n	2000769e <cdcd_open+0x2a>
2000769a:	2300      	movs	r3, #0
2000769c:	e0d7      	b.n	2000784e <cdcd_open+0x1da>
2000769e:	2300      	movs	r3, #0
200076a0:	64fb      	str	r3, [r7, #76]	@ 0x4c
200076a2:	234b      	movs	r3, #75	@ 0x4b
200076a4:	18fb      	adds	r3, r7, r3
200076a6:	2200      	movs	r2, #0
200076a8:	701a      	strb	r2, [r3, #0]
200076aa:	e01a      	b.n	200076e2 <cdcd_open+0x6e>
200076ac:	204b      	movs	r0, #75	@ 0x4b
200076ae:	183b      	adds	r3, r7, r0
200076b0:	781b      	ldrb	r3, [r3, #0]
200076b2:	4a69      	ldr	r2, [pc, #420]	@ (20007858 <cdcd_open+0x1e4>)
200076b4:	21b2      	movs	r1, #178	@ 0xb2
200076b6:	0089      	lsls	r1, r1, #2
200076b8:	434b      	muls	r3, r1
200076ba:	18d3      	adds	r3, r2, r3
200076bc:	3302      	adds	r3, #2
200076be:	781b      	ldrb	r3, [r3, #0]
200076c0:	2b00      	cmp	r3, #0
200076c2:	d108      	bne.n	200076d6 <cdcd_open+0x62>
200076c4:	183b      	adds	r3, r7, r0
200076c6:	781b      	ldrb	r3, [r3, #0]
200076c8:	22b2      	movs	r2, #178	@ 0xb2
200076ca:	0092      	lsls	r2, r2, #2
200076cc:	435a      	muls	r2, r3
200076ce:	4b62      	ldr	r3, [pc, #392]	@ (20007858 <cdcd_open+0x1e4>)
200076d0:	18d3      	adds	r3, r2, r3
200076d2:	64fb      	str	r3, [r7, #76]	@ 0x4c
200076d4:	e00a      	b.n	200076ec <cdcd_open+0x78>
200076d6:	214b      	movs	r1, #75	@ 0x4b
200076d8:	187b      	adds	r3, r7, r1
200076da:	781a      	ldrb	r2, [r3, #0]
200076dc:	187b      	adds	r3, r7, r1
200076de:	3201      	adds	r2, #1
200076e0:	701a      	strb	r2, [r3, #0]
200076e2:	234b      	movs	r3, #75	@ 0x4b
200076e4:	18fb      	adds	r3, r7, r3
200076e6:	781b      	ldrb	r3, [r3, #0]
200076e8:	2b00      	cmp	r3, #0
200076ea:	d0df      	beq.n	200076ac <cdcd_open+0x38>
200076ec:	6cfb      	ldr	r3, [r7, #76]	@ 0x4c
200076ee:	2b00      	cmp	r3, #0
200076f0:	d101      	bne.n	200076f6 <cdcd_open+0x82>
200076f2:	2300      	movs	r3, #0
200076f4:	e0ab      	b.n	2000784e <cdcd_open+0x1da>
200076f6:	683b      	ldr	r3, [r7, #0]
200076f8:	789a      	ldrb	r2, [r3, #2]
200076fa:	6cfb      	ldr	r3, [r7, #76]	@ 0x4c
200076fc:	701a      	strb	r2, [r3, #0]
200076fe:	2348      	movs	r3, #72	@ 0x48
20007700:	18fb      	adds	r3, r7, r3
20007702:	2209      	movs	r2, #9
20007704:	801a      	strh	r2, [r3, #0]
20007706:	683b      	ldr	r3, [r7, #0]
20007708:	63fb      	str	r3, [r7, #60]	@ 0x3c
2000770a:	6bfb      	ldr	r3, [r7, #60]	@ 0x3c
2000770c:	63bb      	str	r3, [r7, #56]	@ 0x38
2000770e:	6bbb      	ldr	r3, [r7, #56]	@ 0x38
20007710:	781b      	ldrb	r3, [r3, #0]
20007712:	001a      	movs	r2, r3
20007714:	6bbb      	ldr	r3, [r7, #56]	@ 0x38
20007716:	189b      	adds	r3, r3, r2
20007718:	647b      	str	r3, [r7, #68]	@ 0x44
2000771a:	e014      	b.n	20007746 <cdcd_open+0xd2>
2000771c:	6c7b      	ldr	r3, [r7, #68]	@ 0x44
2000771e:	62fb      	str	r3, [r7, #44]	@ 0x2c
20007720:	6afb      	ldr	r3, [r7, #44]	@ 0x2c
20007722:	781b      	ldrb	r3, [r3, #0]
20007724:	0019      	movs	r1, r3
20007726:	2248      	movs	r2, #72	@ 0x48
20007728:	18bb      	adds	r3, r7, r2
2000772a:	18ba      	adds	r2, r7, r2
2000772c:	8812      	ldrh	r2, [r2, #0]
2000772e:	188a      	adds	r2, r1, r2
20007730:	801a      	strh	r2, [r3, #0]
20007732:	6c7b      	ldr	r3, [r7, #68]	@ 0x44
20007734:	637b      	str	r3, [r7, #52]	@ 0x34
20007736:	6b7b      	ldr	r3, [r7, #52]	@ 0x34
20007738:	633b      	str	r3, [r7, #48]	@ 0x30
2000773a:	6b3b      	ldr	r3, [r7, #48]	@ 0x30
2000773c:	781b      	ldrb	r3, [r3, #0]
2000773e:	001a      	movs	r2, r3
20007740:	6b3b      	ldr	r3, [r7, #48]	@ 0x30
20007742:	189b      	adds	r3, r3, r2
20007744:	647b      	str	r3, [r7, #68]	@ 0x44
20007746:	6c7b      	ldr	r3, [r7, #68]	@ 0x44
20007748:	62bb      	str	r3, [r7, #40]	@ 0x28
2000774a:	6abb      	ldr	r3, [r7, #40]	@ 0x28
2000774c:	3301      	adds	r3, #1
2000774e:	781b      	ldrb	r3, [r3, #0]
20007750:	2b24      	cmp	r3, #36	@ 0x24
20007752:	d106      	bne.n	20007762 <cdcd_open+0xee>
20007754:	2348      	movs	r3, #72	@ 0x48
20007756:	18fa      	adds	r2, r7, r3
20007758:	1d3b      	adds	r3, r7, #4
2000775a:	8812      	ldrh	r2, [r2, #0]
2000775c:	881b      	ldrh	r3, [r3, #0]
2000775e:	429a      	cmp	r2, r3
20007760:	d9dc      	bls.n	2000771c <cdcd_open+0xa8>
20007762:	6c7b      	ldr	r3, [r7, #68]	@ 0x44
20007764:	627b      	str	r3, [r7, #36]	@ 0x24
20007766:	6a7b      	ldr	r3, [r7, #36]	@ 0x24
20007768:	3301      	adds	r3, #1
2000776a:	781b      	ldrb	r3, [r3, #0]
2000776c:	2b05      	cmp	r3, #5
2000776e:	d12a      	bne.n	200077c6 <cdcd_open+0x152>
20007770:	6c7b      	ldr	r3, [r7, #68]	@ 0x44
20007772:	643b      	str	r3, [r7, #64]	@ 0x40
20007774:	6c3a      	ldr	r2, [r7, #64]	@ 0x40
20007776:	1dfb      	adds	r3, r7, #7
20007778:	781b      	ldrb	r3, [r3, #0]
2000777a:	0011      	movs	r1, r2
2000777c:	0018      	movs	r0, r3
2000777e:	f7ff f8c5 	bl	2000690c <usbd_edpt_open>
20007782:	0003      	movs	r3, r0
20007784:	001a      	movs	r2, r3
20007786:	2301      	movs	r3, #1
20007788:	4053      	eors	r3, r2
2000778a:	b2db      	uxtb	r3, r3
2000778c:	2b00      	cmp	r3, #0
2000778e:	d001      	beq.n	20007794 <cdcd_open+0x120>
20007790:	2300      	movs	r3, #0
20007792:	e05c      	b.n	2000784e <cdcd_open+0x1da>
20007794:	6c3b      	ldr	r3, [r7, #64]	@ 0x40
20007796:	789a      	ldrb	r2, [r3, #2]
20007798:	6cfb      	ldr	r3, [r7, #76]	@ 0x4c
2000779a:	705a      	strb	r2, [r3, #1]
2000779c:	6c7b      	ldr	r3, [r7, #68]	@ 0x44
2000779e:	61bb      	str	r3, [r7, #24]
200077a0:	69bb      	ldr	r3, [r7, #24]
200077a2:	781b      	ldrb	r3, [r3, #0]
200077a4:	0019      	movs	r1, r3
200077a6:	2248      	movs	r2, #72	@ 0x48
200077a8:	18bb      	adds	r3, r7, r2
200077aa:	18ba      	adds	r2, r7, r2
200077ac:	8812      	ldrh	r2, [r2, #0]
200077ae:	188a      	adds	r2, r1, r2
200077b0:	801a      	strh	r2, [r3, #0]
200077b2:	6c7b      	ldr	r3, [r7, #68]	@ 0x44
200077b4:	623b      	str	r3, [r7, #32]
200077b6:	6a3b      	ldr	r3, [r7, #32]
200077b8:	61fb      	str	r3, [r7, #28]
200077ba:	69fb      	ldr	r3, [r7, #28]
200077bc:	781b      	ldrb	r3, [r3, #0]
200077be:	001a      	movs	r2, r3
200077c0:	69fb      	ldr	r3, [r7, #28]
200077c2:	189b      	adds	r3, r3, r2
200077c4:	647b      	str	r3, [r7, #68]	@ 0x44
200077c6:	6c7b      	ldr	r3, [r7, #68]	@ 0x44
200077c8:	617b      	str	r3, [r7, #20]
200077ca:	697b      	ldr	r3, [r7, #20]
200077cc:	3301      	adds	r3, #1
200077ce:	781b      	ldrb	r3, [r3, #0]
200077d0:	2b04      	cmp	r3, #4
200077d2:	d135      	bne.n	20007840 <cdcd_open+0x1cc>
200077d4:	6c7b      	ldr	r3, [r7, #68]	@ 0x44
200077d6:	795b      	ldrb	r3, [r3, #5]
200077d8:	2b0a      	cmp	r3, #10
200077da:	d131      	bne.n	20007840 <cdcd_open+0x1cc>
200077dc:	6c7b      	ldr	r3, [r7, #68]	@ 0x44
200077de:	60bb      	str	r3, [r7, #8]
200077e0:	68bb      	ldr	r3, [r7, #8]
200077e2:	781b      	ldrb	r3, [r3, #0]
200077e4:	0019      	movs	r1, r3
200077e6:	2248      	movs	r2, #72	@ 0x48
200077e8:	18bb      	adds	r3, r7, r2
200077ea:	18ba      	adds	r2, r7, r2
200077ec:	8812      	ldrh	r2, [r2, #0]
200077ee:	188a      	adds	r2, r1, r2
200077f0:	801a      	strh	r2, [r3, #0]
200077f2:	6c7b      	ldr	r3, [r7, #68]	@ 0x44
200077f4:	613b      	str	r3, [r7, #16]
200077f6:	693b      	ldr	r3, [r7, #16]
200077f8:	60fb      	str	r3, [r7, #12]
200077fa:	68fb      	ldr	r3, [r7, #12]
200077fc:	781b      	ldrb	r3, [r3, #0]
200077fe:	001a      	movs	r2, r3
20007800:	68fb      	ldr	r3, [r7, #12]
20007802:	189b      	adds	r3, r3, r2
20007804:	647b      	str	r3, [r7, #68]	@ 0x44
20007806:	6cfb      	ldr	r3, [r7, #76]	@ 0x4c
20007808:	3303      	adds	r3, #3
2000780a:	6cfa      	ldr	r2, [r7, #76]	@ 0x4c
2000780c:	3202      	adds	r2, #2
2000780e:	6c7c      	ldr	r4, [r7, #68]	@ 0x44
20007810:	1df9      	adds	r1, r7, #7
20007812:	7808      	ldrb	r0, [r1, #0]
20007814:	9201      	str	r2, [sp, #4]
20007816:	9300      	str	r3, [sp, #0]
20007818:	2302      	movs	r3, #2
2000781a:	2202      	movs	r2, #2
2000781c:	0021      	movs	r1, r4
2000781e:	f7fe fff1 	bl	20006804 <usbd_open_edpt_pair>
20007822:	0003      	movs	r3, r0
20007824:	001a      	movs	r2, r3
20007826:	2301      	movs	r3, #1
20007828:	4053      	eors	r3, r2
2000782a:	b2db      	uxtb	r3, r3
2000782c:	2b00      	cmp	r3, #0
2000782e:	d001      	beq.n	20007834 <cdcd_open+0x1c0>
20007830:	2300      	movs	r3, #0
20007832:	e00c      	b.n	2000784e <cdcd_open+0x1da>
20007834:	2248      	movs	r2, #72	@ 0x48
20007836:	18bb      	adds	r3, r7, r2
20007838:	18ba      	adds	r2, r7, r2
2000783a:	8812      	ldrh	r2, [r2, #0]
2000783c:	320e      	adds	r2, #14
2000783e:	801a      	strh	r2, [r3, #0]
20007840:	6cfb      	ldr	r3, [r7, #76]	@ 0x4c
20007842:	0018      	movs	r0, r3
20007844:	f7ff fc9a 	bl	2000717c <_prep_out_transaction>
20007848:	2348      	movs	r3, #72	@ 0x48
2000784a:	18fb      	adds	r3, r7, r3
2000784c:	881b      	ldrh	r3, [r3, #0]
2000784e:	0018      	movs	r0, r3
20007850:	46bd      	mov	sp, r7
20007852:	b015      	add	sp, #84	@ 0x54
20007854:	bd90      	pop	{r4, r7, pc}
20007856:	46c0      	nop			@ (mov r8, r8)
20007858:	2000b2d4 	.word	0x2000b2d4

2000785c <cdcd_control_xfer_cb>:
2000785c:	b5b0      	push	{r4, r5, r7, lr}
2000785e:	b08a      	sub	sp, #40	@ 0x28
20007860:	af00      	add	r7, sp, #0
20007862:	603a      	str	r2, [r7, #0]
20007864:	1dfb      	adds	r3, r7, #7
20007866:	1c02      	adds	r2, r0, #0
20007868:	701a      	strb	r2, [r3, #0]
2000786a:	1dbb      	adds	r3, r7, #6
2000786c:	1c0a      	adds	r2, r1, #0
2000786e:	701a      	strb	r2, [r3, #0]
20007870:	683b      	ldr	r3, [r7, #0]
20007872:	781b      	ldrb	r3, [r3, #0]
20007874:	2260      	movs	r2, #96	@ 0x60
20007876:	4013      	ands	r3, r2
20007878:	b2db      	uxtb	r3, r3
2000787a:	2b20      	cmp	r3, #32
2000787c:	d001      	beq.n	20007882 <cdcd_control_xfer_cb+0x26>
2000787e:	2300      	movs	r3, #0
20007880:	e0fc      	b.n	20007a7c <cdcd_control_xfer_cb+0x220>
20007882:	2327      	movs	r3, #39	@ 0x27
20007884:	18fb      	adds	r3, r7, r3
20007886:	2200      	movs	r2, #0
20007888:	701a      	strb	r2, [r3, #0]
2000788a:	4b7e      	ldr	r3, [pc, #504]	@ (20007a84 <cdcd_control_xfer_cb+0x228>)
2000788c:	623b      	str	r3, [r7, #32]
2000788e:	2327      	movs	r3, #39	@ 0x27
20007890:	18fb      	adds	r3, r7, r3
20007892:	781b      	ldrb	r3, [r3, #0]
20007894:	2b00      	cmp	r3, #0
20007896:	d001      	beq.n	2000789c <cdcd_control_xfer_cb+0x40>
20007898:	2300      	movs	r3, #0
2000789a:	e0ef      	b.n	20007a7c <cdcd_control_xfer_cb+0x220>
2000789c:	6a3b      	ldr	r3, [r7, #32]
2000789e:	781b      	ldrb	r3, [r3, #0]
200078a0:	0019      	movs	r1, r3
200078a2:	683b      	ldr	r3, [r7, #0]
200078a4:	791a      	ldrb	r2, [r3, #4]
200078a6:	795b      	ldrb	r3, [r3, #5]
200078a8:	021b      	lsls	r3, r3, #8
200078aa:	4313      	orrs	r3, r2
200078ac:	b29b      	uxth	r3, r3
200078ae:	4299      	cmp	r1, r3
200078b0:	d00c      	beq.n	200078cc <cdcd_control_xfer_cb+0x70>
200078b2:	2127      	movs	r1, #39	@ 0x27
200078b4:	187b      	adds	r3, r7, r1
200078b6:	781a      	ldrb	r2, [r3, #0]
200078b8:	187b      	adds	r3, r7, r1
200078ba:	3201      	adds	r2, #1
200078bc:	701a      	strb	r2, [r3, #0]
200078be:	6a3b      	ldr	r3, [r7, #32]
200078c0:	22b2      	movs	r2, #178	@ 0xb2
200078c2:	0092      	lsls	r2, r2, #2
200078c4:	4694      	mov	ip, r2
200078c6:	4463      	add	r3, ip
200078c8:	623b      	str	r3, [r7, #32]
200078ca:	e7e0      	b.n	2000788e <cdcd_control_xfer_cb+0x32>
200078cc:	46c0      	nop			@ (mov r8, r8)
200078ce:	683b      	ldr	r3, [r7, #0]
200078d0:	785b      	ldrb	r3, [r3, #1]
200078d2:	2b23      	cmp	r3, #35	@ 0x23
200078d4:	d100      	bne.n	200078d8 <cdcd_control_xfer_cb+0x7c>
200078d6:	e0a6      	b.n	20007a26 <cdcd_control_xfer_cb+0x1ca>
200078d8:	dd00      	ble.n	200078dc <cdcd_control_xfer_cb+0x80>
200078da:	e0c5      	b.n	20007a68 <cdcd_control_xfer_cb+0x20c>
200078dc:	2b22      	cmp	r3, #34	@ 0x22
200078de:	d034      	beq.n	2000794a <cdcd_control_xfer_cb+0xee>
200078e0:	dd00      	ble.n	200078e4 <cdcd_control_xfer_cb+0x88>
200078e2:	e0c1      	b.n	20007a68 <cdcd_control_xfer_cb+0x20c>
200078e4:	2b20      	cmp	r3, #32
200078e6:	d002      	beq.n	200078ee <cdcd_control_xfer_cb+0x92>
200078e8:	2b21      	cmp	r3, #33	@ 0x21
200078ea:	d020      	beq.n	2000792e <cdcd_control_xfer_cb+0xd2>
200078ec:	e0bc      	b.n	20007a68 <cdcd_control_xfer_cb+0x20c>
200078ee:	1dbb      	adds	r3, r7, #6
200078f0:	781b      	ldrb	r3, [r3, #0]
200078f2:	2b01      	cmp	r3, #1
200078f4:	d108      	bne.n	20007908 <cdcd_control_xfer_cb+0xac>
200078f6:	6a3b      	ldr	r3, [r7, #32]
200078f8:	1d9a      	adds	r2, r3, #6
200078fa:	6839      	ldr	r1, [r7, #0]
200078fc:	1dfb      	adds	r3, r7, #7
200078fe:	7818      	ldrb	r0, [r3, #0]
20007900:	2307      	movs	r3, #7
20007902:	f7ff fadb 	bl	20006ebc <tud_control_xfer>
20007906:	e0b1      	b.n	20007a6c <cdcd_control_xfer_cb+0x210>
20007908:	1dbb      	adds	r3, r7, #6
2000790a:	781b      	ldrb	r3, [r3, #0]
2000790c:	2b03      	cmp	r3, #3
2000790e:	d000      	beq.n	20007912 <cdcd_control_xfer_cb+0xb6>
20007910:	e0ac      	b.n	20007a6c <cdcd_control_xfer_cb+0x210>
20007912:	4b5d      	ldr	r3, [pc, #372]	@ (20007a88 <cdcd_control_xfer_cb+0x22c>)
20007914:	2b00      	cmp	r3, #0
20007916:	d100      	bne.n	2000791a <cdcd_control_xfer_cb+0xbe>
20007918:	e0a8      	b.n	20007a6c <cdcd_control_xfer_cb+0x210>
2000791a:	6a3b      	ldr	r3, [r7, #32]
2000791c:	1d9a      	adds	r2, r3, #6
2000791e:	2327      	movs	r3, #39	@ 0x27
20007920:	18fb      	adds	r3, r7, r3
20007922:	781b      	ldrb	r3, [r3, #0]
20007924:	0011      	movs	r1, r2
20007926:	0018      	movs	r0, r3
20007928:	f7fc ffa4 	bl	20004874 <tud_cdc_line_coding_cb>
2000792c:	e09e      	b.n	20007a6c <cdcd_control_xfer_cb+0x210>
2000792e:	1dbb      	adds	r3, r7, #6
20007930:	781b      	ldrb	r3, [r3, #0]
20007932:	2b01      	cmp	r3, #1
20007934:	d000      	beq.n	20007938 <cdcd_control_xfer_cb+0xdc>
20007936:	e09b      	b.n	20007a70 <cdcd_control_xfer_cb+0x214>
20007938:	6a3b      	ldr	r3, [r7, #32]
2000793a:	1d9a      	adds	r2, r3, #6
2000793c:	6839      	ldr	r1, [r7, #0]
2000793e:	1dfb      	adds	r3, r7, #7
20007940:	7818      	ldrb	r0, [r3, #0]
20007942:	2307      	movs	r3, #7
20007944:	f7ff faba 	bl	20006ebc <tud_control_xfer>
20007948:	e092      	b.n	20007a70 <cdcd_control_xfer_cb+0x214>
2000794a:	1dbb      	adds	r3, r7, #6
2000794c:	781b      	ldrb	r3, [r3, #0]
2000794e:	2b01      	cmp	r3, #1
20007950:	d107      	bne.n	20007962 <cdcd_control_xfer_cb+0x106>
20007952:	683a      	ldr	r2, [r7, #0]
20007954:	1dfb      	adds	r3, r7, #7
20007956:	781b      	ldrb	r3, [r3, #0]
20007958:	0011      	movs	r1, r2
2000795a:	0018      	movs	r0, r3
2000795c:	f7ff fa30 	bl	20006dc0 <tud_control_status>
20007960:	e088      	b.n	20007a74 <cdcd_control_xfer_cb+0x218>
20007962:	1dbb      	adds	r3, r7, #6
20007964:	781b      	ldrb	r3, [r3, #0]
20007966:	2b03      	cmp	r3, #3
20007968:	d000      	beq.n	2000796c <cdcd_control_xfer_cb+0x110>
2000796a:	e083      	b.n	20007a74 <cdcd_control_xfer_cb+0x218>
2000796c:	683b      	ldr	r3, [r7, #0]
2000796e:	789a      	ldrb	r2, [r3, #2]
20007970:	78db      	ldrb	r3, [r3, #3]
20007972:	021b      	lsls	r3, r3, #8
20007974:	4313      	orrs	r3, r2
20007976:	b29b      	uxth	r3, r3
20007978:	613b      	str	r3, [r7, #16]
2000797a:	210f      	movs	r1, #15
2000797c:	187b      	adds	r3, r7, r1
2000797e:	2200      	movs	r2, #0
20007980:	701a      	strb	r2, [r3, #0]
20007982:	187b      	adds	r3, r7, r1
20007984:	781b      	ldrb	r3, [r3, #0]
20007986:	693a      	ldr	r2, [r7, #16]
20007988:	40da      	lsrs	r2, r3
2000798a:	0013      	movs	r3, r2
2000798c:	001a      	movs	r2, r3
2000798e:	2301      	movs	r3, #1
20007990:	4013      	ands	r3, r2
20007992:	1e5a      	subs	r2, r3, #1
20007994:	4193      	sbcs	r3, r2
20007996:	b2da      	uxtb	r2, r3
20007998:	211f      	movs	r1, #31
2000799a:	187b      	adds	r3, r7, r1
2000799c:	701a      	strb	r2, [r3, #0]
2000799e:	683b      	ldr	r3, [r7, #0]
200079a0:	789a      	ldrb	r2, [r3, #2]
200079a2:	78db      	ldrb	r3, [r3, #3]
200079a4:	021b      	lsls	r3, r3, #8
200079a6:	4313      	orrs	r3, r2
200079a8:	b29b      	uxth	r3, r3
200079aa:	61bb      	str	r3, [r7, #24]
200079ac:	2017      	movs	r0, #23
200079ae:	183b      	adds	r3, r7, r0
200079b0:	2201      	movs	r2, #1
200079b2:	701a      	strb	r2, [r3, #0]
200079b4:	183b      	adds	r3, r7, r0
200079b6:	781b      	ldrb	r3, [r3, #0]
200079b8:	69ba      	ldr	r2, [r7, #24]
200079ba:	40da      	lsrs	r2, r3
200079bc:	0013      	movs	r3, r2
200079be:	001a      	movs	r2, r3
200079c0:	2301      	movs	r3, #1
200079c2:	4013      	ands	r3, r2
200079c4:	1e5a      	subs	r2, r3, #1
200079c6:	4193      	sbcs	r3, r2
200079c8:	b2da      	uxtb	r2, r3
200079ca:	251e      	movs	r5, #30
200079cc:	197b      	adds	r3, r7, r5
200079ce:	701a      	strb	r2, [r3, #0]
200079d0:	683b      	ldr	r3, [r7, #0]
200079d2:	789a      	ldrb	r2, [r3, #2]
200079d4:	78db      	ldrb	r3, [r3, #3]
200079d6:	021b      	lsls	r3, r3, #8
200079d8:	4313      	orrs	r3, r2
200079da:	b29b      	uxth	r3, r3
200079dc:	b2da      	uxtb	r2, r3
200079de:	6a3b      	ldr	r3, [r7, #32]
200079e0:	711a      	strb	r2, [r3, #4]
200079e2:	6a3b      	ldr	r3, [r7, #32]
200079e4:	3324      	adds	r3, #36	@ 0x24
200079e6:	001a      	movs	r2, r3
200079e8:	000c      	movs	r4, r1
200079ea:	187b      	adds	r3, r7, r1
200079ec:	781b      	ldrb	r3, [r3, #0]
200079ee:	1e59      	subs	r1, r3, #1
200079f0:	418b      	sbcs	r3, r1
200079f2:	b2db      	uxtb	r3, r3
200079f4:	2101      	movs	r1, #1
200079f6:	404b      	eors	r3, r1
200079f8:	b2db      	uxtb	r3, r3
200079fa:	1c19      	adds	r1, r3, #0
200079fc:	2301      	movs	r3, #1
200079fe:	400b      	ands	r3, r1
20007a00:	b2db      	uxtb	r3, r3
20007a02:	0019      	movs	r1, r3
20007a04:	0010      	movs	r0, r2
20007a06:	f001 fba2 	bl	2000914e <tu_fifo_set_overwritable>
20007a0a:	4b20      	ldr	r3, [pc, #128]	@ (20007a8c <cdcd_control_xfer_cb+0x230>)
20007a0c:	2b00      	cmp	r3, #0
20007a0e:	d031      	beq.n	20007a74 <cdcd_control_xfer_cb+0x218>
20007a10:	197b      	adds	r3, r7, r5
20007a12:	781a      	ldrb	r2, [r3, #0]
20007a14:	193b      	adds	r3, r7, r4
20007a16:	7819      	ldrb	r1, [r3, #0]
20007a18:	2327      	movs	r3, #39	@ 0x27
20007a1a:	18fb      	adds	r3, r7, r3
20007a1c:	781b      	ldrb	r3, [r3, #0]
20007a1e:	0018      	movs	r0, r3
20007a20:	e000      	b.n	20007a24 <cdcd_control_xfer_cb+0x1c8>
20007a22:	bf00      	nop
20007a24:	e026      	b.n	20007a74 <cdcd_control_xfer_cb+0x218>
20007a26:	1dbb      	adds	r3, r7, #6
20007a28:	781b      	ldrb	r3, [r3, #0]
20007a2a:	2b01      	cmp	r3, #1
20007a2c:	d107      	bne.n	20007a3e <cdcd_control_xfer_cb+0x1e2>
20007a2e:	683a      	ldr	r2, [r7, #0]
20007a30:	1dfb      	adds	r3, r7, #7
20007a32:	781b      	ldrb	r3, [r3, #0]
20007a34:	0011      	movs	r1, r2
20007a36:	0018      	movs	r0, r3
20007a38:	f7ff f9c2 	bl	20006dc0 <tud_control_status>
20007a3c:	e01c      	b.n	20007a78 <cdcd_control_xfer_cb+0x21c>
20007a3e:	1dbb      	adds	r3, r7, #6
20007a40:	781b      	ldrb	r3, [r3, #0]
20007a42:	2b03      	cmp	r3, #3
20007a44:	d118      	bne.n	20007a78 <cdcd_control_xfer_cb+0x21c>
20007a46:	4b12      	ldr	r3, [pc, #72]	@ (20007a90 <cdcd_control_xfer_cb+0x234>)
20007a48:	2b00      	cmp	r3, #0
20007a4a:	d015      	beq.n	20007a78 <cdcd_control_xfer_cb+0x21c>
20007a4c:	683b      	ldr	r3, [r7, #0]
20007a4e:	789a      	ldrb	r2, [r3, #2]
20007a50:	78db      	ldrb	r3, [r3, #3]
20007a52:	021b      	lsls	r3, r3, #8
20007a54:	4313      	orrs	r3, r2
20007a56:	b29a      	uxth	r2, r3
20007a58:	2327      	movs	r3, #39	@ 0x27
20007a5a:	18fb      	adds	r3, r7, r3
20007a5c:	781b      	ldrb	r3, [r3, #0]
20007a5e:	0011      	movs	r1, r2
20007a60:	0018      	movs	r0, r3
20007a62:	e000      	b.n	20007a66 <cdcd_control_xfer_cb+0x20a>
20007a64:	bf00      	nop
20007a66:	e007      	b.n	20007a78 <cdcd_control_xfer_cb+0x21c>
20007a68:	2300      	movs	r3, #0
20007a6a:	e007      	b.n	20007a7c <cdcd_control_xfer_cb+0x220>
20007a6c:	46c0      	nop			@ (mov r8, r8)
20007a6e:	e004      	b.n	20007a7a <cdcd_control_xfer_cb+0x21e>
20007a70:	46c0      	nop			@ (mov r8, r8)
20007a72:	e002      	b.n	20007a7a <cdcd_control_xfer_cb+0x21e>
20007a74:	46c0      	nop			@ (mov r8, r8)
20007a76:	e000      	b.n	20007a7a <cdcd_control_xfer_cb+0x21e>
20007a78:	46c0      	nop			@ (mov r8, r8)
20007a7a:	2301      	movs	r3, #1
20007a7c:	0018      	movs	r0, r3
20007a7e:	46bd      	mov	sp, r7
20007a80:	b00a      	add	sp, #40	@ 0x28
20007a82:	bdb0      	pop	{r4, r5, r7, pc}
20007a84:	2000b2d4 	.word	0x2000b2d4
20007a88:	20004875 	.word	0x20004875
	...

20007a94 <cdcd_xfer_cb>:
20007a94:	b590      	push	{r4, r7, lr}
20007a96:	b087      	sub	sp, #28
20007a98:	af00      	add	r7, sp, #0
20007a9a:	0004      	movs	r4, r0
20007a9c:	0008      	movs	r0, r1
20007a9e:	0011      	movs	r1, r2
20007aa0:	603b      	str	r3, [r7, #0]
20007aa2:	1dfb      	adds	r3, r7, #7
20007aa4:	1c22      	adds	r2, r4, #0
20007aa6:	701a      	strb	r2, [r3, #0]
20007aa8:	1dbb      	adds	r3, r7, #6
20007aaa:	1c02      	adds	r2, r0, #0
20007aac:	701a      	strb	r2, [r3, #0]
20007aae:	1d7b      	adds	r3, r7, #5
20007ab0:	1c0a      	adds	r2, r1, #0
20007ab2:	701a      	strb	r2, [r3, #0]
20007ab4:	2317      	movs	r3, #23
20007ab6:	18fb      	adds	r3, r7, r3
20007ab8:	2200      	movs	r2, #0
20007aba:	701a      	strb	r2, [r3, #0]
20007abc:	e019      	b.n	20007af2 <cdcd_xfer_cb+0x5e>
20007abe:	2117      	movs	r1, #23
20007ac0:	187b      	adds	r3, r7, r1
20007ac2:	781b      	ldrb	r3, [r3, #0]
20007ac4:	22b2      	movs	r2, #178	@ 0xb2
20007ac6:	0092      	lsls	r2, r2, #2
20007ac8:	435a      	muls	r2, r3
20007aca:	4b5c      	ldr	r3, [pc, #368]	@ (20007c3c <cdcd_xfer_cb+0x1a8>)
20007acc:	18d3      	adds	r3, r2, r3
20007ace:	613b      	str	r3, [r7, #16]
20007ad0:	693b      	ldr	r3, [r7, #16]
20007ad2:	78db      	ldrb	r3, [r3, #3]
20007ad4:	1dba      	adds	r2, r7, #6
20007ad6:	7812      	ldrb	r2, [r2, #0]
20007ad8:	429a      	cmp	r2, r3
20007ada:	d00f      	beq.n	20007afc <cdcd_xfer_cb+0x68>
20007adc:	693b      	ldr	r3, [r7, #16]
20007ade:	789b      	ldrb	r3, [r3, #2]
20007ae0:	1dba      	adds	r2, r7, #6
20007ae2:	7812      	ldrb	r2, [r2, #0]
20007ae4:	429a      	cmp	r2, r3
20007ae6:	d009      	beq.n	20007afc <cdcd_xfer_cb+0x68>
20007ae8:	187b      	adds	r3, r7, r1
20007aea:	781a      	ldrb	r2, [r3, #0]
20007aec:	187b      	adds	r3, r7, r1
20007aee:	3201      	adds	r2, #1
20007af0:	701a      	strb	r2, [r3, #0]
20007af2:	2317      	movs	r3, #23
20007af4:	18fb      	adds	r3, r7, r3
20007af6:	781b      	ldrb	r3, [r3, #0]
20007af8:	2b00      	cmp	r3, #0
20007afa:	d0e0      	beq.n	20007abe <cdcd_xfer_cb+0x2a>
20007afc:	2317      	movs	r3, #23
20007afe:	18fb      	adds	r3, r7, r3
20007b00:	781b      	ldrb	r3, [r3, #0]
20007b02:	2b00      	cmp	r3, #0
20007b04:	d001      	beq.n	20007b0a <cdcd_xfer_cb+0x76>
20007b06:	2300      	movs	r3, #0
20007b08:	e094      	b.n	20007c34 <cdcd_xfer_cb+0x1a0>
20007b0a:	693b      	ldr	r3, [r7, #16]
20007b0c:	78db      	ldrb	r3, [r3, #3]
20007b0e:	1dba      	adds	r2, r7, #6
20007b10:	7812      	ldrb	r2, [r2, #0]
20007b12:	429a      	cmp	r2, r3
20007b14:	d156      	bne.n	20007bc4 <cdcd_xfer_cb+0x130>
20007b16:	693b      	ldr	r3, [r7, #16]
20007b18:	3310      	adds	r3, #16
20007b1a:	0018      	movs	r0, r3
20007b1c:	693b      	ldr	r3, [r7, #16]
20007b1e:	2292      	movs	r2, #146	@ 0x92
20007b20:	0092      	lsls	r2, r2, #2
20007b22:	4694      	mov	ip, r2
20007b24:	4463      	add	r3, ip
20007b26:	683a      	ldr	r2, [r7, #0]
20007b28:	b292      	uxth	r2, r2
20007b2a:	0019      	movs	r1, r3
20007b2c:	f001 faaf 	bl	2000908e <tu_fifo_write_n>
20007b30:	4b43      	ldr	r3, [pc, #268]	@ (20007c40 <cdcd_xfer_cb+0x1ac>)
20007b32:	2b00      	cmp	r3, #0
20007b34:	d02d      	beq.n	20007b92 <cdcd_xfer_cb+0xfe>
20007b36:	693b      	ldr	r3, [r7, #16]
20007b38:	795b      	ldrb	r3, [r3, #5]
20007b3a:	2bff      	cmp	r3, #255	@ 0xff
20007b3c:	d029      	beq.n	20007b92 <cdcd_xfer_cb+0xfe>
20007b3e:	2300      	movs	r3, #0
20007b40:	60fb      	str	r3, [r7, #12]
20007b42:	e022      	b.n	20007b8a <cdcd_xfer_cb+0xf6>
20007b44:	693b      	ldr	r3, [r7, #16]
20007b46:	795a      	ldrb	r2, [r3, #5]
20007b48:	6938      	ldr	r0, [r7, #16]
20007b4a:	2392      	movs	r3, #146	@ 0x92
20007b4c:	009b      	lsls	r3, r3, #2
20007b4e:	68f9      	ldr	r1, [r7, #12]
20007b50:	1841      	adds	r1, r0, r1
20007b52:	18cb      	adds	r3, r1, r3
20007b54:	781b      	ldrb	r3, [r3, #0]
20007b56:	429a      	cmp	r2, r3
20007b58:	d114      	bne.n	20007b84 <cdcd_xfer_cb+0xf0>
20007b5a:	693b      	ldr	r3, [r7, #16]
20007b5c:	3310      	adds	r3, #16
20007b5e:	0018      	movs	r0, r3
20007b60:	f001 f915 	bl	20008d8e <tu_fifo_empty>
20007b64:	0003      	movs	r3, r0
20007b66:	001a      	movs	r2, r3
20007b68:	2301      	movs	r3, #1
20007b6a:	4053      	eors	r3, r2
20007b6c:	b2db      	uxtb	r3, r3
20007b6e:	2b00      	cmp	r3, #0
20007b70:	d008      	beq.n	20007b84 <cdcd_xfer_cb+0xf0>
20007b72:	693b      	ldr	r3, [r7, #16]
20007b74:	795a      	ldrb	r2, [r3, #5]
20007b76:	2317      	movs	r3, #23
20007b78:	18fb      	adds	r3, r7, r3
20007b7a:	781b      	ldrb	r3, [r3, #0]
20007b7c:	0011      	movs	r1, r2
20007b7e:	0018      	movs	r0, r3
20007b80:	e000      	b.n	20007b84 <cdcd_xfer_cb+0xf0>
20007b82:	bf00      	nop
20007b84:	68fb      	ldr	r3, [r7, #12]
20007b86:	3301      	adds	r3, #1
20007b88:	60fb      	str	r3, [r7, #12]
20007b8a:	68fa      	ldr	r2, [r7, #12]
20007b8c:	683b      	ldr	r3, [r7, #0]
20007b8e:	429a      	cmp	r2, r3
20007b90:	d3d8      	bcc.n	20007b44 <cdcd_xfer_cb+0xb0>
20007b92:	4b2c      	ldr	r3, [pc, #176]	@ (20007c44 <cdcd_xfer_cb+0x1b0>)
20007b94:	2b00      	cmp	r3, #0
20007b96:	d011      	beq.n	20007bbc <cdcd_xfer_cb+0x128>
20007b98:	693b      	ldr	r3, [r7, #16]
20007b9a:	3310      	adds	r3, #16
20007b9c:	0018      	movs	r0, r3
20007b9e:	f001 f8f6 	bl	20008d8e <tu_fifo_empty>
20007ba2:	0003      	movs	r3, r0
20007ba4:	001a      	movs	r2, r3
20007ba6:	2301      	movs	r3, #1
20007ba8:	4053      	eors	r3, r2
20007baa:	b2db      	uxtb	r3, r3
20007bac:	2b00      	cmp	r3, #0
20007bae:	d005      	beq.n	20007bbc <cdcd_xfer_cb+0x128>
20007bb0:	2317      	movs	r3, #23
20007bb2:	18fb      	adds	r3, r7, r3
20007bb4:	781b      	ldrb	r3, [r3, #0]
20007bb6:	0018      	movs	r0, r3
20007bb8:	f7fd f962 	bl	20004e80 <tud_cdc_rx_cb>
20007bbc:	693b      	ldr	r3, [r7, #16]
20007bbe:	0018      	movs	r0, r3
20007bc0:	f7ff fadc 	bl	2000717c <_prep_out_transaction>
20007bc4:	693b      	ldr	r3, [r7, #16]
20007bc6:	789b      	ldrb	r3, [r3, #2]
20007bc8:	1dba      	adds	r2, r7, #6
20007bca:	7812      	ldrb	r2, [r2, #0]
20007bcc:	429a      	cmp	r2, r3
20007bce:	d130      	bne.n	20007c32 <cdcd_xfer_cb+0x19e>
20007bd0:	4b1d      	ldr	r3, [pc, #116]	@ (20007c48 <cdcd_xfer_cb+0x1b4>)
20007bd2:	2b00      	cmp	r3, #0
20007bd4:	d005      	beq.n	20007be2 <cdcd_xfer_cb+0x14e>
20007bd6:	2317      	movs	r3, #23
20007bd8:	18fb      	adds	r3, r7, r3
20007bda:	781b      	ldrb	r3, [r3, #0]
20007bdc:	0018      	movs	r0, r3
20007bde:	e000      	b.n	20007be2 <cdcd_xfer_cb+0x14e>
20007be0:	bf00      	nop
20007be2:	2317      	movs	r3, #23
20007be4:	18fb      	adds	r3, r7, r3
20007be6:	781b      	ldrb	r3, [r3, #0]
20007be8:	0018      	movs	r0, r3
20007bea:	f7ff fbd1 	bl	20007390 <tud_cdc_n_write_flush>
20007bee:	1e03      	subs	r3, r0, #0
20007bf0:	d11f      	bne.n	20007c32 <cdcd_xfer_cb+0x19e>
20007bf2:	693b      	ldr	r3, [r7, #16]
20007bf4:	3324      	adds	r3, #36	@ 0x24
20007bf6:	0018      	movs	r0, r3
20007bf8:	f001 f87f 	bl	20008cfa <tu_fifo_count>
20007bfc:	1e03      	subs	r3, r0, #0
20007bfe:	d118      	bne.n	20007c32 <cdcd_xfer_cb+0x19e>
20007c00:	683b      	ldr	r3, [r7, #0]
20007c02:	2b00      	cmp	r3, #0
20007c04:	d015      	beq.n	20007c32 <cdcd_xfer_cb+0x19e>
20007c06:	683b      	ldr	r3, [r7, #0]
20007c08:	223f      	movs	r2, #63	@ 0x3f
20007c0a:	4013      	ands	r3, r2
20007c0c:	d111      	bne.n	20007c32 <cdcd_xfer_cb+0x19e>
20007c0e:	693b      	ldr	r3, [r7, #16]
20007c10:	789a      	ldrb	r2, [r3, #2]
20007c12:	1dfb      	adds	r3, r7, #7
20007c14:	781b      	ldrb	r3, [r3, #0]
20007c16:	0011      	movs	r1, r2
20007c18:	0018      	movs	r0, r3
20007c1a:	f7fe feb1 	bl	20006980 <usbd_edpt_claim>
20007c1e:	1e03      	subs	r3, r0, #0
20007c20:	d007      	beq.n	20007c32 <cdcd_xfer_cb+0x19e>
20007c22:	693b      	ldr	r3, [r7, #16]
20007c24:	7899      	ldrb	r1, [r3, #2]
20007c26:	1dfb      	adds	r3, r7, #7
20007c28:	7818      	ldrb	r0, [r3, #0]
20007c2a:	2300      	movs	r3, #0
20007c2c:	2200      	movs	r2, #0
20007c2e:	f7fe ff23 	bl	20006a78 <usbd_edpt_xfer>
20007c32:	2301      	movs	r3, #1
20007c34:	0018      	movs	r0, r3
20007c36:	46bd      	mov	sp, r7
20007c38:	b007      	add	sp, #28
20007c3a:	bd90      	pop	{r4, r7, pc}
20007c3c:	2000b2d4 	.word	0x2000b2d4
20007c40:	00000000 	.word	0x00000000
20007c44:	20004e81 	.word	0x20004e81
20007c48:	00000000 	.word	0x00000000

20007c4c <tusb_init>:
20007c4c:	b580      	push	{r7, lr}
20007c4e:	af00      	add	r7, sp, #0
20007c50:	2000      	movs	r0, #0
20007c52:	f7fd ff05 	bl	20005a60 <tud_init>
20007c56:	0003      	movs	r3, r0
20007c58:	001a      	movs	r2, r3
20007c5a:	2301      	movs	r3, #1
20007c5c:	4053      	eors	r3, r2
20007c5e:	b2db      	uxtb	r3, r3
20007c60:	2b00      	cmp	r3, #0
20007c62:	d001      	beq.n	20007c68 <tusb_init+0x1c>
20007c64:	2300      	movs	r3, #0
20007c66:	e000      	b.n	20007c6a <tusb_init+0x1e>
20007c68:	2301      	movs	r3, #1
20007c6a:	0018      	movs	r0, r3
20007c6c:	46bd      	mov	sp, r7
20007c6e:	bd80      	pop	{r7, pc}

20007c70 <tusb_inited>:
20007c70:	b580      	push	{r7, lr}
20007c72:	b082      	sub	sp, #8
20007c74:	af00      	add	r7, sp, #0
20007c76:	1dfb      	adds	r3, r7, #7
20007c78:	2200      	movs	r2, #0
20007c7a:	701a      	strb	r2, [r3, #0]
20007c7c:	1dfb      	adds	r3, r7, #7
20007c7e:	781b      	ldrb	r3, [r3, #0]
20007c80:	2b00      	cmp	r3, #0
20007c82:	d103      	bne.n	20007c8c <tusb_inited+0x1c>
20007c84:	f7fd fede 	bl	20005a44 <tud_inited>
20007c88:	1e03      	subs	r3, r0, #0
20007c8a:	d001      	beq.n	20007c90 <tusb_inited+0x20>
20007c8c:	2201      	movs	r2, #1
20007c8e:	e000      	b.n	20007c92 <tusb_inited+0x22>
20007c90:	2200      	movs	r2, #0
20007c92:	1dfb      	adds	r3, r7, #7
20007c94:	701a      	strb	r2, [r3, #0]
20007c96:	781a      	ldrb	r2, [r3, #0]
20007c98:	2101      	movs	r1, #1
20007c9a:	400a      	ands	r2, r1
20007c9c:	701a      	strb	r2, [r3, #0]
20007c9e:	1dfb      	adds	r3, r7, #7
20007ca0:	781b      	ldrb	r3, [r3, #0]
20007ca2:	0018      	movs	r0, r3
20007ca4:	46bd      	mov	sp, r7
20007ca6:	b002      	add	sp, #8
20007ca8:	bd80      	pop	{r7, pc}

20007caa <tu_edpt_claim>:
20007caa:	b580      	push	{r7, lr}
20007cac:	b086      	sub	sp, #24
20007cae:	af00      	add	r7, sp, #0
20007cb0:	6078      	str	r0, [r7, #4]
20007cb2:	6039      	str	r1, [r7, #0]
20007cb4:	687b      	ldr	r3, [r7, #4]
20007cb6:	781b      	ldrb	r3, [r3, #0]
20007cb8:	07db      	lsls	r3, r3, #31
20007cba:	0fdb      	lsrs	r3, r3, #31
20007cbc:	b2db      	uxtb	r3, r3
20007cbe:	2b00      	cmp	r3, #0
20007cc0:	d106      	bne.n	20007cd0 <tu_edpt_claim+0x26>
20007cc2:	687b      	ldr	r3, [r7, #4]
20007cc4:	781b      	ldrb	r3, [r3, #0]
20007cc6:	075b      	lsls	r3, r3, #29
20007cc8:	0fdb      	lsrs	r3, r3, #31
20007cca:	b2db      	uxtb	r3, r3
20007ccc:	2b00      	cmp	r3, #0
20007cce:	d001      	beq.n	20007cd4 <tu_edpt_claim+0x2a>
20007cd0:	2300      	movs	r3, #0
20007cd2:	e034      	b.n	20007d3e <tu_edpt_claim+0x94>
20007cd4:	683b      	ldr	r3, [r7, #0]
20007cd6:	613b      	str	r3, [r7, #16]
20007cd8:	2301      	movs	r3, #1
20007cda:	425b      	negs	r3, r3
20007cdc:	60fb      	str	r3, [r7, #12]
20007cde:	68fa      	ldr	r2, [r7, #12]
20007ce0:	693b      	ldr	r3, [r7, #16]
20007ce2:	0011      	movs	r1, r2
20007ce4:	0018      	movs	r0, r3
20007ce6:	f001 ff77 	bl	20009bd8 <mutex_enter_timeout_ms>
20007cea:	687b      	ldr	r3, [r7, #4]
20007cec:	781b      	ldrb	r3, [r3, #0]
20007cee:	07db      	lsls	r3, r3, #31
20007cf0:	0fdb      	lsrs	r3, r3, #31
20007cf2:	b2db      	uxtb	r3, r3
20007cf4:	2b00      	cmp	r3, #0
20007cf6:	d108      	bne.n	20007d0a <tu_edpt_claim+0x60>
20007cf8:	687b      	ldr	r3, [r7, #4]
20007cfa:	781b      	ldrb	r3, [r3, #0]
20007cfc:	075b      	lsls	r3, r3, #29
20007cfe:	0fdb      	lsrs	r3, r3, #31
20007d00:	b2db      	uxtb	r3, r3
20007d02:	2b00      	cmp	r3, #0
20007d04:	d101      	bne.n	20007d0a <tu_edpt_claim+0x60>
20007d06:	2201      	movs	r2, #1
20007d08:	e000      	b.n	20007d0c <tu_edpt_claim+0x62>
20007d0a:	2200      	movs	r2, #0
20007d0c:	2017      	movs	r0, #23
20007d0e:	183b      	adds	r3, r7, r0
20007d10:	701a      	strb	r2, [r3, #0]
20007d12:	781a      	ldrb	r2, [r3, #0]
20007d14:	2101      	movs	r1, #1
20007d16:	400a      	ands	r2, r1
20007d18:	701a      	strb	r2, [r3, #0]
20007d1a:	183b      	adds	r3, r7, r0
20007d1c:	781b      	ldrb	r3, [r3, #0]
20007d1e:	2b00      	cmp	r3, #0
20007d20:	d004      	beq.n	20007d2c <tu_edpt_claim+0x82>
20007d22:	687a      	ldr	r2, [r7, #4]
20007d24:	7813      	ldrb	r3, [r2, #0]
20007d26:	2104      	movs	r1, #4
20007d28:	430b      	orrs	r3, r1
20007d2a:	7013      	strb	r3, [r2, #0]
20007d2c:	683b      	ldr	r3, [r7, #0]
20007d2e:	60bb      	str	r3, [r7, #8]
20007d30:	68bb      	ldr	r3, [r7, #8]
20007d32:	0018      	movs	r0, r3
20007d34:	f001 ffcf 	bl	20009cd6 <mutex_exit>
20007d38:	2317      	movs	r3, #23
20007d3a:	18fb      	adds	r3, r7, r3
20007d3c:	781b      	ldrb	r3, [r3, #0]
20007d3e:	0018      	movs	r0, r3
20007d40:	46bd      	mov	sp, r7
20007d42:	b006      	add	sp, #24
20007d44:	bd80      	pop	{r7, pc}

20007d46 <tu_edpt_release>:
20007d46:	b580      	push	{r7, lr}
20007d48:	b086      	sub	sp, #24
20007d4a:	af00      	add	r7, sp, #0
20007d4c:	6078      	str	r0, [r7, #4]
20007d4e:	6039      	str	r1, [r7, #0]
20007d50:	683b      	ldr	r3, [r7, #0]
20007d52:	613b      	str	r3, [r7, #16]
20007d54:	2301      	movs	r3, #1
20007d56:	425b      	negs	r3, r3
20007d58:	60fb      	str	r3, [r7, #12]
20007d5a:	68fa      	ldr	r2, [r7, #12]
20007d5c:	693b      	ldr	r3, [r7, #16]
20007d5e:	0011      	movs	r1, r2
20007d60:	0018      	movs	r0, r3
20007d62:	f001 ff39 	bl	20009bd8 <mutex_enter_timeout_ms>
20007d66:	687b      	ldr	r3, [r7, #4]
20007d68:	781b      	ldrb	r3, [r3, #0]
20007d6a:	075b      	lsls	r3, r3, #29
20007d6c:	0fdb      	lsrs	r3, r3, #31
20007d6e:	b2db      	uxtb	r3, r3
20007d70:	2b01      	cmp	r3, #1
20007d72:	d108      	bne.n	20007d86 <tu_edpt_release+0x40>
20007d74:	687b      	ldr	r3, [r7, #4]
20007d76:	781b      	ldrb	r3, [r3, #0]
20007d78:	07db      	lsls	r3, r3, #31
20007d7a:	0fdb      	lsrs	r3, r3, #31
20007d7c:	b2db      	uxtb	r3, r3
20007d7e:	2b00      	cmp	r3, #0
20007d80:	d101      	bne.n	20007d86 <tu_edpt_release+0x40>
20007d82:	2201      	movs	r2, #1
20007d84:	e000      	b.n	20007d88 <tu_edpt_release+0x42>
20007d86:	2200      	movs	r2, #0
20007d88:	2017      	movs	r0, #23
20007d8a:	183b      	adds	r3, r7, r0
20007d8c:	701a      	strb	r2, [r3, #0]
20007d8e:	781a      	ldrb	r2, [r3, #0]
20007d90:	2101      	movs	r1, #1
20007d92:	400a      	ands	r2, r1
20007d94:	701a      	strb	r2, [r3, #0]
20007d96:	183b      	adds	r3, r7, r0
20007d98:	781b      	ldrb	r3, [r3, #0]
20007d9a:	2b00      	cmp	r3, #0
20007d9c:	d004      	beq.n	20007da8 <tu_edpt_release+0x62>
20007d9e:	687a      	ldr	r2, [r7, #4]
20007da0:	7813      	ldrb	r3, [r2, #0]
20007da2:	2104      	movs	r1, #4
20007da4:	438b      	bics	r3, r1
20007da6:	7013      	strb	r3, [r2, #0]
20007da8:	683b      	ldr	r3, [r7, #0]
20007daa:	60bb      	str	r3, [r7, #8]
20007dac:	68bb      	ldr	r3, [r7, #8]
20007dae:	0018      	movs	r0, r3
20007db0:	f001 ff91 	bl	20009cd6 <mutex_exit>
20007db4:	2317      	movs	r3, #23
20007db6:	18fb      	adds	r3, r7, r3
20007db8:	781b      	ldrb	r3, [r3, #0]
20007dba:	0018      	movs	r0, r3
20007dbc:	46bd      	mov	sp, r7
20007dbe:	b006      	add	sp, #24
20007dc0:	bd80      	pop	{r7, pc}
	...

20007dc4 <tu_edpt_validate>:
20007dc4:	b580      	push	{r7, lr}
20007dc6:	b086      	sub	sp, #24
20007dc8:	af00      	add	r7, sp, #0
20007dca:	6078      	str	r0, [r7, #4]
20007dcc:	000a      	movs	r2, r1
20007dce:	1cfb      	adds	r3, r7, #3
20007dd0:	701a      	strb	r2, [r3, #0]
20007dd2:	687b      	ldr	r3, [r7, #4]
20007dd4:	60fb      	str	r3, [r7, #12]
20007dd6:	68fb      	ldr	r3, [r7, #12]
20007dd8:	791a      	ldrb	r2, [r3, #4]
20007dda:	795b      	ldrb	r3, [r3, #5]
20007ddc:	021b      	lsls	r3, r3, #8
20007dde:	4313      	orrs	r3, r2
20007de0:	b29b      	uxth	r3, r3
20007de2:	055b      	lsls	r3, r3, #21
20007de4:	0d5b      	lsrs	r3, r3, #21
20007de6:	b29a      	uxth	r2, r3
20007de8:	2316      	movs	r3, #22
20007dea:	18fb      	adds	r3, r7, r3
20007dec:	801a      	strh	r2, [r3, #0]
20007dee:	687b      	ldr	r3, [r7, #4]
20007df0:	78db      	ldrb	r3, [r3, #3]
20007df2:	079b      	lsls	r3, r3, #30
20007df4:	0f9b      	lsrs	r3, r3, #30
20007df6:	b2db      	uxtb	r3, r3
20007df8:	2b03      	cmp	r3, #3
20007dfa:	d02d      	beq.n	20007e58 <tu_edpt_validate+0x94>
20007dfc:	dc40      	bgt.n	20007e80 <tu_edpt_validate+0xbc>
20007dfe:	2b01      	cmp	r3, #1
20007e00:	d002      	beq.n	20007e08 <tu_edpt_validate+0x44>
20007e02:	2b02      	cmp	r3, #2
20007e04:	d014      	beq.n	20007e30 <tu_edpt_validate+0x6c>
20007e06:	e03b      	b.n	20007e80 <tu_edpt_validate+0xbc>
20007e08:	1cfb      	adds	r3, r7, #3
20007e0a:	781b      	ldrb	r3, [r3, #0]
20007e0c:	2b02      	cmp	r3, #2
20007e0e:	d102      	bne.n	20007e16 <tu_edpt_validate+0x52>
20007e10:	2380      	movs	r3, #128	@ 0x80
20007e12:	00da      	lsls	r2, r3, #3
20007e14:	e000      	b.n	20007e18 <tu_edpt_validate+0x54>
20007e16:	4a20      	ldr	r2, [pc, #128]	@ (20007e98 <tu_edpt_validate+0xd4>)
20007e18:	2112      	movs	r1, #18
20007e1a:	187b      	adds	r3, r7, r1
20007e1c:	801a      	strh	r2, [r3, #0]
20007e1e:	2316      	movs	r3, #22
20007e20:	18fa      	adds	r2, r7, r3
20007e22:	187b      	adds	r3, r7, r1
20007e24:	8812      	ldrh	r2, [r2, #0]
20007e26:	881b      	ldrh	r3, [r3, #0]
20007e28:	429a      	cmp	r2, r3
20007e2a:	d92b      	bls.n	20007e84 <tu_edpt_validate+0xc0>
20007e2c:	2300      	movs	r3, #0
20007e2e:	e02f      	b.n	20007e90 <tu_edpt_validate+0xcc>
20007e30:	1cfb      	adds	r3, r7, #3
20007e32:	781b      	ldrb	r3, [r3, #0]
20007e34:	2b02      	cmp	r3, #2
20007e36:	d108      	bne.n	20007e4a <tu_edpt_validate+0x86>
20007e38:	2316      	movs	r3, #22
20007e3a:	18fb      	adds	r3, r7, r3
20007e3c:	881a      	ldrh	r2, [r3, #0]
20007e3e:	2380      	movs	r3, #128	@ 0x80
20007e40:	009b      	lsls	r3, r3, #2
20007e42:	429a      	cmp	r2, r3
20007e44:	d020      	beq.n	20007e88 <tu_edpt_validate+0xc4>
20007e46:	2300      	movs	r3, #0
20007e48:	e022      	b.n	20007e90 <tu_edpt_validate+0xcc>
20007e4a:	2316      	movs	r3, #22
20007e4c:	18fb      	adds	r3, r7, r3
20007e4e:	881b      	ldrh	r3, [r3, #0]
20007e50:	2b40      	cmp	r3, #64	@ 0x40
20007e52:	d919      	bls.n	20007e88 <tu_edpt_validate+0xc4>
20007e54:	2300      	movs	r3, #0
20007e56:	e01b      	b.n	20007e90 <tu_edpt_validate+0xcc>
20007e58:	1cfb      	adds	r3, r7, #3
20007e5a:	781b      	ldrb	r3, [r3, #0]
20007e5c:	2b02      	cmp	r3, #2
20007e5e:	d102      	bne.n	20007e66 <tu_edpt_validate+0xa2>
20007e60:	2380      	movs	r3, #128	@ 0x80
20007e62:	00da      	lsls	r2, r3, #3
20007e64:	e000      	b.n	20007e68 <tu_edpt_validate+0xa4>
20007e66:	2240      	movs	r2, #64	@ 0x40
20007e68:	2114      	movs	r1, #20
20007e6a:	187b      	adds	r3, r7, r1
20007e6c:	801a      	strh	r2, [r3, #0]
20007e6e:	2316      	movs	r3, #22
20007e70:	18fa      	adds	r2, r7, r3
20007e72:	187b      	adds	r3, r7, r1
20007e74:	8812      	ldrh	r2, [r2, #0]
20007e76:	881b      	ldrh	r3, [r3, #0]
20007e78:	429a      	cmp	r2, r3
20007e7a:	d907      	bls.n	20007e8c <tu_edpt_validate+0xc8>
20007e7c:	2300      	movs	r3, #0
20007e7e:	e007      	b.n	20007e90 <tu_edpt_validate+0xcc>
20007e80:	2300      	movs	r3, #0
20007e82:	e005      	b.n	20007e90 <tu_edpt_validate+0xcc>
20007e84:	46c0      	nop			@ (mov r8, r8)
20007e86:	e002      	b.n	20007e8e <tu_edpt_validate+0xca>
20007e88:	46c0      	nop			@ (mov r8, r8)
20007e8a:	e000      	b.n	20007e8e <tu_edpt_validate+0xca>
20007e8c:	46c0      	nop			@ (mov r8, r8)
20007e8e:	2301      	movs	r3, #1
20007e90:	0018      	movs	r0, r3
20007e92:	46bd      	mov	sp, r7
20007e94:	b006      	add	sp, #24
20007e96:	bd80      	pop	{r7, pc}
20007e98:	000003ff 	.word	0x000003ff

20007e9c <tu_edpt_bind_driver>:
20007e9c:	b580      	push	{r7, lr}
20007e9e:	b08c      	sub	sp, #48	@ 0x30
20007ea0:	af00      	add	r7, sp, #0
20007ea2:	60f8      	str	r0, [r7, #12]
20007ea4:	60b9      	str	r1, [r7, #8]
20007ea6:	0019      	movs	r1, r3
20007ea8:	1dbb      	adds	r3, r7, #6
20007eaa:	801a      	strh	r2, [r3, #0]
20007eac:	1d7b      	adds	r3, r7, #5
20007eae:	1c0a      	adds	r2, r1, #0
20007eb0:	701a      	strb	r2, [r3, #0]
20007eb2:	68bb      	ldr	r3, [r7, #8]
20007eb4:	62fb      	str	r3, [r7, #44]	@ 0x2c
20007eb6:	1dbb      	adds	r3, r7, #6
20007eb8:	881b      	ldrh	r3, [r3, #0]
20007eba:	6afa      	ldr	r2, [r7, #44]	@ 0x2c
20007ebc:	18d3      	adds	r3, r2, r3
20007ebe:	62bb      	str	r3, [r7, #40]	@ 0x28
20007ec0:	e02f      	b.n	20007f22 <tu_edpt_bind_driver+0x86>
20007ec2:	6afb      	ldr	r3, [r7, #44]	@ 0x2c
20007ec4:	623b      	str	r3, [r7, #32]
20007ec6:	6a3b      	ldr	r3, [r7, #32]
20007ec8:	3301      	adds	r3, #1
20007eca:	781b      	ldrb	r3, [r3, #0]
20007ecc:	2b05      	cmp	r3, #5
20007ece:	d11e      	bne.n	20007f0e <tu_edpt_bind_driver+0x72>
20007ed0:	2127      	movs	r1, #39	@ 0x27
20007ed2:	187b      	adds	r3, r7, r1
20007ed4:	6afa      	ldr	r2, [r7, #44]	@ 0x2c
20007ed6:	7892      	ldrb	r2, [r2, #2]
20007ed8:	701a      	strb	r2, [r3, #0]
20007eda:	201e      	movs	r0, #30
20007edc:	183b      	adds	r3, r7, r0
20007ede:	187a      	adds	r2, r7, r1
20007ee0:	7812      	ldrb	r2, [r2, #0]
20007ee2:	701a      	strb	r2, [r3, #0]
20007ee4:	183b      	adds	r3, r7, r0
20007ee6:	781b      	ldrb	r3, [r3, #0]
20007ee8:	227f      	movs	r2, #127	@ 0x7f
20007eea:	4013      	ands	r3, r2
20007eec:	b2db      	uxtb	r3, r3
20007eee:	005b      	lsls	r3, r3, #1
20007ef0:	68fa      	ldr	r2, [r7, #12]
20007ef2:	18d3      	adds	r3, r2, r3
20007ef4:	201f      	movs	r0, #31
20007ef6:	183a      	adds	r2, r7, r0
20007ef8:	1879      	adds	r1, r7, r1
20007efa:	7809      	ldrb	r1, [r1, #0]
20007efc:	7011      	strb	r1, [r2, #0]
20007efe:	183a      	adds	r2, r7, r0
20007f00:	7812      	ldrb	r2, [r2, #0]
20007f02:	09d2      	lsrs	r2, r2, #7
20007f04:	b2d2      	uxtb	r2, r2
20007f06:	0011      	movs	r1, r2
20007f08:	1d7a      	adds	r2, r7, #5
20007f0a:	7812      	ldrb	r2, [r2, #0]
20007f0c:	545a      	strb	r2, [r3, r1]
20007f0e:	6afb      	ldr	r3, [r7, #44]	@ 0x2c
20007f10:	61bb      	str	r3, [r7, #24]
20007f12:	69bb      	ldr	r3, [r7, #24]
20007f14:	617b      	str	r3, [r7, #20]
20007f16:	697b      	ldr	r3, [r7, #20]
20007f18:	781b      	ldrb	r3, [r3, #0]
20007f1a:	001a      	movs	r2, r3
20007f1c:	697b      	ldr	r3, [r7, #20]
20007f1e:	189b      	adds	r3, r3, r2
20007f20:	62fb      	str	r3, [r7, #44]	@ 0x2c
20007f22:	6afa      	ldr	r2, [r7, #44]	@ 0x2c
20007f24:	6abb      	ldr	r3, [r7, #40]	@ 0x28
20007f26:	429a      	cmp	r2, r3
20007f28:	d3cb      	bcc.n	20007ec2 <tu_edpt_bind_driver+0x26>
20007f2a:	46c0      	nop			@ (mov r8, r8)
20007f2c:	46c0      	nop			@ (mov r8, r8)
20007f2e:	46bd      	mov	sp, r7
20007f30:	b00c      	add	sp, #48	@ 0x30
20007f32:	bd80      	pop	{r7, pc}

20007f34 <tu_fifo_config>:
20007f34:	b580      	push	{r7, lr}
20007f36:	b08e      	sub	sp, #56	@ 0x38
20007f38:	af00      	add	r7, sp, #0
20007f3a:	60f8      	str	r0, [r7, #12]
20007f3c:	60b9      	str	r1, [r7, #8]
20007f3e:	0019      	movs	r1, r3
20007f40:	1dbb      	adds	r3, r7, #6
20007f42:	801a      	strh	r2, [r3, #0]
20007f44:	1d3b      	adds	r3, r7, #4
20007f46:	1c0a      	adds	r2, r1, #0
20007f48:	801a      	strh	r2, [r3, #0]
20007f4a:	1dbb      	adds	r3, r7, #6
20007f4c:	881a      	ldrh	r2, [r3, #0]
20007f4e:	2380      	movs	r3, #128	@ 0x80
20007f50:	021b      	lsls	r3, r3, #8
20007f52:	429a      	cmp	r2, r3
20007f54:	d901      	bls.n	20007f5a <tu_fifo_config+0x26>
20007f56:	2300      	movs	r3, #0
20007f58:	e066      	b.n	20008028 <tu_fifo_config+0xf4>
20007f5a:	68fb      	ldr	r3, [r7, #12]
20007f5c:	68db      	ldr	r3, [r3, #12]
20007f5e:	61bb      	str	r3, [r7, #24]
20007f60:	69bb      	ldr	r3, [r7, #24]
20007f62:	2b00      	cmp	r3, #0
20007f64:	d00a      	beq.n	20007f7c <tu_fifo_config+0x48>
20007f66:	69bb      	ldr	r3, [r7, #24]
20007f68:	617b      	str	r3, [r7, #20]
20007f6a:	2301      	movs	r3, #1
20007f6c:	425b      	negs	r3, r3
20007f6e:	613b      	str	r3, [r7, #16]
20007f70:	693a      	ldr	r2, [r7, #16]
20007f72:	697b      	ldr	r3, [r7, #20]
20007f74:	0011      	movs	r1, r2
20007f76:	0018      	movs	r0, r3
20007f78:	f001 fe2e 	bl	20009bd8 <mutex_enter_timeout_ms>
20007f7c:	46c0      	nop			@ (mov r8, r8)
20007f7e:	68fb      	ldr	r3, [r7, #12]
20007f80:	691b      	ldr	r3, [r3, #16]
20007f82:	627b      	str	r3, [r7, #36]	@ 0x24
20007f84:	6a7b      	ldr	r3, [r7, #36]	@ 0x24
20007f86:	2b00      	cmp	r3, #0
20007f88:	d00a      	beq.n	20007fa0 <tu_fifo_config+0x6c>
20007f8a:	6a7b      	ldr	r3, [r7, #36]	@ 0x24
20007f8c:	623b      	str	r3, [r7, #32]
20007f8e:	2301      	movs	r3, #1
20007f90:	425b      	negs	r3, r3
20007f92:	61fb      	str	r3, [r7, #28]
20007f94:	69fa      	ldr	r2, [r7, #28]
20007f96:	6a3b      	ldr	r3, [r7, #32]
20007f98:	0011      	movs	r1, r2
20007f9a:	0018      	movs	r0, r3
20007f9c:	f001 fe1c 	bl	20009bd8 <mutex_enter_timeout_ms>
20007fa0:	46c0      	nop			@ (mov r8, r8)
20007fa2:	68fb      	ldr	r3, [r7, #12]
20007fa4:	68ba      	ldr	r2, [r7, #8]
20007fa6:	601a      	str	r2, [r3, #0]
20007fa8:	68fb      	ldr	r3, [r7, #12]
20007faa:	1dba      	adds	r2, r7, #6
20007fac:	8812      	ldrh	r2, [r2, #0]
20007fae:	809a      	strh	r2, [r3, #4]
20007fb0:	1d3b      	adds	r3, r7, #4
20007fb2:	881b      	ldrh	r3, [r3, #0]
20007fb4:	045b      	lsls	r3, r3, #17
20007fb6:	0c5b      	lsrs	r3, r3, #17
20007fb8:	b29a      	uxth	r2, r3
20007fba:	68fb      	ldr	r3, [r7, #12]
20007fbc:	0452      	lsls	r2, r2, #17
20007fbe:	0c50      	lsrs	r0, r2, #17
20007fc0:	88da      	ldrh	r2, [r3, #6]
20007fc2:	0bd2      	lsrs	r2, r2, #15
20007fc4:	03d2      	lsls	r2, r2, #15
20007fc6:	1c11      	adds	r1, r2, #0
20007fc8:	1c02      	adds	r2, r0, #0
20007fca:	430a      	orrs	r2, r1
20007fcc:	80da      	strh	r2, [r3, #6]
20007fce:	68fb      	ldr	r3, [r7, #12]
20007fd0:	2240      	movs	r2, #64	@ 0x40
20007fd2:	18ba      	adds	r2, r7, r2
20007fd4:	7812      	ldrb	r2, [r2, #0]
20007fd6:	01d0      	lsls	r0, r2, #7
20007fd8:	79da      	ldrb	r2, [r3, #7]
20007fda:	217f      	movs	r1, #127	@ 0x7f
20007fdc:	400a      	ands	r2, r1
20007fde:	1c11      	adds	r1, r2, #0
20007fe0:	1c02      	adds	r2, r0, #0
20007fe2:	430a      	orrs	r2, r1
20007fe4:	71da      	strb	r2, [r3, #7]
20007fe6:	68fb      	ldr	r3, [r7, #12]
20007fe8:	2200      	movs	r2, #0
20007fea:	815a      	strh	r2, [r3, #10]
20007fec:	68fb      	ldr	r3, [r7, #12]
20007fee:	2200      	movs	r2, #0
20007ff0:	811a      	strh	r2, [r3, #8]
20007ff2:	68fb      	ldr	r3, [r7, #12]
20007ff4:	68db      	ldr	r3, [r3, #12]
20007ff6:	62fb      	str	r3, [r7, #44]	@ 0x2c
20007ff8:	6afb      	ldr	r3, [r7, #44]	@ 0x2c
20007ffa:	2b00      	cmp	r3, #0
20007ffc:	d005      	beq.n	2000800a <tu_fifo_config+0xd6>
20007ffe:	6afb      	ldr	r3, [r7, #44]	@ 0x2c
20008000:	62bb      	str	r3, [r7, #40]	@ 0x28
20008002:	6abb      	ldr	r3, [r7, #40]	@ 0x28
20008004:	0018      	movs	r0, r3
20008006:	f001 fe66 	bl	20009cd6 <mutex_exit>
2000800a:	46c0      	nop			@ (mov r8, r8)
2000800c:	68fb      	ldr	r3, [r7, #12]
2000800e:	691b      	ldr	r3, [r3, #16]
20008010:	637b      	str	r3, [r7, #52]	@ 0x34
20008012:	6b7b      	ldr	r3, [r7, #52]	@ 0x34
20008014:	2b00      	cmp	r3, #0
20008016:	d005      	beq.n	20008024 <tu_fifo_config+0xf0>
20008018:	6b7b      	ldr	r3, [r7, #52]	@ 0x34
2000801a:	633b      	str	r3, [r7, #48]	@ 0x30
2000801c:	6b3b      	ldr	r3, [r7, #48]	@ 0x30
2000801e:	0018      	movs	r0, r3
20008020:	f001 fe59 	bl	20009cd6 <mutex_exit>
20008024:	46c0      	nop			@ (mov r8, r8)
20008026:	2301      	movs	r3, #1
20008028:	0018      	movs	r0, r3
2000802a:	46bd      	mov	sp, r7
2000802c:	b00e      	add	sp, #56	@ 0x38
2000802e:	bd80      	pop	{r7, pc}

20008030 <_ff_push_const_addr>:
20008030:	b580      	push	{r7, lr}
20008032:	b08c      	sub	sp, #48	@ 0x30
20008034:	af00      	add	r7, sp, #0
20008036:	60f8      	str	r0, [r7, #12]
20008038:	60b9      	str	r1, [r7, #8]
2000803a:	1dbb      	adds	r3, r7, #6
2000803c:	801a      	strh	r2, [r3, #0]
2000803e:	68bb      	ldr	r3, [r7, #8]
20008040:	62bb      	str	r3, [r7, #40]	@ 0x28
20008042:	232e      	movs	r3, #46	@ 0x2e
20008044:	18fb      	adds	r3, r7, r3
20008046:	1dba      	adds	r2, r7, #6
20008048:	8812      	ldrh	r2, [r2, #0]
2000804a:	0892      	lsrs	r2, r2, #2
2000804c:	801a      	strh	r2, [r3, #0]
2000804e:	e033      	b.n	200080b8 <_ff_push_const_addr+0x88>
20008050:	6abb      	ldr	r3, [r7, #40]	@ 0x28
20008052:	681b      	ldr	r3, [r3, #0]
20008054:	68fa      	ldr	r2, [r7, #12]
20008056:	623a      	str	r2, [r7, #32]
20008058:	61fb      	str	r3, [r7, #28]
2000805a:	6a3b      	ldr	r3, [r7, #32]
2000805c:	61bb      	str	r3, [r7, #24]
2000805e:	69bb      	ldr	r3, [r7, #24]
20008060:	221c      	movs	r2, #28
20008062:	18ba      	adds	r2, r7, r2
20008064:	7810      	ldrb	r0, [r2, #0]
20008066:	781a      	ldrb	r2, [r3, #0]
20008068:	2100      	movs	r1, #0
2000806a:	400a      	ands	r2, r1
2000806c:	1c11      	adds	r1, r2, #0
2000806e:	1c02      	adds	r2, r0, #0
20008070:	430a      	orrs	r2, r1
20008072:	701a      	strb	r2, [r3, #0]
20008074:	221d      	movs	r2, #29
20008076:	18ba      	adds	r2, r7, r2
20008078:	7810      	ldrb	r0, [r2, #0]
2000807a:	785a      	ldrb	r2, [r3, #1]
2000807c:	2100      	movs	r1, #0
2000807e:	400a      	ands	r2, r1
20008080:	1c11      	adds	r1, r2, #0
20008082:	1c02      	adds	r2, r0, #0
20008084:	430a      	orrs	r2, r1
20008086:	705a      	strb	r2, [r3, #1]
20008088:	221e      	movs	r2, #30
2000808a:	18ba      	adds	r2, r7, r2
2000808c:	7810      	ldrb	r0, [r2, #0]
2000808e:	789a      	ldrb	r2, [r3, #2]
20008090:	2100      	movs	r1, #0
20008092:	400a      	ands	r2, r1
20008094:	1c11      	adds	r1, r2, #0
20008096:	1c02      	adds	r2, r0, #0
20008098:	430a      	orrs	r2, r1
2000809a:	709a      	strb	r2, [r3, #2]
2000809c:	221f      	movs	r2, #31
2000809e:	18ba      	adds	r2, r7, r2
200080a0:	7810      	ldrb	r0, [r2, #0]
200080a2:	78da      	ldrb	r2, [r3, #3]
200080a4:	2100      	movs	r1, #0
200080a6:	400a      	ands	r2, r1
200080a8:	1c11      	adds	r1, r2, #0
200080aa:	1c02      	adds	r2, r0, #0
200080ac:	430a      	orrs	r2, r1
200080ae:	70da      	strb	r2, [r3, #3]
200080b0:	46c0      	nop			@ (mov r8, r8)
200080b2:	68fb      	ldr	r3, [r7, #12]
200080b4:	3304      	adds	r3, #4
200080b6:	60fb      	str	r3, [r7, #12]
200080b8:	222e      	movs	r2, #46	@ 0x2e
200080ba:	18bb      	adds	r3, r7, r2
200080bc:	881b      	ldrh	r3, [r3, #0]
200080be:	18ba      	adds	r2, r7, r2
200080c0:	1e59      	subs	r1, r3, #1
200080c2:	8011      	strh	r1, [r2, #0]
200080c4:	2b00      	cmp	r3, #0
200080c6:	d1c3      	bne.n	20008050 <_ff_push_const_addr+0x20>
200080c8:	1dbb      	adds	r3, r7, #6
200080ca:	881b      	ldrh	r3, [r3, #0]
200080cc:	b2da      	uxtb	r2, r3
200080ce:	2027      	movs	r0, #39	@ 0x27
200080d0:	183b      	adds	r3, r7, r0
200080d2:	2103      	movs	r1, #3
200080d4:	400a      	ands	r2, r1
200080d6:	701a      	strb	r2, [r3, #0]
200080d8:	0002      	movs	r2, r0
200080da:	18bb      	adds	r3, r7, r2
200080dc:	781b      	ldrb	r3, [r3, #0]
200080de:	2b00      	cmp	r3, #0
200080e0:	d00a      	beq.n	200080f8 <_ff_push_const_addr+0xc8>
200080e2:	6abb      	ldr	r3, [r7, #40]	@ 0x28
200080e4:	681b      	ldr	r3, [r3, #0]
200080e6:	617b      	str	r3, [r7, #20]
200080e8:	18bb      	adds	r3, r7, r2
200080ea:	781a      	ldrb	r2, [r3, #0]
200080ec:	2314      	movs	r3, #20
200080ee:	18f9      	adds	r1, r7, r3
200080f0:	68fb      	ldr	r3, [r7, #12]
200080f2:	0018      	movs	r0, r3
200080f4:	f7fc f8be 	bl	20004274 <__wrap___aeabi_memcpy>
200080f8:	46c0      	nop			@ (mov r8, r8)
200080fa:	46bd      	mov	sp, r7
200080fc:	b00c      	add	sp, #48	@ 0x30
200080fe:	bd80      	pop	{r7, pc}

20008100 <_ff_pull_const_addr>:
20008100:	b580      	push	{r7, lr}
20008102:	b08a      	sub	sp, #40	@ 0x28
20008104:	af00      	add	r7, sp, #0
20008106:	60f8      	str	r0, [r7, #12]
20008108:	60b9      	str	r1, [r7, #8]
2000810a:	1dbb      	adds	r3, r7, #6
2000810c:	801a      	strh	r2, [r3, #0]
2000810e:	68fb      	ldr	r3, [r7, #12]
20008110:	623b      	str	r3, [r7, #32]
20008112:	2326      	movs	r3, #38	@ 0x26
20008114:	18fb      	adds	r3, r7, r3
20008116:	1dba      	adds	r2, r7, #6
20008118:	8812      	ldrh	r2, [r2, #0]
2000811a:	0892      	lsrs	r2, r2, #2
2000811c:	801a      	strh	r2, [r3, #0]
2000811e:	e014      	b.n	2000814a <_ff_pull_const_addr+0x4a>
20008120:	68bb      	ldr	r3, [r7, #8]
20008122:	61bb      	str	r3, [r7, #24]
20008124:	69bb      	ldr	r3, [r7, #24]
20008126:	617b      	str	r3, [r7, #20]
20008128:	697b      	ldr	r3, [r7, #20]
2000812a:	781a      	ldrb	r2, [r3, #0]
2000812c:	7859      	ldrb	r1, [r3, #1]
2000812e:	0209      	lsls	r1, r1, #8
20008130:	430a      	orrs	r2, r1
20008132:	7899      	ldrb	r1, [r3, #2]
20008134:	0409      	lsls	r1, r1, #16
20008136:	430a      	orrs	r2, r1
20008138:	78db      	ldrb	r3, [r3, #3]
2000813a:	061b      	lsls	r3, r3, #24
2000813c:	4313      	orrs	r3, r2
2000813e:	001a      	movs	r2, r3
20008140:	6a3b      	ldr	r3, [r7, #32]
20008142:	601a      	str	r2, [r3, #0]
20008144:	68bb      	ldr	r3, [r7, #8]
20008146:	3304      	adds	r3, #4
20008148:	60bb      	str	r3, [r7, #8]
2000814a:	2226      	movs	r2, #38	@ 0x26
2000814c:	18bb      	adds	r3, r7, r2
2000814e:	881b      	ldrh	r3, [r3, #0]
20008150:	18ba      	adds	r2, r7, r2
20008152:	1e59      	subs	r1, r3, #1
20008154:	8011      	strh	r1, [r2, #0]
20008156:	2b00      	cmp	r3, #0
20008158:	d1e2      	bne.n	20008120 <_ff_pull_const_addr+0x20>
2000815a:	1dbb      	adds	r3, r7, #6
2000815c:	881b      	ldrh	r3, [r3, #0]
2000815e:	b2da      	uxtb	r2, r3
20008160:	201f      	movs	r0, #31
20008162:	183b      	adds	r3, r7, r0
20008164:	2103      	movs	r1, #3
20008166:	400a      	ands	r2, r1
20008168:	701a      	strb	r2, [r3, #0]
2000816a:	0002      	movs	r2, r0
2000816c:	18bb      	adds	r3, r7, r2
2000816e:	781b      	ldrb	r3, [r3, #0]
20008170:	2b00      	cmp	r3, #0
20008172:	d00c      	beq.n	2000818e <_ff_pull_const_addr+0x8e>
20008174:	2300      	movs	r3, #0
20008176:	613b      	str	r3, [r7, #16]
20008178:	18bb      	adds	r3, r7, r2
2000817a:	781a      	ldrb	r2, [r3, #0]
2000817c:	68b9      	ldr	r1, [r7, #8]
2000817e:	2310      	movs	r3, #16
20008180:	18fb      	adds	r3, r7, r3
20008182:	0018      	movs	r0, r3
20008184:	f7fc f876 	bl	20004274 <__wrap___aeabi_memcpy>
20008188:	693a      	ldr	r2, [r7, #16]
2000818a:	6a3b      	ldr	r3, [r7, #32]
2000818c:	601a      	str	r2, [r3, #0]
2000818e:	46c0      	nop			@ (mov r8, r8)
20008190:	46bd      	mov	sp, r7
20008192:	b00a      	add	sp, #40	@ 0x28
20008194:	bd80      	pop	{r7, pc}

20008196 <_ff_push>:
20008196:	b580      	push	{r7, lr}
20008198:	b084      	sub	sp, #16
2000819a:	af00      	add	r7, sp, #0
2000819c:	60f8      	str	r0, [r7, #12]
2000819e:	60b9      	str	r1, [r7, #8]
200081a0:	1dbb      	adds	r3, r7, #6
200081a2:	801a      	strh	r2, [r3, #0]
200081a4:	68fb      	ldr	r3, [r7, #12]
200081a6:	681b      	ldr	r3, [r3, #0]
200081a8:	1dba      	adds	r2, r7, #6
200081aa:	8812      	ldrh	r2, [r2, #0]
200081ac:	68f9      	ldr	r1, [r7, #12]
200081ae:	88c9      	ldrh	r1, [r1, #6]
200081b0:	0449      	lsls	r1, r1, #17
200081b2:	0c49      	lsrs	r1, r1, #17
200081b4:	b289      	uxth	r1, r1
200081b6:	434a      	muls	r2, r1
200081b8:	1898      	adds	r0, r3, r2
200081ba:	68fb      	ldr	r3, [r7, #12]
200081bc:	88db      	ldrh	r3, [r3, #6]
200081be:	045b      	lsls	r3, r3, #17
200081c0:	0c5b      	lsrs	r3, r3, #17
200081c2:	b29b      	uxth	r3, r3
200081c4:	001a      	movs	r2, r3
200081c6:	68bb      	ldr	r3, [r7, #8]
200081c8:	0019      	movs	r1, r3
200081ca:	f7fc f853 	bl	20004274 <__wrap___aeabi_memcpy>
200081ce:	46c0      	nop			@ (mov r8, r8)
200081d0:	46bd      	mov	sp, r7
200081d2:	b004      	add	sp, #16
200081d4:	bd80      	pop	{r7, pc}

200081d6 <_ff_push_n>:
200081d6:	b5b0      	push	{r4, r5, r7, lr}
200081d8:	b08e      	sub	sp, #56	@ 0x38
200081da:	af00      	add	r7, sp, #0
200081dc:	60f8      	str	r0, [r7, #12]
200081de:	60b9      	str	r1, [r7, #8]
200081e0:	0019      	movs	r1, r3
200081e2:	1dbb      	adds	r3, r7, #6
200081e4:	801a      	strh	r2, [r3, #0]
200081e6:	1d3b      	adds	r3, r7, #4
200081e8:	1c0a      	adds	r2, r1, #0
200081ea:	801a      	strh	r2, [r3, #0]
200081ec:	68fb      	ldr	r3, [r7, #12]
200081ee:	8899      	ldrh	r1, [r3, #4]
200081f0:	2026      	movs	r0, #38	@ 0x26
200081f2:	183b      	adds	r3, r7, r0
200081f4:	1d3a      	adds	r2, r7, #4
200081f6:	8812      	ldrh	r2, [r2, #0]
200081f8:	1a8a      	subs	r2, r1, r2
200081fa:	801a      	strh	r2, [r3, #0]
200081fc:	2424      	movs	r4, #36	@ 0x24
200081fe:	193b      	adds	r3, r7, r4
20008200:	1db9      	adds	r1, r7, #6
20008202:	183a      	adds	r2, r7, r0
20008204:	8809      	ldrh	r1, [r1, #0]
20008206:	8812      	ldrh	r2, [r2, #0]
20008208:	1a8a      	subs	r2, r1, r2
2000820a:	801a      	strh	r2, [r3, #0]
2000820c:	68fb      	ldr	r3, [r7, #12]
2000820e:	88db      	ldrh	r3, [r3, #6]
20008210:	045b      	lsls	r3, r3, #17
20008212:	0c5b      	lsrs	r3, r3, #17
20008214:	b29b      	uxth	r3, r3
20008216:	0019      	movs	r1, r3
20008218:	2322      	movs	r3, #34	@ 0x22
2000821a:	18fb      	adds	r3, r7, r3
2000821c:	183a      	adds	r2, r7, r0
2000821e:	8812      	ldrh	r2, [r2, #0]
20008220:	434a      	muls	r2, r1
20008222:	801a      	strh	r2, [r3, #0]
20008224:	68fb      	ldr	r3, [r7, #12]
20008226:	88db      	ldrh	r3, [r3, #6]
20008228:	045b      	lsls	r3, r3, #17
2000822a:	0c5b      	lsrs	r3, r3, #17
2000822c:	b29b      	uxth	r3, r3
2000822e:	0019      	movs	r1, r3
20008230:	2336      	movs	r3, #54	@ 0x36
20008232:	18fb      	adds	r3, r7, r3
20008234:	193a      	adds	r2, r7, r4
20008236:	8812      	ldrh	r2, [r2, #0]
20008238:	434a      	muls	r2, r1
2000823a:	801a      	strh	r2, [r3, #0]
2000823c:	68fb      	ldr	r3, [r7, #12]
2000823e:	681b      	ldr	r3, [r3, #0]
20008240:	1d3a      	adds	r2, r7, #4
20008242:	8812      	ldrh	r2, [r2, #0]
20008244:	68f9      	ldr	r1, [r7, #12]
20008246:	88c9      	ldrh	r1, [r1, #6]
20008248:	0449      	lsls	r1, r1, #17
2000824a:	0c49      	lsrs	r1, r1, #17
2000824c:	b289      	uxth	r1, r1
2000824e:	434a      	muls	r2, r1
20008250:	189b      	adds	r3, r3, r2
20008252:	633b      	str	r3, [r7, #48]	@ 0x30
20008254:	2340      	movs	r3, #64	@ 0x40
20008256:	2208      	movs	r2, #8
20008258:	189b      	adds	r3, r3, r2
2000825a:	19db      	adds	r3, r3, r7
2000825c:	781b      	ldrb	r3, [r3, #0]
2000825e:	2b00      	cmp	r3, #0
20008260:	d002      	beq.n	20008268 <_ff_push_n+0x92>
20008262:	2b01      	cmp	r3, #1
20008264:	d02b      	beq.n	200082be <_ff_push_n+0xe8>
20008266:	e0c7      	b.n	200083f8 <_ff_push_n+0x222>
20008268:	1dba      	adds	r2, r7, #6
2000826a:	2326      	movs	r3, #38	@ 0x26
2000826c:	18fb      	adds	r3, r7, r3
2000826e:	8812      	ldrh	r2, [r2, #0]
20008270:	881b      	ldrh	r3, [r3, #0]
20008272:	429a      	cmp	r2, r3
20008274:	d80e      	bhi.n	20008294 <_ff_push_n+0xbe>
20008276:	1dbb      	adds	r3, r7, #6
20008278:	881b      	ldrh	r3, [r3, #0]
2000827a:	68fa      	ldr	r2, [r7, #12]
2000827c:	88d2      	ldrh	r2, [r2, #6]
2000827e:	0452      	lsls	r2, r2, #17
20008280:	0c52      	lsrs	r2, r2, #17
20008282:	b292      	uxth	r2, r2
20008284:	4353      	muls	r3, r2
20008286:	001a      	movs	r2, r3
20008288:	68b9      	ldr	r1, [r7, #8]
2000828a:	6b3b      	ldr	r3, [r7, #48]	@ 0x30
2000828c:	0018      	movs	r0, r3
2000828e:	f7fb fff1 	bl	20004274 <__wrap___aeabi_memcpy>
20008292:	e0b1      	b.n	200083f8 <_ff_push_n+0x222>
20008294:	2422      	movs	r4, #34	@ 0x22
20008296:	193b      	adds	r3, r7, r4
20008298:	881a      	ldrh	r2, [r3, #0]
2000829a:	68b9      	ldr	r1, [r7, #8]
2000829c:	6b3b      	ldr	r3, [r7, #48]	@ 0x30
2000829e:	0018      	movs	r0, r3
200082a0:	f7fb ffe8 	bl	20004274 <__wrap___aeabi_memcpy>
200082a4:	68fb      	ldr	r3, [r7, #12]
200082a6:	6818      	ldr	r0, [r3, #0]
200082a8:	193b      	adds	r3, r7, r4
200082aa:	881b      	ldrh	r3, [r3, #0]
200082ac:	68ba      	ldr	r2, [r7, #8]
200082ae:	18d1      	adds	r1, r2, r3
200082b0:	2336      	movs	r3, #54	@ 0x36
200082b2:	18fb      	adds	r3, r7, r3
200082b4:	881b      	ldrh	r3, [r3, #0]
200082b6:	001a      	movs	r2, r3
200082b8:	f7fb ffdc 	bl	20004274 <__wrap___aeabi_memcpy>
200082bc:	e09c      	b.n	200083f8 <_ff_push_n+0x222>
200082be:	1dba      	adds	r2, r7, #6
200082c0:	2326      	movs	r3, #38	@ 0x26
200082c2:	18fb      	adds	r3, r7, r3
200082c4:	8812      	ldrh	r2, [r2, #0]
200082c6:	881b      	ldrh	r3, [r3, #0]
200082c8:	429a      	cmp	r2, r3
200082ca:	d80f      	bhi.n	200082ec <_ff_push_n+0x116>
200082cc:	68fb      	ldr	r3, [r7, #12]
200082ce:	88db      	ldrh	r3, [r3, #6]
200082d0:	045b      	lsls	r3, r3, #17
200082d2:	0c5b      	lsrs	r3, r3, #17
200082d4:	b29b      	uxth	r3, r3
200082d6:	001a      	movs	r2, r3
200082d8:	1dbb      	adds	r3, r7, #6
200082da:	881b      	ldrh	r3, [r3, #0]
200082dc:	4353      	muls	r3, r2
200082de:	b29a      	uxth	r2, r3
200082e0:	68b9      	ldr	r1, [r7, #8]
200082e2:	6b3b      	ldr	r3, [r7, #48]	@ 0x30
200082e4:	0018      	movs	r0, r3
200082e6:	f7ff fea3 	bl	20008030 <_ff_push_const_addr>
200082ea:	e084      	b.n	200083f6 <_ff_push_n+0x220>
200082ec:	2020      	movs	r0, #32
200082ee:	183b      	adds	r3, r7, r0
200082f0:	2522      	movs	r5, #34	@ 0x22
200082f2:	197a      	adds	r2, r7, r5
200082f4:	8812      	ldrh	r2, [r2, #0]
200082f6:	2103      	movs	r1, #3
200082f8:	438a      	bics	r2, r1
200082fa:	801a      	strh	r2, [r3, #0]
200082fc:	0004      	movs	r4, r0
200082fe:	183b      	adds	r3, r7, r0
20008300:	881a      	ldrh	r2, [r3, #0]
20008302:	68b9      	ldr	r1, [r7, #8]
20008304:	6b3b      	ldr	r3, [r7, #48]	@ 0x30
20008306:	0018      	movs	r0, r3
20008308:	f7ff fe92 	bl	20008030 <_ff_push_const_addr>
2000830c:	193b      	adds	r3, r7, r4
2000830e:	881b      	ldrh	r3, [r3, #0]
20008310:	6b3a      	ldr	r2, [r7, #48]	@ 0x30
20008312:	18d3      	adds	r3, r2, r3
20008314:	633b      	str	r3, [r7, #48]	@ 0x30
20008316:	197b      	adds	r3, r7, r5
20008318:	881b      	ldrh	r3, [r3, #0]
2000831a:	b2da      	uxtb	r2, r3
2000831c:	202f      	movs	r0, #47	@ 0x2f
2000831e:	183b      	adds	r3, r7, r0
20008320:	2103      	movs	r1, #3
20008322:	400a      	ands	r2, r1
20008324:	701a      	strb	r2, [r3, #0]
20008326:	0002      	movs	r2, r0
20008328:	18bb      	adds	r3, r7, r2
2000832a:	781b      	ldrb	r3, [r3, #0]
2000832c:	2b00      	cmp	r3, #0
2000832e:	d053      	beq.n	200083d8 <_ff_push_n+0x202>
20008330:	68bb      	ldr	r3, [r7, #8]
20008332:	61fb      	str	r3, [r7, #28]
20008334:	18bb      	adds	r3, r7, r2
20008336:	781b      	ldrb	r3, [r3, #0]
20008338:	b29b      	uxth	r3, r3
2000833a:	2204      	movs	r2, #4
2000833c:	1ad3      	subs	r3, r2, r3
2000833e:	b299      	uxth	r1, r3
20008340:	201a      	movs	r0, #26
20008342:	183b      	adds	r3, r7, r0
20008344:	2236      	movs	r2, #54	@ 0x36
20008346:	18ba      	adds	r2, r7, r2
20008348:	8812      	ldrh	r2, [r2, #0]
2000834a:	801a      	strh	r2, [r3, #0]
2000834c:	2418      	movs	r4, #24
2000834e:	193b      	adds	r3, r7, r4
20008350:	1c0a      	adds	r2, r1, #0
20008352:	801a      	strh	r2, [r3, #0]
20008354:	183b      	adds	r3, r7, r0
20008356:	193a      	adds	r2, r7, r4
20008358:	8810      	ldrh	r0, [r2, #0]
2000835a:	881b      	ldrh	r3, [r3, #0]
2000835c:	b299      	uxth	r1, r3
2000835e:	b282      	uxth	r2, r0
20008360:	4291      	cmp	r1, r2
20008362:	d900      	bls.n	20008366 <_ff_push_n+0x190>
20008364:	1c03      	adds	r3, r0, #0
20008366:	b29a      	uxth	r2, r3
20008368:	212e      	movs	r1, #46	@ 0x2e
2000836a:	187b      	adds	r3, r7, r1
2000836c:	701a      	strb	r2, [r3, #0]
2000836e:	187b      	adds	r3, r7, r1
20008370:	781b      	ldrb	r3, [r3, #0]
20008372:	b29a      	uxth	r2, r3
20008374:	2136      	movs	r1, #54	@ 0x36
20008376:	187b      	adds	r3, r7, r1
20008378:	1879      	adds	r1, r7, r1
2000837a:	8809      	ldrh	r1, [r1, #0]
2000837c:	1a8a      	subs	r2, r1, r2
2000837e:	801a      	strh	r2, [r3, #0]
20008380:	69fb      	ldr	r3, [r7, #28]
20008382:	681b      	ldr	r3, [r3, #0]
20008384:	617b      	str	r3, [r7, #20]
20008386:	2314      	movs	r3, #20
20008388:	18fb      	adds	r3, r7, r3
2000838a:	62bb      	str	r3, [r7, #40]	@ 0x28
2000838c:	e007      	b.n	2000839e <_ff_push_n+0x1c8>
2000838e:	6aba      	ldr	r2, [r7, #40]	@ 0x28
20008390:	1c53      	adds	r3, r2, #1
20008392:	62bb      	str	r3, [r7, #40]	@ 0x28
20008394:	6b3b      	ldr	r3, [r7, #48]	@ 0x30
20008396:	1c59      	adds	r1, r3, #1
20008398:	6339      	str	r1, [r7, #48]	@ 0x30
2000839a:	7812      	ldrb	r2, [r2, #0]
2000839c:	701a      	strb	r2, [r3, #0]
2000839e:	222f      	movs	r2, #47	@ 0x2f
200083a0:	18bb      	adds	r3, r7, r2
200083a2:	781b      	ldrb	r3, [r3, #0]
200083a4:	18ba      	adds	r2, r7, r2
200083a6:	1e59      	subs	r1, r3, #1
200083a8:	7011      	strb	r1, [r2, #0]
200083aa:	2b00      	cmp	r3, #0
200083ac:	d1ef      	bne.n	2000838e <_ff_push_n+0x1b8>
200083ae:	68fb      	ldr	r3, [r7, #12]
200083b0:	681b      	ldr	r3, [r3, #0]
200083b2:	633b      	str	r3, [r7, #48]	@ 0x30
200083b4:	e007      	b.n	200083c6 <_ff_push_n+0x1f0>
200083b6:	6aba      	ldr	r2, [r7, #40]	@ 0x28
200083b8:	1c53      	adds	r3, r2, #1
200083ba:	62bb      	str	r3, [r7, #40]	@ 0x28
200083bc:	6b3b      	ldr	r3, [r7, #48]	@ 0x30
200083be:	1c59      	adds	r1, r3, #1
200083c0:	6339      	str	r1, [r7, #48]	@ 0x30
200083c2:	7812      	ldrb	r2, [r2, #0]
200083c4:	701a      	strb	r2, [r3, #0]
200083c6:	222e      	movs	r2, #46	@ 0x2e
200083c8:	18bb      	adds	r3, r7, r2
200083ca:	781b      	ldrb	r3, [r3, #0]
200083cc:	18ba      	adds	r2, r7, r2
200083ce:	1e59      	subs	r1, r3, #1
200083d0:	7011      	strb	r1, [r2, #0]
200083d2:	2b00      	cmp	r3, #0
200083d4:	d1ef      	bne.n	200083b6 <_ff_push_n+0x1e0>
200083d6:	e002      	b.n	200083de <_ff_push_n+0x208>
200083d8:	68fb      	ldr	r3, [r7, #12]
200083da:	681b      	ldr	r3, [r3, #0]
200083dc:	633b      	str	r3, [r7, #48]	@ 0x30
200083de:	2236      	movs	r2, #54	@ 0x36
200083e0:	18bb      	adds	r3, r7, r2
200083e2:	881b      	ldrh	r3, [r3, #0]
200083e4:	2b00      	cmp	r3, #0
200083e6:	d006      	beq.n	200083f6 <_ff_push_n+0x220>
200083e8:	18bb      	adds	r3, r7, r2
200083ea:	881a      	ldrh	r2, [r3, #0]
200083ec:	68b9      	ldr	r1, [r7, #8]
200083ee:	6b3b      	ldr	r3, [r7, #48]	@ 0x30
200083f0:	0018      	movs	r0, r3
200083f2:	f7ff fe1d 	bl	20008030 <_ff_push_const_addr>
200083f6:	46c0      	nop			@ (mov r8, r8)
200083f8:	46c0      	nop			@ (mov r8, r8)
200083fa:	46bd      	mov	sp, r7
200083fc:	b00e      	add	sp, #56	@ 0x38
200083fe:	bdb0      	pop	{r4, r5, r7, pc}

20008400 <_ff_pull>:
20008400:	b580      	push	{r7, lr}
20008402:	b084      	sub	sp, #16
20008404:	af00      	add	r7, sp, #0
20008406:	60f8      	str	r0, [r7, #12]
20008408:	60b9      	str	r1, [r7, #8]
2000840a:	1dbb      	adds	r3, r7, #6
2000840c:	801a      	strh	r2, [r3, #0]
2000840e:	68fb      	ldr	r3, [r7, #12]
20008410:	681b      	ldr	r3, [r3, #0]
20008412:	1dba      	adds	r2, r7, #6
20008414:	8812      	ldrh	r2, [r2, #0]
20008416:	68f9      	ldr	r1, [r7, #12]
20008418:	88c9      	ldrh	r1, [r1, #6]
2000841a:	0449      	lsls	r1, r1, #17
2000841c:	0c49      	lsrs	r1, r1, #17
2000841e:	b289      	uxth	r1, r1
20008420:	434a      	muls	r2, r1
20008422:	1899      	adds	r1, r3, r2
20008424:	68fb      	ldr	r3, [r7, #12]
20008426:	88db      	ldrh	r3, [r3, #6]
20008428:	045b      	lsls	r3, r3, #17
2000842a:	0c5b      	lsrs	r3, r3, #17
2000842c:	b29b      	uxth	r3, r3
2000842e:	001a      	movs	r2, r3
20008430:	68bb      	ldr	r3, [r7, #8]
20008432:	0018      	movs	r0, r3
20008434:	f7fb ff1e 	bl	20004274 <__wrap___aeabi_memcpy>
20008438:	46c0      	nop			@ (mov r8, r8)
2000843a:	46bd      	mov	sp, r7
2000843c:	b004      	add	sp, #16
2000843e:	bd80      	pop	{r7, pc}

20008440 <_ff_pull_n>:
20008440:	b5b0      	push	{r4, r5, r7, lr}
20008442:	b08e      	sub	sp, #56	@ 0x38
20008444:	af00      	add	r7, sp, #0
20008446:	60f8      	str	r0, [r7, #12]
20008448:	60b9      	str	r1, [r7, #8]
2000844a:	0019      	movs	r1, r3
2000844c:	1dbb      	adds	r3, r7, #6
2000844e:	801a      	strh	r2, [r3, #0]
20008450:	1d3b      	adds	r3, r7, #4
20008452:	1c0a      	adds	r2, r1, #0
20008454:	801a      	strh	r2, [r3, #0]
20008456:	68fb      	ldr	r3, [r7, #12]
20008458:	8899      	ldrh	r1, [r3, #4]
2000845a:	2026      	movs	r0, #38	@ 0x26
2000845c:	183b      	adds	r3, r7, r0
2000845e:	1d3a      	adds	r2, r7, #4
20008460:	8812      	ldrh	r2, [r2, #0]
20008462:	1a8a      	subs	r2, r1, r2
20008464:	801a      	strh	r2, [r3, #0]
20008466:	2424      	movs	r4, #36	@ 0x24
20008468:	193b      	adds	r3, r7, r4
2000846a:	1db9      	adds	r1, r7, #6
2000846c:	183a      	adds	r2, r7, r0
2000846e:	8809      	ldrh	r1, [r1, #0]
20008470:	8812      	ldrh	r2, [r2, #0]
20008472:	1a8a      	subs	r2, r1, r2
20008474:	801a      	strh	r2, [r3, #0]
20008476:	68fb      	ldr	r3, [r7, #12]
20008478:	88db      	ldrh	r3, [r3, #6]
2000847a:	045b      	lsls	r3, r3, #17
2000847c:	0c5b      	lsrs	r3, r3, #17
2000847e:	b29b      	uxth	r3, r3
20008480:	0019      	movs	r1, r3
20008482:	2322      	movs	r3, #34	@ 0x22
20008484:	18fb      	adds	r3, r7, r3
20008486:	183a      	adds	r2, r7, r0
20008488:	8812      	ldrh	r2, [r2, #0]
2000848a:	434a      	muls	r2, r1
2000848c:	801a      	strh	r2, [r3, #0]
2000848e:	68fb      	ldr	r3, [r7, #12]
20008490:	88db      	ldrh	r3, [r3, #6]
20008492:	045b      	lsls	r3, r3, #17
20008494:	0c5b      	lsrs	r3, r3, #17
20008496:	b29b      	uxth	r3, r3
20008498:	0019      	movs	r1, r3
2000849a:	2336      	movs	r3, #54	@ 0x36
2000849c:	18fb      	adds	r3, r7, r3
2000849e:	193a      	adds	r2, r7, r4
200084a0:	8812      	ldrh	r2, [r2, #0]
200084a2:	434a      	muls	r2, r1
200084a4:	801a      	strh	r2, [r3, #0]
200084a6:	68fb      	ldr	r3, [r7, #12]
200084a8:	681b      	ldr	r3, [r3, #0]
200084aa:	1d3a      	adds	r2, r7, #4
200084ac:	8812      	ldrh	r2, [r2, #0]
200084ae:	68f9      	ldr	r1, [r7, #12]
200084b0:	88c9      	ldrh	r1, [r1, #6]
200084b2:	0449      	lsls	r1, r1, #17
200084b4:	0c49      	lsrs	r1, r1, #17
200084b6:	b289      	uxth	r1, r1
200084b8:	434a      	muls	r2, r1
200084ba:	189b      	adds	r3, r3, r2
200084bc:	633b      	str	r3, [r7, #48]	@ 0x30
200084be:	2340      	movs	r3, #64	@ 0x40
200084c0:	2208      	movs	r2, #8
200084c2:	189b      	adds	r3, r3, r2
200084c4:	19db      	adds	r3, r3, r7
200084c6:	781b      	ldrb	r3, [r3, #0]
200084c8:	2b00      	cmp	r3, #0
200084ca:	d002      	beq.n	200084d2 <_ff_pull_n+0x92>
200084cc:	2b01      	cmp	r3, #1
200084ce:	d02b      	beq.n	20008528 <_ff_pull_n+0xe8>
200084d0:	e0c9      	b.n	20008666 <_ff_pull_n+0x226>
200084d2:	1dba      	adds	r2, r7, #6
200084d4:	2326      	movs	r3, #38	@ 0x26
200084d6:	18fb      	adds	r3, r7, r3
200084d8:	8812      	ldrh	r2, [r2, #0]
200084da:	881b      	ldrh	r3, [r3, #0]
200084dc:	429a      	cmp	r2, r3
200084de:	d80e      	bhi.n	200084fe <_ff_pull_n+0xbe>
200084e0:	1dbb      	adds	r3, r7, #6
200084e2:	881b      	ldrh	r3, [r3, #0]
200084e4:	68fa      	ldr	r2, [r7, #12]
200084e6:	88d2      	ldrh	r2, [r2, #6]
200084e8:	0452      	lsls	r2, r2, #17
200084ea:	0c52      	lsrs	r2, r2, #17
200084ec:	b292      	uxth	r2, r2
200084ee:	4353      	muls	r3, r2
200084f0:	001a      	movs	r2, r3
200084f2:	6b39      	ldr	r1, [r7, #48]	@ 0x30
200084f4:	68bb      	ldr	r3, [r7, #8]
200084f6:	0018      	movs	r0, r3
200084f8:	f7fb febc 	bl	20004274 <__wrap___aeabi_memcpy>
200084fc:	e0b3      	b.n	20008666 <_ff_pull_n+0x226>
200084fe:	2422      	movs	r4, #34	@ 0x22
20008500:	193b      	adds	r3, r7, r4
20008502:	881a      	ldrh	r2, [r3, #0]
20008504:	6b39      	ldr	r1, [r7, #48]	@ 0x30
20008506:	68bb      	ldr	r3, [r7, #8]
20008508:	0018      	movs	r0, r3
2000850a:	f7fb feb3 	bl	20004274 <__wrap___aeabi_memcpy>
2000850e:	193b      	adds	r3, r7, r4
20008510:	881b      	ldrh	r3, [r3, #0]
20008512:	68ba      	ldr	r2, [r7, #8]
20008514:	18d0      	adds	r0, r2, r3
20008516:	68fb      	ldr	r3, [r7, #12]
20008518:	6819      	ldr	r1, [r3, #0]
2000851a:	2336      	movs	r3, #54	@ 0x36
2000851c:	18fb      	adds	r3, r7, r3
2000851e:	881b      	ldrh	r3, [r3, #0]
20008520:	001a      	movs	r2, r3
20008522:	f7fb fea7 	bl	20004274 <__wrap___aeabi_memcpy>
20008526:	e09e      	b.n	20008666 <_ff_pull_n+0x226>
20008528:	1dba      	adds	r2, r7, #6
2000852a:	2326      	movs	r3, #38	@ 0x26
2000852c:	18fb      	adds	r3, r7, r3
2000852e:	8812      	ldrh	r2, [r2, #0]
20008530:	881b      	ldrh	r3, [r3, #0]
20008532:	429a      	cmp	r2, r3
20008534:	d80f      	bhi.n	20008556 <_ff_pull_n+0x116>
20008536:	68fb      	ldr	r3, [r7, #12]
20008538:	88db      	ldrh	r3, [r3, #6]
2000853a:	045b      	lsls	r3, r3, #17
2000853c:	0c5b      	lsrs	r3, r3, #17
2000853e:	b29b      	uxth	r3, r3
20008540:	001a      	movs	r2, r3
20008542:	1dbb      	adds	r3, r7, #6
20008544:	881b      	ldrh	r3, [r3, #0]
20008546:	4353      	muls	r3, r2
20008548:	b29a      	uxth	r2, r3
2000854a:	6b39      	ldr	r1, [r7, #48]	@ 0x30
2000854c:	68bb      	ldr	r3, [r7, #8]
2000854e:	0018      	movs	r0, r3
20008550:	f7ff fdd6 	bl	20008100 <_ff_pull_const_addr>
20008554:	e086      	b.n	20008664 <_ff_pull_n+0x224>
20008556:	2020      	movs	r0, #32
20008558:	183b      	adds	r3, r7, r0
2000855a:	2522      	movs	r5, #34	@ 0x22
2000855c:	197a      	adds	r2, r7, r5
2000855e:	8812      	ldrh	r2, [r2, #0]
20008560:	2103      	movs	r1, #3
20008562:	438a      	bics	r2, r1
20008564:	801a      	strh	r2, [r3, #0]
20008566:	0004      	movs	r4, r0
20008568:	183b      	adds	r3, r7, r0
2000856a:	881a      	ldrh	r2, [r3, #0]
2000856c:	6b39      	ldr	r1, [r7, #48]	@ 0x30
2000856e:	68bb      	ldr	r3, [r7, #8]
20008570:	0018      	movs	r0, r3
20008572:	f7ff fdc5 	bl	20008100 <_ff_pull_const_addr>
20008576:	193b      	adds	r3, r7, r4
20008578:	881b      	ldrh	r3, [r3, #0]
2000857a:	6b3a      	ldr	r2, [r7, #48]	@ 0x30
2000857c:	18d3      	adds	r3, r2, r3
2000857e:	633b      	str	r3, [r7, #48]	@ 0x30
20008580:	197b      	adds	r3, r7, r5
20008582:	881b      	ldrh	r3, [r3, #0]
20008584:	b2da      	uxtb	r2, r3
20008586:	202f      	movs	r0, #47	@ 0x2f
20008588:	183b      	adds	r3, r7, r0
2000858a:	2103      	movs	r1, #3
2000858c:	400a      	ands	r2, r1
2000858e:	701a      	strb	r2, [r3, #0]
20008590:	0002      	movs	r2, r0
20008592:	18bb      	adds	r3, r7, r2
20008594:	781b      	ldrb	r3, [r3, #0]
20008596:	2b00      	cmp	r3, #0
20008598:	d055      	beq.n	20008646 <_ff_pull_n+0x206>
2000859a:	68bb      	ldr	r3, [r7, #8]
2000859c:	61fb      	str	r3, [r7, #28]
2000859e:	18bb      	adds	r3, r7, r2
200085a0:	781b      	ldrb	r3, [r3, #0]
200085a2:	b29b      	uxth	r3, r3
200085a4:	2204      	movs	r2, #4
200085a6:	1ad3      	subs	r3, r2, r3
200085a8:	b299      	uxth	r1, r3
200085aa:	201a      	movs	r0, #26
200085ac:	183b      	adds	r3, r7, r0
200085ae:	2236      	movs	r2, #54	@ 0x36
200085b0:	18ba      	adds	r2, r7, r2
200085b2:	8812      	ldrh	r2, [r2, #0]
200085b4:	801a      	strh	r2, [r3, #0]
200085b6:	2418      	movs	r4, #24
200085b8:	193b      	adds	r3, r7, r4
200085ba:	1c0a      	adds	r2, r1, #0
200085bc:	801a      	strh	r2, [r3, #0]
200085be:	183b      	adds	r3, r7, r0
200085c0:	193a      	adds	r2, r7, r4
200085c2:	8810      	ldrh	r0, [r2, #0]
200085c4:	881b      	ldrh	r3, [r3, #0]
200085c6:	b299      	uxth	r1, r3
200085c8:	b282      	uxth	r2, r0
200085ca:	4291      	cmp	r1, r2
200085cc:	d900      	bls.n	200085d0 <_ff_pull_n+0x190>
200085ce:	1c03      	adds	r3, r0, #0
200085d0:	b29a      	uxth	r2, r3
200085d2:	212e      	movs	r1, #46	@ 0x2e
200085d4:	187b      	adds	r3, r7, r1
200085d6:	701a      	strb	r2, [r3, #0]
200085d8:	187b      	adds	r3, r7, r1
200085da:	781b      	ldrb	r3, [r3, #0]
200085dc:	b29a      	uxth	r2, r3
200085de:	2136      	movs	r1, #54	@ 0x36
200085e0:	187b      	adds	r3, r7, r1
200085e2:	1879      	adds	r1, r7, r1
200085e4:	8809      	ldrh	r1, [r1, #0]
200085e6:	1a8a      	subs	r2, r1, r2
200085e8:	801a      	strh	r2, [r3, #0]
200085ea:	2300      	movs	r3, #0
200085ec:	617b      	str	r3, [r7, #20]
200085ee:	2314      	movs	r3, #20
200085f0:	18fb      	adds	r3, r7, r3
200085f2:	62bb      	str	r3, [r7, #40]	@ 0x28
200085f4:	e007      	b.n	20008606 <_ff_pull_n+0x1c6>
200085f6:	6b3a      	ldr	r2, [r7, #48]	@ 0x30
200085f8:	1c53      	adds	r3, r2, #1
200085fa:	633b      	str	r3, [r7, #48]	@ 0x30
200085fc:	6abb      	ldr	r3, [r7, #40]	@ 0x28
200085fe:	1c59      	adds	r1, r3, #1
20008600:	62b9      	str	r1, [r7, #40]	@ 0x28
20008602:	7812      	ldrb	r2, [r2, #0]
20008604:	701a      	strb	r2, [r3, #0]
20008606:	222f      	movs	r2, #47	@ 0x2f
20008608:	18bb      	adds	r3, r7, r2
2000860a:	781b      	ldrb	r3, [r3, #0]
2000860c:	18ba      	adds	r2, r7, r2
2000860e:	1e59      	subs	r1, r3, #1
20008610:	7011      	strb	r1, [r2, #0]
20008612:	2b00      	cmp	r3, #0
20008614:	d1ef      	bne.n	200085f6 <_ff_pull_n+0x1b6>
20008616:	68fb      	ldr	r3, [r7, #12]
20008618:	681b      	ldr	r3, [r3, #0]
2000861a:	633b      	str	r3, [r7, #48]	@ 0x30
2000861c:	e007      	b.n	2000862e <_ff_pull_n+0x1ee>
2000861e:	6b3a      	ldr	r2, [r7, #48]	@ 0x30
20008620:	1c53      	adds	r3, r2, #1
20008622:	633b      	str	r3, [r7, #48]	@ 0x30
20008624:	6abb      	ldr	r3, [r7, #40]	@ 0x28
20008626:	1c59      	adds	r1, r3, #1
20008628:	62b9      	str	r1, [r7, #40]	@ 0x28
2000862a:	7812      	ldrb	r2, [r2, #0]
2000862c:	701a      	strb	r2, [r3, #0]
2000862e:	222e      	movs	r2, #46	@ 0x2e
20008630:	18bb      	adds	r3, r7, r2
20008632:	781b      	ldrb	r3, [r3, #0]
20008634:	18ba      	adds	r2, r7, r2
20008636:	1e59      	subs	r1, r3, #1
20008638:	7011      	strb	r1, [r2, #0]
2000863a:	2b00      	cmp	r3, #0
2000863c:	d1ef      	bne.n	2000861e <_ff_pull_n+0x1de>
2000863e:	697a      	ldr	r2, [r7, #20]
20008640:	69fb      	ldr	r3, [r7, #28]
20008642:	601a      	str	r2, [r3, #0]
20008644:	e002      	b.n	2000864c <_ff_pull_n+0x20c>
20008646:	68fb      	ldr	r3, [r7, #12]
20008648:	681b      	ldr	r3, [r3, #0]
2000864a:	633b      	str	r3, [r7, #48]	@ 0x30
2000864c:	2236      	movs	r2, #54	@ 0x36
2000864e:	18bb      	adds	r3, r7, r2
20008650:	881b      	ldrh	r3, [r3, #0]
20008652:	2b00      	cmp	r3, #0
20008654:	d006      	beq.n	20008664 <_ff_pull_n+0x224>
20008656:	18bb      	adds	r3, r7, r2
20008658:	881a      	ldrh	r2, [r3, #0]
2000865a:	6b39      	ldr	r1, [r7, #48]	@ 0x30
2000865c:	68bb      	ldr	r3, [r7, #8]
2000865e:	0018      	movs	r0, r3
20008660:	f7ff fd4e 	bl	20008100 <_ff_pull_const_addr>
20008664:	46c0      	nop			@ (mov r8, r8)
20008666:	46c0      	nop			@ (mov r8, r8)
20008668:	46bd      	mov	sp, r7
2000866a:	b00e      	add	sp, #56	@ 0x38
2000866c:	bdb0      	pop	{r4, r5, r7, pc}

2000866e <advance_index>:
2000866e:	b590      	push	{r4, r7, lr}
20008670:	b085      	sub	sp, #20
20008672:	af00      	add	r7, sp, #0
20008674:	0004      	movs	r4, r0
20008676:	0008      	movs	r0, r1
20008678:	0011      	movs	r1, r2
2000867a:	1dbb      	adds	r3, r7, #6
2000867c:	1c22      	adds	r2, r4, #0
2000867e:	801a      	strh	r2, [r3, #0]
20008680:	1d3b      	adds	r3, r7, #4
20008682:	1c02      	adds	r2, r0, #0
20008684:	801a      	strh	r2, [r3, #0]
20008686:	1cbb      	adds	r3, r7, #2
20008688:	1c0a      	adds	r2, r1, #0
2000868a:	801a      	strh	r2, [r3, #0]
2000868c:	200e      	movs	r0, #14
2000868e:	183b      	adds	r3, r7, r0
20008690:	1d39      	adds	r1, r7, #4
20008692:	1cba      	adds	r2, r7, #2
20008694:	8809      	ldrh	r1, [r1, #0]
20008696:	8812      	ldrh	r2, [r2, #0]
20008698:	188a      	adds	r2, r1, r2
2000869a:	801a      	strh	r2, [r3, #0]
2000869c:	1d3a      	adds	r2, r7, #4
2000869e:	183b      	adds	r3, r7, r0
200086a0:	8812      	ldrh	r2, [r2, #0]
200086a2:	881b      	ldrh	r3, [r3, #0]
200086a4:	429a      	cmp	r2, r3
200086a6:	d806      	bhi.n	200086b6 <advance_index+0x48>
200086a8:	183b      	adds	r3, r7, r0
200086aa:	881a      	ldrh	r2, [r3, #0]
200086ac:	1dbb      	adds	r3, r7, #6
200086ae:	881b      	ldrh	r3, [r3, #0]
200086b0:	005b      	lsls	r3, r3, #1
200086b2:	429a      	cmp	r2, r3
200086b4:	db0f      	blt.n	200086d6 <advance_index+0x68>
200086b6:	1dbb      	adds	r3, r7, #6
200086b8:	881b      	ldrh	r3, [r3, #0]
200086ba:	18db      	adds	r3, r3, r3
200086bc:	b29a      	uxth	r2, r3
200086be:	200c      	movs	r0, #12
200086c0:	183b      	adds	r3, r7, r0
200086c2:	4252      	negs	r2, r2
200086c4:	801a      	strh	r2, [r3, #0]
200086c6:	220e      	movs	r2, #14
200086c8:	18bb      	adds	r3, r7, r2
200086ca:	18b9      	adds	r1, r7, r2
200086cc:	183a      	adds	r2, r7, r0
200086ce:	8809      	ldrh	r1, [r1, #0]
200086d0:	8812      	ldrh	r2, [r2, #0]
200086d2:	188a      	adds	r2, r1, r2
200086d4:	801a      	strh	r2, [r3, #0]
200086d6:	230e      	movs	r3, #14
200086d8:	18fb      	adds	r3, r7, r3
200086da:	881b      	ldrh	r3, [r3, #0]
200086dc:	0018      	movs	r0, r3
200086de:	46bd      	mov	sp, r7
200086e0:	b005      	add	sp, #20
200086e2:	bd90      	pop	{r4, r7, pc}

200086e4 <_tu_fifo_peek>:
200086e4:	b580      	push	{r7, lr}
200086e6:	b08a      	sub	sp, #40	@ 0x28
200086e8:	af00      	add	r7, sp, #0
200086ea:	60f8      	str	r0, [r7, #12]
200086ec:	60b9      	str	r1, [r7, #8]
200086ee:	0019      	movs	r1, r3
200086f0:	1dbb      	adds	r3, r7, #6
200086f2:	801a      	strh	r2, [r3, #0]
200086f4:	1d3b      	adds	r3, r7, #4
200086f6:	1c0a      	adds	r2, r1, #0
200086f8:	801a      	strh	r2, [r3, #0]
200086fa:	68fb      	ldr	r3, [r7, #12]
200086fc:	889a      	ldrh	r2, [r3, #4]
200086fe:	2322      	movs	r3, #34	@ 0x22
20008700:	18fb      	adds	r3, r7, r3
20008702:	801a      	strh	r2, [r3, #0]
20008704:	2120      	movs	r1, #32
20008706:	187b      	adds	r3, r7, r1
20008708:	1dba      	adds	r2, r7, #6
2000870a:	8812      	ldrh	r2, [r2, #0]
2000870c:	801a      	strh	r2, [r3, #0]
2000870e:	201e      	movs	r0, #30
20008710:	183b      	adds	r3, r7, r0
20008712:	1d3a      	adds	r2, r7, #4
20008714:	8812      	ldrh	r2, [r2, #0]
20008716:	801a      	strh	r2, [r3, #0]
20008718:	187a      	adds	r2, r7, r1
2000871a:	183b      	adds	r3, r7, r0
2000871c:	8812      	ldrh	r2, [r2, #0]
2000871e:	881b      	ldrh	r3, [r3, #0]
20008720:	429a      	cmp	r2, r3
20008722:	d306      	bcc.n	20008732 <_tu_fifo_peek+0x4e>
20008724:	187a      	adds	r2, r7, r1
20008726:	183b      	adds	r3, r7, r0
20008728:	8812      	ldrh	r2, [r2, #0]
2000872a:	881b      	ldrh	r3, [r3, #0]
2000872c:	1ad3      	subs	r3, r2, r3
2000872e:	b29b      	uxth	r3, r3
20008730:	e00e      	b.n	20008750 <_tu_fifo_peek+0x6c>
20008732:	2322      	movs	r3, #34	@ 0x22
20008734:	18fb      	adds	r3, r7, r3
20008736:	881b      	ldrh	r3, [r3, #0]
20008738:	18db      	adds	r3, r3, r3
2000873a:	b29a      	uxth	r2, r3
2000873c:	2320      	movs	r3, #32
2000873e:	18f9      	adds	r1, r7, r3
20008740:	231e      	movs	r3, #30
20008742:	18fb      	adds	r3, r7, r3
20008744:	8809      	ldrh	r1, [r1, #0]
20008746:	881b      	ldrh	r3, [r3, #0]
20008748:	1acb      	subs	r3, r1, r3
2000874a:	b29b      	uxth	r3, r3
2000874c:	18d3      	adds	r3, r2, r3
2000874e:	b29b      	uxth	r3, r3
20008750:	2126      	movs	r1, #38	@ 0x26
20008752:	187a      	adds	r2, r7, r1
20008754:	8013      	strh	r3, [r2, #0]
20008756:	187b      	adds	r3, r7, r1
20008758:	881b      	ldrh	r3, [r3, #0]
2000875a:	2b00      	cmp	r3, #0
2000875c:	d101      	bne.n	20008762 <_tu_fifo_peek+0x7e>
2000875e:	2300      	movs	r3, #0
20008760:	e05c      	b.n	2000881c <_tu_fifo_peek+0x138>
20008762:	68fb      	ldr	r3, [r7, #12]
20008764:	889b      	ldrh	r3, [r3, #4]
20008766:	2226      	movs	r2, #38	@ 0x26
20008768:	18ba      	adds	r2, r7, r2
2000876a:	8812      	ldrh	r2, [r2, #0]
2000876c:	429a      	cmp	r2, r3
2000876e:	d92c      	bls.n	200087ca <_tu_fifo_peek+0xe6>
20008770:	68fb      	ldr	r3, [r7, #12]
20008772:	61bb      	str	r3, [r7, #24]
20008774:	2116      	movs	r1, #22
20008776:	187b      	adds	r3, r7, r1
20008778:	1dba      	adds	r2, r7, #6
2000877a:	8812      	ldrh	r2, [r2, #0]
2000877c:	801a      	strh	r2, [r3, #0]
2000877e:	69bb      	ldr	r3, [r7, #24]
20008780:	889b      	ldrh	r3, [r3, #4]
20008782:	187a      	adds	r2, r7, r1
20008784:	8812      	ldrh	r2, [r2, #0]
20008786:	429a      	cmp	r2, r3
20008788:	d308      	bcc.n	2000879c <_tu_fifo_peek+0xb8>
2000878a:	69bb      	ldr	r3, [r7, #24]
2000878c:	889a      	ldrh	r2, [r3, #4]
2000878e:	2314      	movs	r3, #20
20008790:	18fb      	adds	r3, r7, r3
20008792:	1879      	adds	r1, r7, r1
20008794:	8809      	ldrh	r1, [r1, #0]
20008796:	1a8a      	subs	r2, r1, r2
20008798:	801a      	strh	r2, [r3, #0]
2000879a:	e008      	b.n	200087ae <_tu_fifo_peek+0xca>
2000879c:	69bb      	ldr	r3, [r7, #24]
2000879e:	8899      	ldrh	r1, [r3, #4]
200087a0:	2314      	movs	r3, #20
200087a2:	18fb      	adds	r3, r7, r3
200087a4:	2216      	movs	r2, #22
200087a6:	18ba      	adds	r2, r7, r2
200087a8:	8812      	ldrh	r2, [r2, #0]
200087aa:	188a      	adds	r2, r1, r2
200087ac:	801a      	strh	r2, [r3, #0]
200087ae:	69bb      	ldr	r3, [r7, #24]
200087b0:	2114      	movs	r1, #20
200087b2:	187a      	adds	r2, r7, r1
200087b4:	8812      	ldrh	r2, [r2, #0]
200087b6:	815a      	strh	r2, [r3, #10]
200087b8:	187b      	adds	r3, r7, r1
200087ba:	881a      	ldrh	r2, [r3, #0]
200087bc:	1d3b      	adds	r3, r7, #4
200087be:	801a      	strh	r2, [r3, #0]
200087c0:	2326      	movs	r3, #38	@ 0x26
200087c2:	18fb      	adds	r3, r7, r3
200087c4:	68fa      	ldr	r2, [r7, #12]
200087c6:	8892      	ldrh	r2, [r2, #4]
200087c8:	801a      	strh	r2, [r3, #0]
200087ca:	68fb      	ldr	r3, [r7, #12]
200087cc:	889a      	ldrh	r2, [r3, #4]
200087ce:	2312      	movs	r3, #18
200087d0:	18fb      	adds	r3, r7, r3
200087d2:	801a      	strh	r2, [r3, #0]
200087d4:	2310      	movs	r3, #16
200087d6:	18fb      	adds	r3, r7, r3
200087d8:	1d3a      	adds	r2, r7, #4
200087da:	8812      	ldrh	r2, [r2, #0]
200087dc:	801a      	strh	r2, [r3, #0]
200087de:	e008      	b.n	200087f2 <_tu_fifo_peek+0x10e>
200087e0:	2210      	movs	r2, #16
200087e2:	18bb      	adds	r3, r7, r2
200087e4:	18b9      	adds	r1, r7, r2
200087e6:	2212      	movs	r2, #18
200087e8:	18ba      	adds	r2, r7, r2
200087ea:	8809      	ldrh	r1, [r1, #0]
200087ec:	8812      	ldrh	r2, [r2, #0]
200087ee:	1a8a      	subs	r2, r1, r2
200087f0:	801a      	strh	r2, [r3, #0]
200087f2:	2312      	movs	r3, #18
200087f4:	18fa      	adds	r2, r7, r3
200087f6:	2110      	movs	r1, #16
200087f8:	187b      	adds	r3, r7, r1
200087fa:	8812      	ldrh	r2, [r2, #0]
200087fc:	881b      	ldrh	r3, [r3, #0]
200087fe:	429a      	cmp	r2, r3
20008800:	d9ee      	bls.n	200087e0 <_tu_fifo_peek+0xfc>
20008802:	187b      	adds	r3, r7, r1
20008804:	881a      	ldrh	r2, [r3, #0]
20008806:	2124      	movs	r1, #36	@ 0x24
20008808:	187b      	adds	r3, r7, r1
2000880a:	801a      	strh	r2, [r3, #0]
2000880c:	187b      	adds	r3, r7, r1
2000880e:	881a      	ldrh	r2, [r3, #0]
20008810:	68b9      	ldr	r1, [r7, #8]
20008812:	68fb      	ldr	r3, [r7, #12]
20008814:	0018      	movs	r0, r3
20008816:	f7ff fdf3 	bl	20008400 <_ff_pull>
2000881a:	2301      	movs	r3, #1
2000881c:	0018      	movs	r0, r3
2000881e:	46bd      	mov	sp, r7
20008820:	b00a      	add	sp, #40	@ 0x28
20008822:	bd80      	pop	{r7, pc}

20008824 <_tu_fifo_peek_n>:
20008824:	b590      	push	{r4, r7, lr}
20008826:	b08d      	sub	sp, #52	@ 0x34
20008828:	af02      	add	r7, sp, #8
2000882a:	60f8      	str	r0, [r7, #12]
2000882c:	60b9      	str	r1, [r7, #8]
2000882e:	0019      	movs	r1, r3
20008830:	1dbb      	adds	r3, r7, #6
20008832:	801a      	strh	r2, [r3, #0]
20008834:	1d3b      	adds	r3, r7, #4
20008836:	1c0a      	adds	r2, r1, #0
20008838:	801a      	strh	r2, [r3, #0]
2000883a:	68fb      	ldr	r3, [r7, #12]
2000883c:	889a      	ldrh	r2, [r3, #4]
2000883e:	2322      	movs	r3, #34	@ 0x22
20008840:	18fb      	adds	r3, r7, r3
20008842:	801a      	strh	r2, [r3, #0]
20008844:	2120      	movs	r1, #32
20008846:	187b      	adds	r3, r7, r1
20008848:	1d3a      	adds	r2, r7, #4
2000884a:	8812      	ldrh	r2, [r2, #0]
2000884c:	801a      	strh	r2, [r3, #0]
2000884e:	201e      	movs	r0, #30
20008850:	183a      	adds	r2, r7, r0
20008852:	2338      	movs	r3, #56	@ 0x38
20008854:	18fb      	adds	r3, r7, r3
20008856:	881b      	ldrh	r3, [r3, #0]
20008858:	8013      	strh	r3, [r2, #0]
2000885a:	187a      	adds	r2, r7, r1
2000885c:	183b      	adds	r3, r7, r0
2000885e:	8812      	ldrh	r2, [r2, #0]
20008860:	881b      	ldrh	r3, [r3, #0]
20008862:	429a      	cmp	r2, r3
20008864:	d306      	bcc.n	20008874 <_tu_fifo_peek_n+0x50>
20008866:	187a      	adds	r2, r7, r1
20008868:	183b      	adds	r3, r7, r0
2000886a:	8812      	ldrh	r2, [r2, #0]
2000886c:	881b      	ldrh	r3, [r3, #0]
2000886e:	1ad3      	subs	r3, r2, r3
20008870:	b29b      	uxth	r3, r3
20008872:	e00e      	b.n	20008892 <_tu_fifo_peek_n+0x6e>
20008874:	2322      	movs	r3, #34	@ 0x22
20008876:	18fb      	adds	r3, r7, r3
20008878:	881b      	ldrh	r3, [r3, #0]
2000887a:	18db      	adds	r3, r3, r3
2000887c:	b29a      	uxth	r2, r3
2000887e:	2320      	movs	r3, #32
20008880:	18f9      	adds	r1, r7, r3
20008882:	231e      	movs	r3, #30
20008884:	18fb      	adds	r3, r7, r3
20008886:	8809      	ldrh	r1, [r1, #0]
20008888:	881b      	ldrh	r3, [r3, #0]
2000888a:	1acb      	subs	r3, r1, r3
2000888c:	b29b      	uxth	r3, r3
2000888e:	18d3      	adds	r3, r2, r3
20008890:	b29b      	uxth	r3, r3
20008892:	2126      	movs	r1, #38	@ 0x26
20008894:	187a      	adds	r2, r7, r1
20008896:	8013      	strh	r3, [r2, #0]
20008898:	187b      	adds	r3, r7, r1
2000889a:	881b      	ldrh	r3, [r3, #0]
2000889c:	2b00      	cmp	r3, #0
2000889e:	d101      	bne.n	200088a4 <_tu_fifo_peek_n+0x80>
200088a0:	2300      	movs	r3, #0
200088a2:	e070      	b.n	20008986 <_tu_fifo_peek_n+0x162>
200088a4:	68fb      	ldr	r3, [r7, #12]
200088a6:	889b      	ldrh	r3, [r3, #4]
200088a8:	2226      	movs	r2, #38	@ 0x26
200088aa:	18ba      	adds	r2, r7, r2
200088ac:	8812      	ldrh	r2, [r2, #0]
200088ae:	429a      	cmp	r2, r3
200088b0:	d92d      	bls.n	2000890e <_tu_fifo_peek_n+0xea>
200088b2:	68fb      	ldr	r3, [r7, #12]
200088b4:	61bb      	str	r3, [r7, #24]
200088b6:	2116      	movs	r1, #22
200088b8:	187b      	adds	r3, r7, r1
200088ba:	1d3a      	adds	r2, r7, #4
200088bc:	8812      	ldrh	r2, [r2, #0]
200088be:	801a      	strh	r2, [r3, #0]
200088c0:	69bb      	ldr	r3, [r7, #24]
200088c2:	889b      	ldrh	r3, [r3, #4]
200088c4:	187a      	adds	r2, r7, r1
200088c6:	8812      	ldrh	r2, [r2, #0]
200088c8:	429a      	cmp	r2, r3
200088ca:	d308      	bcc.n	200088de <_tu_fifo_peek_n+0xba>
200088cc:	69bb      	ldr	r3, [r7, #24]
200088ce:	889a      	ldrh	r2, [r3, #4]
200088d0:	2314      	movs	r3, #20
200088d2:	18fb      	adds	r3, r7, r3
200088d4:	1879      	adds	r1, r7, r1
200088d6:	8809      	ldrh	r1, [r1, #0]
200088d8:	1a8a      	subs	r2, r1, r2
200088da:	801a      	strh	r2, [r3, #0]
200088dc:	e008      	b.n	200088f0 <_tu_fifo_peek_n+0xcc>
200088de:	69bb      	ldr	r3, [r7, #24]
200088e0:	8899      	ldrh	r1, [r3, #4]
200088e2:	2314      	movs	r3, #20
200088e4:	18fb      	adds	r3, r7, r3
200088e6:	2216      	movs	r2, #22
200088e8:	18ba      	adds	r2, r7, r2
200088ea:	8812      	ldrh	r2, [r2, #0]
200088ec:	188a      	adds	r2, r1, r2
200088ee:	801a      	strh	r2, [r3, #0]
200088f0:	69bb      	ldr	r3, [r7, #24]
200088f2:	2114      	movs	r1, #20
200088f4:	187a      	adds	r2, r7, r1
200088f6:	8812      	ldrh	r2, [r2, #0]
200088f8:	815a      	strh	r2, [r3, #10]
200088fa:	187b      	adds	r3, r7, r1
200088fc:	881a      	ldrh	r2, [r3, #0]
200088fe:	2338      	movs	r3, #56	@ 0x38
20008900:	18fb      	adds	r3, r7, r3
20008902:	801a      	strh	r2, [r3, #0]
20008904:	2326      	movs	r3, #38	@ 0x26
20008906:	18fb      	adds	r3, r7, r3
20008908:	68fa      	ldr	r2, [r7, #12]
2000890a:	8892      	ldrh	r2, [r2, #4]
2000890c:	801a      	strh	r2, [r3, #0]
2000890e:	2126      	movs	r1, #38	@ 0x26
20008910:	187a      	adds	r2, r7, r1
20008912:	1dbb      	adds	r3, r7, #6
20008914:	8812      	ldrh	r2, [r2, #0]
20008916:	881b      	ldrh	r3, [r3, #0]
20008918:	429a      	cmp	r2, r3
2000891a:	d203      	bcs.n	20008924 <_tu_fifo_peek_n+0x100>
2000891c:	1dbb      	adds	r3, r7, #6
2000891e:	187a      	adds	r2, r7, r1
20008920:	8812      	ldrh	r2, [r2, #0]
20008922:	801a      	strh	r2, [r3, #0]
20008924:	68fb      	ldr	r3, [r7, #12]
20008926:	889a      	ldrh	r2, [r3, #4]
20008928:	2312      	movs	r3, #18
2000892a:	18fb      	adds	r3, r7, r3
2000892c:	801a      	strh	r2, [r3, #0]
2000892e:	2310      	movs	r3, #16
20008930:	18fa      	adds	r2, r7, r3
20008932:	2338      	movs	r3, #56	@ 0x38
20008934:	18fb      	adds	r3, r7, r3
20008936:	881b      	ldrh	r3, [r3, #0]
20008938:	8013      	strh	r3, [r2, #0]
2000893a:	e008      	b.n	2000894e <_tu_fifo_peek_n+0x12a>
2000893c:	2210      	movs	r2, #16
2000893e:	18bb      	adds	r3, r7, r2
20008940:	18b9      	adds	r1, r7, r2
20008942:	2212      	movs	r2, #18
20008944:	18ba      	adds	r2, r7, r2
20008946:	8809      	ldrh	r1, [r1, #0]
20008948:	8812      	ldrh	r2, [r2, #0]
2000894a:	1a8a      	subs	r2, r1, r2
2000894c:	801a      	strh	r2, [r3, #0]
2000894e:	2312      	movs	r3, #18
20008950:	18fa      	adds	r2, r7, r3
20008952:	2110      	movs	r1, #16
20008954:	187b      	adds	r3, r7, r1
20008956:	8812      	ldrh	r2, [r2, #0]
20008958:	881b      	ldrh	r3, [r3, #0]
2000895a:	429a      	cmp	r2, r3
2000895c:	d9ee      	bls.n	2000893c <_tu_fifo_peek_n+0x118>
2000895e:	187b      	adds	r3, r7, r1
20008960:	881a      	ldrh	r2, [r3, #0]
20008962:	2124      	movs	r1, #36	@ 0x24
20008964:	187b      	adds	r3, r7, r1
20008966:	801a      	strh	r2, [r3, #0]
20008968:	187b      	adds	r3, r7, r1
2000896a:	881c      	ldrh	r4, [r3, #0]
2000896c:	1dbb      	adds	r3, r7, #6
2000896e:	881a      	ldrh	r2, [r3, #0]
20008970:	68b9      	ldr	r1, [r7, #8]
20008972:	68f8      	ldr	r0, [r7, #12]
20008974:	233c      	movs	r3, #60	@ 0x3c
20008976:	18fb      	adds	r3, r7, r3
20008978:	781b      	ldrb	r3, [r3, #0]
2000897a:	9300      	str	r3, [sp, #0]
2000897c:	0023      	movs	r3, r4
2000897e:	f7ff fd5f 	bl	20008440 <_ff_pull_n>
20008982:	1dbb      	adds	r3, r7, #6
20008984:	881b      	ldrh	r3, [r3, #0]
20008986:	0018      	movs	r0, r3
20008988:	46bd      	mov	sp, r7
2000898a:	b00b      	add	sp, #44	@ 0x2c
2000898c:	bd90      	pop	{r4, r7, pc}

2000898e <_tu_fifo_write_n>:
2000898e:	b5f0      	push	{r4, r5, r6, r7, lr}
20008990:	b097      	sub	sp, #92	@ 0x5c
20008992:	af02      	add	r7, sp, #8
20008994:	60f8      	str	r0, [r7, #12]
20008996:	60b9      	str	r1, [r7, #8]
20008998:	0019      	movs	r1, r3
2000899a:	1dbb      	adds	r3, r7, #6
2000899c:	801a      	strh	r2, [r3, #0]
2000899e:	1d7b      	adds	r3, r7, #5
200089a0:	1c0a      	adds	r2, r1, #0
200089a2:	701a      	strb	r2, [r3, #0]
200089a4:	1dbb      	adds	r3, r7, #6
200089a6:	881b      	ldrh	r3, [r3, #0]
200089a8:	2b00      	cmp	r3, #0
200089aa:	d101      	bne.n	200089b0 <_tu_fifo_write_n+0x22>
200089ac:	2300      	movs	r3, #0
200089ae:	e14d      	b.n	20008c4c <_tu_fifo_write_n+0x2be>
200089b0:	68fb      	ldr	r3, [r7, #12]
200089b2:	68db      	ldr	r3, [r3, #12]
200089b4:	63fb      	str	r3, [r7, #60]	@ 0x3c
200089b6:	6bfb      	ldr	r3, [r7, #60]	@ 0x3c
200089b8:	2b00      	cmp	r3, #0
200089ba:	d00a      	beq.n	200089d2 <_tu_fifo_write_n+0x44>
200089bc:	6bfb      	ldr	r3, [r7, #60]	@ 0x3c
200089be:	63bb      	str	r3, [r7, #56]	@ 0x38
200089c0:	2301      	movs	r3, #1
200089c2:	425b      	negs	r3, r3
200089c4:	637b      	str	r3, [r7, #52]	@ 0x34
200089c6:	6b7a      	ldr	r2, [r7, #52]	@ 0x34
200089c8:	6bbb      	ldr	r3, [r7, #56]	@ 0x38
200089ca:	0011      	movs	r1, r2
200089cc:	0018      	movs	r0, r3
200089ce:	f001 f903 	bl	20009bd8 <mutex_enter_timeout_ms>
200089d2:	46c0      	nop			@ (mov r8, r8)
200089d4:	214e      	movs	r1, #78	@ 0x4e
200089d6:	187b      	adds	r3, r7, r1
200089d8:	68fa      	ldr	r2, [r7, #12]
200089da:	8912      	ldrh	r2, [r2, #8]
200089dc:	801a      	strh	r2, [r3, #0]
200089de:	2046      	movs	r0, #70	@ 0x46
200089e0:	183b      	adds	r3, r7, r0
200089e2:	68fa      	ldr	r2, [r7, #12]
200089e4:	8952      	ldrh	r2, [r2, #10]
200089e6:	801a      	strh	r2, [r3, #0]
200089e8:	68bb      	ldr	r3, [r7, #8]
200089ea:	64bb      	str	r3, [r7, #72]	@ 0x48
200089ec:	68fb      	ldr	r3, [r7, #12]
200089ee:	79db      	ldrb	r3, [r3, #7]
200089f0:	061b      	lsls	r3, r3, #24
200089f2:	0fdb      	lsrs	r3, r3, #31
200089f4:	b2db      	uxtb	r3, r3
200089f6:	2201      	movs	r2, #1
200089f8:	4053      	eors	r3, r2
200089fa:	b2db      	uxtb	r3, r3
200089fc:	2b00      	cmp	r3, #0
200089fe:	d100      	bne.n	20008a02 <_tu_fifo_write_n+0x74>
20008a00:	e065      	b.n	20008ace <_tu_fifo_write_n+0x140>
20008a02:	68fb      	ldr	r3, [r7, #12]
20008a04:	889a      	ldrh	r2, [r3, #4]
20008a06:	242e      	movs	r4, #46	@ 0x2e
20008a08:	193b      	adds	r3, r7, r4
20008a0a:	801a      	strh	r2, [r3, #0]
20008a0c:	252c      	movs	r5, #44	@ 0x2c
20008a0e:	197b      	adds	r3, r7, r5
20008a10:	187a      	adds	r2, r7, r1
20008a12:	8812      	ldrh	r2, [r2, #0]
20008a14:	801a      	strh	r2, [r3, #0]
20008a16:	262a      	movs	r6, #42	@ 0x2a
20008a18:	19bb      	adds	r3, r7, r6
20008a1a:	183a      	adds	r2, r7, r0
20008a1c:	8812      	ldrh	r2, [r2, #0]
20008a1e:	801a      	strh	r2, [r3, #0]
20008a20:	2328      	movs	r3, #40	@ 0x28
20008a22:	18fb      	adds	r3, r7, r3
20008a24:	193a      	adds	r2, r7, r4
20008a26:	8812      	ldrh	r2, [r2, #0]
20008a28:	801a      	strh	r2, [r3, #0]
20008a2a:	2126      	movs	r1, #38	@ 0x26
20008a2c:	187b      	adds	r3, r7, r1
20008a2e:	197a      	adds	r2, r7, r5
20008a30:	8812      	ldrh	r2, [r2, #0]
20008a32:	801a      	strh	r2, [r3, #0]
20008a34:	2024      	movs	r0, #36	@ 0x24
20008a36:	183b      	adds	r3, r7, r0
20008a38:	19ba      	adds	r2, r7, r6
20008a3a:	8812      	ldrh	r2, [r2, #0]
20008a3c:	801a      	strh	r2, [r3, #0]
20008a3e:	187a      	adds	r2, r7, r1
20008a40:	183b      	adds	r3, r7, r0
20008a42:	8812      	ldrh	r2, [r2, #0]
20008a44:	881b      	ldrh	r3, [r3, #0]
20008a46:	429a      	cmp	r2, r3
20008a48:	d306      	bcc.n	20008a58 <_tu_fifo_write_n+0xca>
20008a4a:	187a      	adds	r2, r7, r1
20008a4c:	183b      	adds	r3, r7, r0
20008a4e:	8812      	ldrh	r2, [r2, #0]
20008a50:	881b      	ldrh	r3, [r3, #0]
20008a52:	1ad3      	subs	r3, r2, r3
20008a54:	b29b      	uxth	r3, r3
20008a56:	e00e      	b.n	20008a76 <_tu_fifo_write_n+0xe8>
20008a58:	2328      	movs	r3, #40	@ 0x28
20008a5a:	18fb      	adds	r3, r7, r3
20008a5c:	881b      	ldrh	r3, [r3, #0]
20008a5e:	18db      	adds	r3, r3, r3
20008a60:	b29a      	uxth	r2, r3
20008a62:	2326      	movs	r3, #38	@ 0x26
20008a64:	18f9      	adds	r1, r7, r3
20008a66:	2324      	movs	r3, #36	@ 0x24
20008a68:	18fb      	adds	r3, r7, r3
20008a6a:	8809      	ldrh	r1, [r1, #0]
20008a6c:	881b      	ldrh	r3, [r3, #0]
20008a6e:	1acb      	subs	r3, r1, r3
20008a70:	b29b      	uxth	r3, r3
20008a72:	18d3      	adds	r3, r2, r3
20008a74:	b29b      	uxth	r3, r3
20008a76:	2122      	movs	r1, #34	@ 0x22
20008a78:	187a      	adds	r2, r7, r1
20008a7a:	8013      	strh	r3, [r2, #0]
20008a7c:	202e      	movs	r0, #46	@ 0x2e
20008a7e:	183a      	adds	r2, r7, r0
20008a80:	187b      	adds	r3, r7, r1
20008a82:	8812      	ldrh	r2, [r2, #0]
20008a84:	881b      	ldrh	r3, [r3, #0]
20008a86:	429a      	cmp	r2, r3
20008a88:	d906      	bls.n	20008a98 <_tu_fifo_write_n+0x10a>
20008a8a:	183a      	adds	r2, r7, r0
20008a8c:	187b      	adds	r3, r7, r1
20008a8e:	8812      	ldrh	r2, [r2, #0]
20008a90:	881b      	ldrh	r3, [r3, #0]
20008a92:	1ad3      	subs	r3, r2, r3
20008a94:	b29a      	uxth	r2, r3
20008a96:	e000      	b.n	20008a9a <_tu_fifo_write_n+0x10c>
20008a98:	2200      	movs	r2, #0
20008a9a:	2142      	movs	r1, #66	@ 0x42
20008a9c:	187b      	adds	r3, r7, r1
20008a9e:	801a      	strh	r2, [r3, #0]
20008aa0:	2032      	movs	r0, #50	@ 0x32
20008aa2:	183b      	adds	r3, r7, r0
20008aa4:	1dba      	adds	r2, r7, #6
20008aa6:	8812      	ldrh	r2, [r2, #0]
20008aa8:	801a      	strh	r2, [r3, #0]
20008aaa:	2430      	movs	r4, #48	@ 0x30
20008aac:	193b      	adds	r3, r7, r4
20008aae:	187a      	adds	r2, r7, r1
20008ab0:	8812      	ldrh	r2, [r2, #0]
20008ab2:	801a      	strh	r2, [r3, #0]
20008ab4:	183b      	adds	r3, r7, r0
20008ab6:	193a      	adds	r2, r7, r4
20008ab8:	8810      	ldrh	r0, [r2, #0]
20008aba:	881b      	ldrh	r3, [r3, #0]
20008abc:	b299      	uxth	r1, r3
20008abe:	b282      	uxth	r2, r0
20008ac0:	4291      	cmp	r1, r2
20008ac2:	d900      	bls.n	20008ac6 <_tu_fifo_write_n+0x138>
20008ac4:	1c03      	adds	r3, r0, #0
20008ac6:	b29a      	uxth	r2, r3
20008ac8:	1dbb      	adds	r3, r7, #6
20008aca:	801a      	strh	r2, [r3, #0]
20008acc:	e06f      	b.n	20008bae <_tu_fifo_write_n+0x220>
20008ace:	68fb      	ldr	r3, [r7, #12]
20008ad0:	889b      	ldrh	r3, [r3, #4]
20008ad2:	1dba      	adds	r2, r7, #6
20008ad4:	8812      	ldrh	r2, [r2, #0]
20008ad6:	429a      	cmp	r2, r3
20008ad8:	d31d      	bcc.n	20008b16 <_tu_fifo_write_n+0x188>
20008ada:	1d7b      	adds	r3, r7, #5
20008adc:	781b      	ldrb	r3, [r3, #0]
20008ade:	2b00      	cmp	r3, #0
20008ae0:	d10e      	bne.n	20008b00 <_tu_fifo_write_n+0x172>
20008ae2:	1dbb      	adds	r3, r7, #6
20008ae4:	881b      	ldrh	r3, [r3, #0]
20008ae6:	68fa      	ldr	r2, [r7, #12]
20008ae8:	8892      	ldrh	r2, [r2, #4]
20008aea:	1a9b      	subs	r3, r3, r2
20008aec:	68fa      	ldr	r2, [r7, #12]
20008aee:	88d2      	ldrh	r2, [r2, #6]
20008af0:	0452      	lsls	r2, r2, #17
20008af2:	0c52      	lsrs	r2, r2, #17
20008af4:	b292      	uxth	r2, r2
20008af6:	4353      	muls	r3, r2
20008af8:	001a      	movs	r2, r3
20008afa:	6cbb      	ldr	r3, [r7, #72]	@ 0x48
20008afc:	189b      	adds	r3, r3, r2
20008afe:	64bb      	str	r3, [r7, #72]	@ 0x48
20008b00:	1dbb      	adds	r3, r7, #6
20008b02:	68fa      	ldr	r2, [r7, #12]
20008b04:	8892      	ldrh	r2, [r2, #4]
20008b06:	801a      	strh	r2, [r3, #0]
20008b08:	234e      	movs	r3, #78	@ 0x4e
20008b0a:	18fb      	adds	r3, r7, r3
20008b0c:	2246      	movs	r2, #70	@ 0x46
20008b0e:	18ba      	adds	r2, r7, r2
20008b10:	8812      	ldrh	r2, [r2, #0]
20008b12:	801a      	strh	r2, [r3, #0]
20008b14:	e04b      	b.n	20008bae <_tu_fifo_write_n+0x220>
20008b16:	68fb      	ldr	r3, [r7, #12]
20008b18:	889a      	ldrh	r2, [r3, #4]
20008b1a:	2320      	movs	r3, #32
20008b1c:	18fb      	adds	r3, r7, r3
20008b1e:	801a      	strh	r2, [r3, #0]
20008b20:	211e      	movs	r1, #30
20008b22:	187b      	adds	r3, r7, r1
20008b24:	224e      	movs	r2, #78	@ 0x4e
20008b26:	18ba      	adds	r2, r7, r2
20008b28:	8812      	ldrh	r2, [r2, #0]
20008b2a:	801a      	strh	r2, [r3, #0]
20008b2c:	201c      	movs	r0, #28
20008b2e:	183b      	adds	r3, r7, r0
20008b30:	2246      	movs	r2, #70	@ 0x46
20008b32:	18ba      	adds	r2, r7, r2
20008b34:	8812      	ldrh	r2, [r2, #0]
20008b36:	801a      	strh	r2, [r3, #0]
20008b38:	187a      	adds	r2, r7, r1
20008b3a:	183b      	adds	r3, r7, r0
20008b3c:	8812      	ldrh	r2, [r2, #0]
20008b3e:	881b      	ldrh	r3, [r3, #0]
20008b40:	429a      	cmp	r2, r3
20008b42:	d306      	bcc.n	20008b52 <_tu_fifo_write_n+0x1c4>
20008b44:	187a      	adds	r2, r7, r1
20008b46:	183b      	adds	r3, r7, r0
20008b48:	8812      	ldrh	r2, [r2, #0]
20008b4a:	881b      	ldrh	r3, [r3, #0]
20008b4c:	1ad3      	subs	r3, r2, r3
20008b4e:	b29b      	uxth	r3, r3
20008b50:	e00e      	b.n	20008b70 <_tu_fifo_write_n+0x1e2>
20008b52:	2320      	movs	r3, #32
20008b54:	18fb      	adds	r3, r7, r3
20008b56:	881b      	ldrh	r3, [r3, #0]
20008b58:	18db      	adds	r3, r3, r3
20008b5a:	b29a      	uxth	r2, r3
20008b5c:	231e      	movs	r3, #30
20008b5e:	18f9      	adds	r1, r7, r3
20008b60:	231c      	movs	r3, #28
20008b62:	18fb      	adds	r3, r7, r3
20008b64:	8809      	ldrh	r1, [r1, #0]
20008b66:	881b      	ldrh	r3, [r3, #0]
20008b68:	1acb      	subs	r3, r1, r3
20008b6a:	b29b      	uxth	r3, r3
20008b6c:	18d3      	adds	r3, r2, r3
20008b6e:	b29b      	uxth	r3, r3
20008b70:	2144      	movs	r1, #68	@ 0x44
20008b72:	187a      	adds	r2, r7, r1
20008b74:	8013      	strh	r3, [r2, #0]
20008b76:	187b      	adds	r3, r7, r1
20008b78:	881a      	ldrh	r2, [r3, #0]
20008b7a:	1dbb      	adds	r3, r7, #6
20008b7c:	881b      	ldrh	r3, [r3, #0]
20008b7e:	18d2      	adds	r2, r2, r3
20008b80:	68fb      	ldr	r3, [r7, #12]
20008b82:	889b      	ldrh	r3, [r3, #4]
20008b84:	005b      	lsls	r3, r3, #1
20008b86:	429a      	cmp	r2, r3
20008b88:	db11      	blt.n	20008bae <_tu_fifo_write_n+0x220>
20008b8a:	68fb      	ldr	r3, [r7, #12]
20008b8c:	8898      	ldrh	r0, [r3, #4]
20008b8e:	68fb      	ldr	r3, [r7, #12]
20008b90:	889a      	ldrh	r2, [r3, #4]
20008b92:	1dbb      	adds	r3, r7, #6
20008b94:	881b      	ldrh	r3, [r3, #0]
20008b96:	1ad3      	subs	r3, r2, r3
20008b98:	b29a      	uxth	r2, r3
20008b9a:	234e      	movs	r3, #78	@ 0x4e
20008b9c:	18fc      	adds	r4, r7, r3
20008b9e:	2346      	movs	r3, #70	@ 0x46
20008ba0:	18fb      	adds	r3, r7, r3
20008ba2:	881b      	ldrh	r3, [r3, #0]
20008ba4:	0019      	movs	r1, r3
20008ba6:	f7ff fd62 	bl	2000866e <advance_index>
20008baa:	0003      	movs	r3, r0
20008bac:	8023      	strh	r3, [r4, #0]
20008bae:	1dbb      	adds	r3, r7, #6
20008bb0:	881b      	ldrh	r3, [r3, #0]
20008bb2:	2b00      	cmp	r3, #0
20008bb4:	d03b      	beq.n	20008c2e <_tu_fifo_write_n+0x2a0>
20008bb6:	68fb      	ldr	r3, [r7, #12]
20008bb8:	889a      	ldrh	r2, [r3, #4]
20008bba:	231a      	movs	r3, #26
20008bbc:	18fb      	adds	r3, r7, r3
20008bbe:	801a      	strh	r2, [r3, #0]
20008bc0:	2318      	movs	r3, #24
20008bc2:	18fb      	adds	r3, r7, r3
20008bc4:	224e      	movs	r2, #78	@ 0x4e
20008bc6:	18ba      	adds	r2, r7, r2
20008bc8:	8812      	ldrh	r2, [r2, #0]
20008bca:	801a      	strh	r2, [r3, #0]
20008bcc:	e008      	b.n	20008be0 <_tu_fifo_write_n+0x252>
20008bce:	2218      	movs	r2, #24
20008bd0:	18bb      	adds	r3, r7, r2
20008bd2:	18b9      	adds	r1, r7, r2
20008bd4:	221a      	movs	r2, #26
20008bd6:	18ba      	adds	r2, r7, r2
20008bd8:	8809      	ldrh	r1, [r1, #0]
20008bda:	8812      	ldrh	r2, [r2, #0]
20008bdc:	1a8a      	subs	r2, r1, r2
20008bde:	801a      	strh	r2, [r3, #0]
20008be0:	231a      	movs	r3, #26
20008be2:	18fa      	adds	r2, r7, r3
20008be4:	2118      	movs	r1, #24
20008be6:	187b      	adds	r3, r7, r1
20008be8:	8812      	ldrh	r2, [r2, #0]
20008bea:	881b      	ldrh	r3, [r3, #0]
20008bec:	429a      	cmp	r2, r3
20008bee:	d9ee      	bls.n	20008bce <_tu_fifo_write_n+0x240>
20008bf0:	187b      	adds	r3, r7, r1
20008bf2:	881a      	ldrh	r2, [r3, #0]
20008bf4:	2140      	movs	r1, #64	@ 0x40
20008bf6:	187b      	adds	r3, r7, r1
20008bf8:	801a      	strh	r2, [r3, #0]
20008bfa:	187b      	adds	r3, r7, r1
20008bfc:	881c      	ldrh	r4, [r3, #0]
20008bfe:	1dbb      	adds	r3, r7, #6
20008c00:	881a      	ldrh	r2, [r3, #0]
20008c02:	6cb9      	ldr	r1, [r7, #72]	@ 0x48
20008c04:	68f8      	ldr	r0, [r7, #12]
20008c06:	1d7b      	adds	r3, r7, #5
20008c08:	781b      	ldrb	r3, [r3, #0]
20008c0a:	9300      	str	r3, [sp, #0]
20008c0c:	0023      	movs	r3, r4
20008c0e:	f7ff fae2 	bl	200081d6 <_ff_push_n>
20008c12:	68fb      	ldr	r3, [r7, #12]
20008c14:	8898      	ldrh	r0, [r3, #4]
20008c16:	1dbb      	adds	r3, r7, #6
20008c18:	881a      	ldrh	r2, [r3, #0]
20008c1a:	234e      	movs	r3, #78	@ 0x4e
20008c1c:	18fb      	adds	r3, r7, r3
20008c1e:	881b      	ldrh	r3, [r3, #0]
20008c20:	0019      	movs	r1, r3
20008c22:	f7ff fd24 	bl	2000866e <advance_index>
20008c26:	0003      	movs	r3, r0
20008c28:	001a      	movs	r2, r3
20008c2a:	68fb      	ldr	r3, [r7, #12]
20008c2c:	811a      	strh	r2, [r3, #8]
20008c2e:	68fb      	ldr	r3, [r7, #12]
20008c30:	68db      	ldr	r3, [r3, #12]
20008c32:	617b      	str	r3, [r7, #20]
20008c34:	697b      	ldr	r3, [r7, #20]
20008c36:	2b00      	cmp	r3, #0
20008c38:	d005      	beq.n	20008c46 <_tu_fifo_write_n+0x2b8>
20008c3a:	697b      	ldr	r3, [r7, #20]
20008c3c:	613b      	str	r3, [r7, #16]
20008c3e:	693b      	ldr	r3, [r7, #16]
20008c40:	0018      	movs	r0, r3
20008c42:	f001 f848 	bl	20009cd6 <mutex_exit>
20008c46:	46c0      	nop			@ (mov r8, r8)
20008c48:	1dbb      	adds	r3, r7, #6
20008c4a:	881b      	ldrh	r3, [r3, #0]
20008c4c:	0018      	movs	r0, r3
20008c4e:	46bd      	mov	sp, r7
20008c50:	b015      	add	sp, #84	@ 0x54
20008c52:	bdf0      	pop	{r4, r5, r6, r7, pc}

20008c54 <_tu_fifo_read_n>:
20008c54:	b5f0      	push	{r4, r5, r6, r7, lr}
20008c56:	b08d      	sub	sp, #52	@ 0x34
20008c58:	af02      	add	r7, sp, #8
20008c5a:	60f8      	str	r0, [r7, #12]
20008c5c:	60b9      	str	r1, [r7, #8]
20008c5e:	0019      	movs	r1, r3
20008c60:	1dbb      	adds	r3, r7, #6
20008c62:	801a      	strh	r2, [r3, #0]
20008c64:	1d7b      	adds	r3, r7, #5
20008c66:	1c0a      	adds	r2, r1, #0
20008c68:	701a      	strb	r2, [r3, #0]
20008c6a:	68fb      	ldr	r3, [r7, #12]
20008c6c:	691b      	ldr	r3, [r3, #16]
20008c6e:	61fb      	str	r3, [r7, #28]
20008c70:	69fb      	ldr	r3, [r7, #28]
20008c72:	2b00      	cmp	r3, #0
20008c74:	d00a      	beq.n	20008c8c <_tu_fifo_read_n+0x38>
20008c76:	69fb      	ldr	r3, [r7, #28]
20008c78:	61bb      	str	r3, [r7, #24]
20008c7a:	2301      	movs	r3, #1
20008c7c:	425b      	negs	r3, r3
20008c7e:	617b      	str	r3, [r7, #20]
20008c80:	697a      	ldr	r2, [r7, #20]
20008c82:	69bb      	ldr	r3, [r7, #24]
20008c84:	0011      	movs	r1, r2
20008c86:	0018      	movs	r0, r3
20008c88:	f000 ffa6 	bl	20009bd8 <mutex_enter_timeout_ms>
20008c8c:	46c0      	nop			@ (mov r8, r8)
20008c8e:	68fb      	ldr	r3, [r7, #12]
20008c90:	891b      	ldrh	r3, [r3, #8]
20008c92:	b29e      	uxth	r6, r3
20008c94:	68fb      	ldr	r3, [r7, #12]
20008c96:	895b      	ldrh	r3, [r3, #10]
20008c98:	b29b      	uxth	r3, r3
20008c9a:	1dbc      	adds	r4, r7, #6
20008c9c:	1dba      	adds	r2, r7, #6
20008c9e:	8815      	ldrh	r5, [r2, #0]
20008ca0:	68b9      	ldr	r1, [r7, #8]
20008ca2:	68f8      	ldr	r0, [r7, #12]
20008ca4:	1d7a      	adds	r2, r7, #5
20008ca6:	7812      	ldrb	r2, [r2, #0]
20008ca8:	9201      	str	r2, [sp, #4]
20008caa:	9300      	str	r3, [sp, #0]
20008cac:	0033      	movs	r3, r6
20008cae:	002a      	movs	r2, r5
20008cb0:	f7ff fdb8 	bl	20008824 <_tu_fifo_peek_n>
20008cb4:	0003      	movs	r3, r0
20008cb6:	8023      	strh	r3, [r4, #0]
20008cb8:	68fb      	ldr	r3, [r7, #12]
20008cba:	8898      	ldrh	r0, [r3, #4]
20008cbc:	68fb      	ldr	r3, [r7, #12]
20008cbe:	895b      	ldrh	r3, [r3, #10]
20008cc0:	b299      	uxth	r1, r3
20008cc2:	1dbb      	adds	r3, r7, #6
20008cc4:	881b      	ldrh	r3, [r3, #0]
20008cc6:	001a      	movs	r2, r3
20008cc8:	f7ff fcd1 	bl	2000866e <advance_index>
20008ccc:	0003      	movs	r3, r0
20008cce:	001a      	movs	r2, r3
20008cd0:	68fb      	ldr	r3, [r7, #12]
20008cd2:	815a      	strh	r2, [r3, #10]
20008cd4:	68fb      	ldr	r3, [r7, #12]
20008cd6:	691b      	ldr	r3, [r3, #16]
20008cd8:	627b      	str	r3, [r7, #36]	@ 0x24
20008cda:	6a7b      	ldr	r3, [r7, #36]	@ 0x24
20008cdc:	2b00      	cmp	r3, #0
20008cde:	d005      	beq.n	20008cec <_tu_fifo_read_n+0x98>
20008ce0:	6a7b      	ldr	r3, [r7, #36]	@ 0x24
20008ce2:	623b      	str	r3, [r7, #32]
20008ce4:	6a3b      	ldr	r3, [r7, #32]
20008ce6:	0018      	movs	r0, r3
20008ce8:	f000 fff5 	bl	20009cd6 <mutex_exit>
20008cec:	46c0      	nop			@ (mov r8, r8)
20008cee:	1dbb      	adds	r3, r7, #6
20008cf0:	881b      	ldrh	r3, [r3, #0]
20008cf2:	0018      	movs	r0, r3
20008cf4:	46bd      	mov	sp, r7
20008cf6:	b00b      	add	sp, #44	@ 0x2c
20008cf8:	bdf0      	pop	{r4, r5, r6, r7, pc}

20008cfa <tu_fifo_count>:
20008cfa:	b590      	push	{r4, r7, lr}
20008cfc:	b087      	sub	sp, #28
20008cfe:	af00      	add	r7, sp, #0
20008d00:	6078      	str	r0, [r7, #4]
20008d02:	687b      	ldr	r3, [r7, #4]
20008d04:	8898      	ldrh	r0, [r3, #4]
20008d06:	687b      	ldr	r3, [r7, #4]
20008d08:	891b      	ldrh	r3, [r3, #8]
20008d0a:	b299      	uxth	r1, r3
20008d0c:	687b      	ldr	r3, [r7, #4]
20008d0e:	895b      	ldrh	r3, [r3, #10]
20008d10:	b29a      	uxth	r2, r3
20008d12:	2312      	movs	r3, #18
20008d14:	18fb      	adds	r3, r7, r3
20008d16:	8018      	strh	r0, [r3, #0]
20008d18:	2010      	movs	r0, #16
20008d1a:	183b      	adds	r3, r7, r0
20008d1c:	8019      	strh	r1, [r3, #0]
20008d1e:	240e      	movs	r4, #14
20008d20:	193b      	adds	r3, r7, r4
20008d22:	801a      	strh	r2, [r3, #0]
20008d24:	0001      	movs	r1, r0
20008d26:	187a      	adds	r2, r7, r1
20008d28:	0020      	movs	r0, r4
20008d2a:	183b      	adds	r3, r7, r0
20008d2c:	8812      	ldrh	r2, [r2, #0]
20008d2e:	881b      	ldrh	r3, [r3, #0]
20008d30:	429a      	cmp	r2, r3
20008d32:	d306      	bcc.n	20008d42 <tu_fifo_count+0x48>
20008d34:	187a      	adds	r2, r7, r1
20008d36:	183b      	adds	r3, r7, r0
20008d38:	8812      	ldrh	r2, [r2, #0]
20008d3a:	881b      	ldrh	r3, [r3, #0]
20008d3c:	1ad3      	subs	r3, r2, r3
20008d3e:	b29b      	uxth	r3, r3
20008d40:	e00e      	b.n	20008d60 <tu_fifo_count+0x66>
20008d42:	2312      	movs	r3, #18
20008d44:	18fb      	adds	r3, r7, r3
20008d46:	881b      	ldrh	r3, [r3, #0]
20008d48:	18db      	adds	r3, r3, r3
20008d4a:	b29a      	uxth	r2, r3
20008d4c:	2310      	movs	r3, #16
20008d4e:	18f9      	adds	r1, r7, r3
20008d50:	230e      	movs	r3, #14
20008d52:	18fb      	adds	r3, r7, r3
20008d54:	8809      	ldrh	r1, [r1, #0]
20008d56:	881b      	ldrh	r3, [r3, #0]
20008d58:	1acb      	subs	r3, r1, r3
20008d5a:	b29b      	uxth	r3, r3
20008d5c:	18d3      	adds	r3, r2, r3
20008d5e:	b29b      	uxth	r3, r3
20008d60:	687a      	ldr	r2, [r7, #4]
20008d62:	8891      	ldrh	r1, [r2, #4]
20008d64:	2016      	movs	r0, #22
20008d66:	183a      	adds	r2, r7, r0
20008d68:	8013      	strh	r3, [r2, #0]
20008d6a:	2414      	movs	r4, #20
20008d6c:	193b      	adds	r3, r7, r4
20008d6e:	1c0a      	adds	r2, r1, #0
20008d70:	801a      	strh	r2, [r3, #0]
20008d72:	183b      	adds	r3, r7, r0
20008d74:	193a      	adds	r2, r7, r4
20008d76:	8810      	ldrh	r0, [r2, #0]
20008d78:	881b      	ldrh	r3, [r3, #0]
20008d7a:	b299      	uxth	r1, r3
20008d7c:	b282      	uxth	r2, r0
20008d7e:	4291      	cmp	r1, r2
20008d80:	d900      	bls.n	20008d84 <tu_fifo_count+0x8a>
20008d82:	1c03      	adds	r3, r0, #0
20008d84:	b29b      	uxth	r3, r3
20008d86:	0018      	movs	r0, r3
20008d88:	46bd      	mov	sp, r7
20008d8a:	b007      	add	sp, #28
20008d8c:	bd90      	pop	{r4, r7, pc}

20008d8e <tu_fifo_empty>:
20008d8e:	b580      	push	{r7, lr}
20008d90:	b082      	sub	sp, #8
20008d92:	af00      	add	r7, sp, #0
20008d94:	6078      	str	r0, [r7, #4]
20008d96:	687b      	ldr	r3, [r7, #4]
20008d98:	891b      	ldrh	r3, [r3, #8]
20008d9a:	b29a      	uxth	r2, r3
20008d9c:	687b      	ldr	r3, [r7, #4]
20008d9e:	895b      	ldrh	r3, [r3, #10]
20008da0:	b29b      	uxth	r3, r3
20008da2:	1ad3      	subs	r3, r2, r3
20008da4:	425a      	negs	r2, r3
20008da6:	4153      	adcs	r3, r2
20008da8:	b2db      	uxtb	r3, r3
20008daa:	0018      	movs	r0, r3
20008dac:	46bd      	mov	sp, r7
20008dae:	b002      	add	sp, #8
20008db0:	bd80      	pop	{r7, pc}

20008db2 <tu_fifo_full>:
20008db2:	b590      	push	{r4, r7, lr}
20008db4:	b085      	sub	sp, #20
20008db6:	af00      	add	r7, sp, #0
20008db8:	6078      	str	r0, [r7, #4]
20008dba:	687b      	ldr	r3, [r7, #4]
20008dbc:	8898      	ldrh	r0, [r3, #4]
20008dbe:	687b      	ldr	r3, [r7, #4]
20008dc0:	891b      	ldrh	r3, [r3, #8]
20008dc2:	b299      	uxth	r1, r3
20008dc4:	687b      	ldr	r3, [r7, #4]
20008dc6:	895b      	ldrh	r3, [r3, #10]
20008dc8:	b29a      	uxth	r2, r3
20008dca:	230e      	movs	r3, #14
20008dcc:	18fb      	adds	r3, r7, r3
20008dce:	8018      	strh	r0, [r3, #0]
20008dd0:	200c      	movs	r0, #12
20008dd2:	183b      	adds	r3, r7, r0
20008dd4:	8019      	strh	r1, [r3, #0]
20008dd6:	240a      	movs	r4, #10
20008dd8:	193b      	adds	r3, r7, r4
20008dda:	801a      	strh	r2, [r3, #0]
20008ddc:	0001      	movs	r1, r0
20008dde:	187a      	adds	r2, r7, r1
20008de0:	0020      	movs	r0, r4
20008de2:	183b      	adds	r3, r7, r0
20008de4:	8812      	ldrh	r2, [r2, #0]
20008de6:	881b      	ldrh	r3, [r3, #0]
20008de8:	429a      	cmp	r2, r3
20008dea:	d306      	bcc.n	20008dfa <tu_fifo_full+0x48>
20008dec:	187a      	adds	r2, r7, r1
20008dee:	183b      	adds	r3, r7, r0
20008df0:	8812      	ldrh	r2, [r2, #0]
20008df2:	881b      	ldrh	r3, [r3, #0]
20008df4:	1ad3      	subs	r3, r2, r3
20008df6:	b29b      	uxth	r3, r3
20008df8:	e00e      	b.n	20008e18 <tu_fifo_full+0x66>
20008dfa:	230e      	movs	r3, #14
20008dfc:	18fb      	adds	r3, r7, r3
20008dfe:	881b      	ldrh	r3, [r3, #0]
20008e00:	18db      	adds	r3, r3, r3
20008e02:	b29a      	uxth	r2, r3
20008e04:	230c      	movs	r3, #12
20008e06:	18f9      	adds	r1, r7, r3
20008e08:	230a      	movs	r3, #10
20008e0a:	18fb      	adds	r3, r7, r3
20008e0c:	8809      	ldrh	r1, [r1, #0]
20008e0e:	881b      	ldrh	r3, [r3, #0]
20008e10:	1acb      	subs	r3, r1, r3
20008e12:	b29b      	uxth	r3, r3
20008e14:	18d3      	adds	r3, r2, r3
20008e16:	b29b      	uxth	r3, r3
20008e18:	687a      	ldr	r2, [r7, #4]
20008e1a:	8891      	ldrh	r1, [r2, #4]
20008e1c:	2200      	movs	r2, #0
20008e1e:	428b      	cmp	r3, r1
20008e20:	4152      	adcs	r2, r2
20008e22:	0013      	movs	r3, r2
20008e24:	b2db      	uxtb	r3, r3
20008e26:	0018      	movs	r0, r3
20008e28:	46bd      	mov	sp, r7
20008e2a:	b005      	add	sp, #20
20008e2c:	bd90      	pop	{r4, r7, pc}

20008e2e <tu_fifo_remaining>:
20008e2e:	b5b0      	push	{r4, r5, r7, lr}
20008e30:	b086      	sub	sp, #24
20008e32:	af00      	add	r7, sp, #0
20008e34:	6078      	str	r0, [r7, #4]
20008e36:	687b      	ldr	r3, [r7, #4]
20008e38:	8898      	ldrh	r0, [r3, #4]
20008e3a:	687b      	ldr	r3, [r7, #4]
20008e3c:	891b      	ldrh	r3, [r3, #8]
20008e3e:	b299      	uxth	r1, r3
20008e40:	687b      	ldr	r3, [r7, #4]
20008e42:	895b      	ldrh	r3, [r3, #10]
20008e44:	b29a      	uxth	r2, r3
20008e46:	2416      	movs	r4, #22
20008e48:	193b      	adds	r3, r7, r4
20008e4a:	8018      	strh	r0, [r3, #0]
20008e4c:	2014      	movs	r0, #20
20008e4e:	183b      	adds	r3, r7, r0
20008e50:	8019      	strh	r1, [r3, #0]
20008e52:	2512      	movs	r5, #18
20008e54:	197b      	adds	r3, r7, r5
20008e56:	801a      	strh	r2, [r3, #0]
20008e58:	2310      	movs	r3, #16
20008e5a:	18fb      	adds	r3, r7, r3
20008e5c:	193a      	adds	r2, r7, r4
20008e5e:	8812      	ldrh	r2, [r2, #0]
20008e60:	801a      	strh	r2, [r3, #0]
20008e62:	210e      	movs	r1, #14
20008e64:	187b      	adds	r3, r7, r1
20008e66:	183a      	adds	r2, r7, r0
20008e68:	8812      	ldrh	r2, [r2, #0]
20008e6a:	801a      	strh	r2, [r3, #0]
20008e6c:	200c      	movs	r0, #12
20008e6e:	183b      	adds	r3, r7, r0
20008e70:	197a      	adds	r2, r7, r5
20008e72:	8812      	ldrh	r2, [r2, #0]
20008e74:	801a      	strh	r2, [r3, #0]
20008e76:	187a      	adds	r2, r7, r1
20008e78:	183b      	adds	r3, r7, r0
20008e7a:	8812      	ldrh	r2, [r2, #0]
20008e7c:	881b      	ldrh	r3, [r3, #0]
20008e7e:	429a      	cmp	r2, r3
20008e80:	d306      	bcc.n	20008e90 <tu_fifo_remaining+0x62>
20008e82:	187a      	adds	r2, r7, r1
20008e84:	183b      	adds	r3, r7, r0
20008e86:	8812      	ldrh	r2, [r2, #0]
20008e88:	881b      	ldrh	r3, [r3, #0]
20008e8a:	1ad3      	subs	r3, r2, r3
20008e8c:	b29b      	uxth	r3, r3
20008e8e:	e00e      	b.n	20008eae <tu_fifo_remaining+0x80>
20008e90:	2310      	movs	r3, #16
20008e92:	18fb      	adds	r3, r7, r3
20008e94:	881b      	ldrh	r3, [r3, #0]
20008e96:	18db      	adds	r3, r3, r3
20008e98:	b29a      	uxth	r2, r3
20008e9a:	230e      	movs	r3, #14
20008e9c:	18f9      	adds	r1, r7, r3
20008e9e:	230c      	movs	r3, #12
20008ea0:	18fb      	adds	r3, r7, r3
20008ea2:	8809      	ldrh	r1, [r1, #0]
20008ea4:	881b      	ldrh	r3, [r3, #0]
20008ea6:	1acb      	subs	r3, r1, r3
20008ea8:	b29b      	uxth	r3, r3
20008eaa:	18d3      	adds	r3, r2, r3
20008eac:	b29b      	uxth	r3, r3
20008eae:	210a      	movs	r1, #10
20008eb0:	187a      	adds	r2, r7, r1
20008eb2:	8013      	strh	r3, [r2, #0]
20008eb4:	2016      	movs	r0, #22
20008eb6:	183a      	adds	r2, r7, r0
20008eb8:	187b      	adds	r3, r7, r1
20008eba:	8812      	ldrh	r2, [r2, #0]
20008ebc:	881b      	ldrh	r3, [r3, #0]
20008ebe:	429a      	cmp	r2, r3
20008ec0:	d906      	bls.n	20008ed0 <tu_fifo_remaining+0xa2>
20008ec2:	183a      	adds	r2, r7, r0
20008ec4:	187b      	adds	r3, r7, r1
20008ec6:	8812      	ldrh	r2, [r2, #0]
20008ec8:	881b      	ldrh	r3, [r3, #0]
20008eca:	1ad3      	subs	r3, r2, r3
20008ecc:	b29b      	uxth	r3, r3
20008ece:	e000      	b.n	20008ed2 <tu_fifo_remaining+0xa4>
20008ed0:	2300      	movs	r3, #0
20008ed2:	0018      	movs	r0, r3
20008ed4:	46bd      	mov	sp, r7
20008ed6:	b006      	add	sp, #24
20008ed8:	bdb0      	pop	{r4, r5, r7, pc}

20008eda <tu_fifo_read>:
20008eda:	b5b0      	push	{r4, r5, r7, lr}
20008edc:	b088      	sub	sp, #32
20008ede:	af00      	add	r7, sp, #0
20008ee0:	6078      	str	r0, [r7, #4]
20008ee2:	6039      	str	r1, [r7, #0]
20008ee4:	687b      	ldr	r3, [r7, #4]
20008ee6:	691b      	ldr	r3, [r3, #16]
20008ee8:	613b      	str	r3, [r7, #16]
20008eea:	693b      	ldr	r3, [r7, #16]
20008eec:	2b00      	cmp	r3, #0
20008eee:	d00a      	beq.n	20008f06 <tu_fifo_read+0x2c>
20008ef0:	693b      	ldr	r3, [r7, #16]
20008ef2:	60fb      	str	r3, [r7, #12]
20008ef4:	2301      	movs	r3, #1
20008ef6:	425b      	negs	r3, r3
20008ef8:	60bb      	str	r3, [r7, #8]
20008efa:	68ba      	ldr	r2, [r7, #8]
20008efc:	68fb      	ldr	r3, [r7, #12]
20008efe:	0011      	movs	r1, r2
20008f00:	0018      	movs	r0, r3
20008f02:	f000 fe69 	bl	20009bd8 <mutex_enter_timeout_ms>
20008f06:	46c0      	nop			@ (mov r8, r8)
20008f08:	687b      	ldr	r3, [r7, #4]
20008f0a:	891b      	ldrh	r3, [r3, #8]
20008f0c:	b29a      	uxth	r2, r3
20008f0e:	687b      	ldr	r3, [r7, #4]
20008f10:	895b      	ldrh	r3, [r3, #10]
20008f12:	b29b      	uxth	r3, r3
20008f14:	251f      	movs	r5, #31
20008f16:	197c      	adds	r4, r7, r5
20008f18:	6839      	ldr	r1, [r7, #0]
20008f1a:	6878      	ldr	r0, [r7, #4]
20008f1c:	f7ff fbe2 	bl	200086e4 <_tu_fifo_peek>
20008f20:	0003      	movs	r3, r0
20008f22:	7023      	strb	r3, [r4, #0]
20008f24:	687b      	ldr	r3, [r7, #4]
20008f26:	8898      	ldrh	r0, [r3, #4]
20008f28:	687b      	ldr	r3, [r7, #4]
20008f2a:	895b      	ldrh	r3, [r3, #10]
20008f2c:	b299      	uxth	r1, r3
20008f2e:	197b      	adds	r3, r7, r5
20008f30:	781b      	ldrb	r3, [r3, #0]
20008f32:	b29b      	uxth	r3, r3
20008f34:	001a      	movs	r2, r3
20008f36:	f7ff fb9a 	bl	2000866e <advance_index>
20008f3a:	0003      	movs	r3, r0
20008f3c:	001a      	movs	r2, r3
20008f3e:	687b      	ldr	r3, [r7, #4]
20008f40:	815a      	strh	r2, [r3, #10]
20008f42:	687b      	ldr	r3, [r7, #4]
20008f44:	691b      	ldr	r3, [r3, #16]
20008f46:	61bb      	str	r3, [r7, #24]
20008f48:	69bb      	ldr	r3, [r7, #24]
20008f4a:	2b00      	cmp	r3, #0
20008f4c:	d005      	beq.n	20008f5a <tu_fifo_read+0x80>
20008f4e:	69bb      	ldr	r3, [r7, #24]
20008f50:	617b      	str	r3, [r7, #20]
20008f52:	697b      	ldr	r3, [r7, #20]
20008f54:	0018      	movs	r0, r3
20008f56:	f000 febe 	bl	20009cd6 <mutex_exit>
20008f5a:	46c0      	nop			@ (mov r8, r8)
20008f5c:	231f      	movs	r3, #31
20008f5e:	18fb      	adds	r3, r7, r3
20008f60:	781b      	ldrb	r3, [r3, #0]
20008f62:	0018      	movs	r0, r3
20008f64:	46bd      	mov	sp, r7
20008f66:	b008      	add	sp, #32
20008f68:	bdb0      	pop	{r4, r5, r7, pc}

20008f6a <tu_fifo_read_n>:
20008f6a:	b580      	push	{r7, lr}
20008f6c:	b084      	sub	sp, #16
20008f6e:	af00      	add	r7, sp, #0
20008f70:	60f8      	str	r0, [r7, #12]
20008f72:	60b9      	str	r1, [r7, #8]
20008f74:	1dbb      	adds	r3, r7, #6
20008f76:	801a      	strh	r2, [r3, #0]
20008f78:	1dbb      	adds	r3, r7, #6
20008f7a:	881a      	ldrh	r2, [r3, #0]
20008f7c:	68b9      	ldr	r1, [r7, #8]
20008f7e:	68f8      	ldr	r0, [r7, #12]
20008f80:	2300      	movs	r3, #0
20008f82:	f7ff fe67 	bl	20008c54 <_tu_fifo_read_n>
20008f86:	0003      	movs	r3, r0
20008f88:	0018      	movs	r0, r3
20008f8a:	46bd      	mov	sp, r7
20008f8c:	b004      	add	sp, #16
20008f8e:	bd80      	pop	{r7, pc}

20008f90 <tu_fifo_write>:
20008f90:	b580      	push	{r7, lr}
20008f92:	b08a      	sub	sp, #40	@ 0x28
20008f94:	af00      	add	r7, sp, #0
20008f96:	6078      	str	r0, [r7, #4]
20008f98:	6039      	str	r1, [r7, #0]
20008f9a:	687b      	ldr	r3, [r7, #4]
20008f9c:	68db      	ldr	r3, [r3, #12]
20008f9e:	61fb      	str	r3, [r7, #28]
20008fa0:	69fb      	ldr	r3, [r7, #28]
20008fa2:	2b00      	cmp	r3, #0
20008fa4:	d00a      	beq.n	20008fbc <tu_fifo_write+0x2c>
20008fa6:	69fb      	ldr	r3, [r7, #28]
20008fa8:	61bb      	str	r3, [r7, #24]
20008faa:	2301      	movs	r3, #1
20008fac:	425b      	negs	r3, r3
20008fae:	617b      	str	r3, [r7, #20]
20008fb0:	697a      	ldr	r2, [r7, #20]
20008fb2:	69bb      	ldr	r3, [r7, #24]
20008fb4:	0011      	movs	r1, r2
20008fb6:	0018      	movs	r0, r3
20008fb8:	f000 fe0e 	bl	20009bd8 <mutex_enter_timeout_ms>
20008fbc:	46c0      	nop			@ (mov r8, r8)
20008fbe:	2324      	movs	r3, #36	@ 0x24
20008fc0:	18fb      	adds	r3, r7, r3
20008fc2:	687a      	ldr	r2, [r7, #4]
20008fc4:	8912      	ldrh	r2, [r2, #8]
20008fc6:	801a      	strh	r2, [r3, #0]
20008fc8:	687b      	ldr	r3, [r7, #4]
20008fca:	0018      	movs	r0, r3
20008fcc:	f7ff fef1 	bl	20008db2 <tu_fifo_full>
20008fd0:	1e03      	subs	r3, r0, #0
20008fd2:	d00e      	beq.n	20008ff2 <tu_fifo_write+0x62>
20008fd4:	687b      	ldr	r3, [r7, #4]
20008fd6:	79db      	ldrb	r3, [r3, #7]
20008fd8:	061b      	lsls	r3, r3, #24
20008fda:	0fdb      	lsrs	r3, r3, #31
20008fdc:	b2db      	uxtb	r3, r3
20008fde:	2201      	movs	r2, #1
20008fe0:	4053      	eors	r3, r2
20008fe2:	b2db      	uxtb	r3, r3
20008fe4:	2b00      	cmp	r3, #0
20008fe6:	d004      	beq.n	20008ff2 <tu_fifo_write+0x62>
20008fe8:	2327      	movs	r3, #39	@ 0x27
20008fea:	18fb      	adds	r3, r7, r3
20008fec:	2200      	movs	r2, #0
20008fee:	701a      	strb	r2, [r3, #0]
20008ff0:	e039      	b.n	20009066 <tu_fifo_write+0xd6>
20008ff2:	687b      	ldr	r3, [r7, #4]
20008ff4:	889a      	ldrh	r2, [r3, #4]
20008ff6:	2312      	movs	r3, #18
20008ff8:	18fb      	adds	r3, r7, r3
20008ffa:	801a      	strh	r2, [r3, #0]
20008ffc:	2310      	movs	r3, #16
20008ffe:	18fb      	adds	r3, r7, r3
20009000:	2224      	movs	r2, #36	@ 0x24
20009002:	18ba      	adds	r2, r7, r2
20009004:	8812      	ldrh	r2, [r2, #0]
20009006:	801a      	strh	r2, [r3, #0]
20009008:	e008      	b.n	2000901c <tu_fifo_write+0x8c>
2000900a:	2210      	movs	r2, #16
2000900c:	18bb      	adds	r3, r7, r2
2000900e:	18b9      	adds	r1, r7, r2
20009010:	2212      	movs	r2, #18
20009012:	18ba      	adds	r2, r7, r2
20009014:	8809      	ldrh	r1, [r1, #0]
20009016:	8812      	ldrh	r2, [r2, #0]
20009018:	1a8a      	subs	r2, r1, r2
2000901a:	801a      	strh	r2, [r3, #0]
2000901c:	2312      	movs	r3, #18
2000901e:	18fa      	adds	r2, r7, r3
20009020:	2110      	movs	r1, #16
20009022:	187b      	adds	r3, r7, r1
20009024:	8812      	ldrh	r2, [r2, #0]
20009026:	881b      	ldrh	r3, [r3, #0]
20009028:	429a      	cmp	r2, r3
2000902a:	d9ee      	bls.n	2000900a <tu_fifo_write+0x7a>
2000902c:	187b      	adds	r3, r7, r1
2000902e:	881a      	ldrh	r2, [r3, #0]
20009030:	2122      	movs	r1, #34	@ 0x22
20009032:	187b      	adds	r3, r7, r1
20009034:	801a      	strh	r2, [r3, #0]
20009036:	187b      	adds	r3, r7, r1
20009038:	881a      	ldrh	r2, [r3, #0]
2000903a:	6839      	ldr	r1, [r7, #0]
2000903c:	687b      	ldr	r3, [r7, #4]
2000903e:	0018      	movs	r0, r3
20009040:	f7ff f8a9 	bl	20008196 <_ff_push>
20009044:	687b      	ldr	r3, [r7, #4]
20009046:	8898      	ldrh	r0, [r3, #4]
20009048:	2324      	movs	r3, #36	@ 0x24
2000904a:	18fb      	adds	r3, r7, r3
2000904c:	881b      	ldrh	r3, [r3, #0]
2000904e:	2201      	movs	r2, #1
20009050:	0019      	movs	r1, r3
20009052:	f7ff fb0c 	bl	2000866e <advance_index>
20009056:	0003      	movs	r3, r0
20009058:	001a      	movs	r2, r3
2000905a:	687b      	ldr	r3, [r7, #4]
2000905c:	811a      	strh	r2, [r3, #8]
2000905e:	2327      	movs	r3, #39	@ 0x27
20009060:	18fb      	adds	r3, r7, r3
20009062:	2201      	movs	r2, #1
20009064:	701a      	strb	r2, [r3, #0]
20009066:	687b      	ldr	r3, [r7, #4]
20009068:	68db      	ldr	r3, [r3, #12]
2000906a:	60fb      	str	r3, [r7, #12]
2000906c:	68fb      	ldr	r3, [r7, #12]
2000906e:	2b00      	cmp	r3, #0
20009070:	d005      	beq.n	2000907e <tu_fifo_write+0xee>
20009072:	68fb      	ldr	r3, [r7, #12]
20009074:	60bb      	str	r3, [r7, #8]
20009076:	68bb      	ldr	r3, [r7, #8]
20009078:	0018      	movs	r0, r3
2000907a:	f000 fe2c 	bl	20009cd6 <mutex_exit>
2000907e:	46c0      	nop			@ (mov r8, r8)
20009080:	2327      	movs	r3, #39	@ 0x27
20009082:	18fb      	adds	r3, r7, r3
20009084:	781b      	ldrb	r3, [r3, #0]
20009086:	0018      	movs	r0, r3
20009088:	46bd      	mov	sp, r7
2000908a:	b00a      	add	sp, #40	@ 0x28
2000908c:	bd80      	pop	{r7, pc}

2000908e <tu_fifo_write_n>:
2000908e:	b580      	push	{r7, lr}
20009090:	b084      	sub	sp, #16
20009092:	af00      	add	r7, sp, #0
20009094:	60f8      	str	r0, [r7, #12]
20009096:	60b9      	str	r1, [r7, #8]
20009098:	1dbb      	adds	r3, r7, #6
2000909a:	801a      	strh	r2, [r3, #0]
2000909c:	1dbb      	adds	r3, r7, #6
2000909e:	881a      	ldrh	r2, [r3, #0]
200090a0:	68b9      	ldr	r1, [r7, #8]
200090a2:	68f8      	ldr	r0, [r7, #12]
200090a4:	2300      	movs	r3, #0
200090a6:	f7ff fc72 	bl	2000898e <_tu_fifo_write_n>
200090aa:	0003      	movs	r3, r0
200090ac:	0018      	movs	r0, r3
200090ae:	46bd      	mov	sp, r7
200090b0:	b004      	add	sp, #16
200090b2:	bd80      	pop	{r7, pc}

200090b4 <tu_fifo_clear>:
200090b4:	b580      	push	{r7, lr}
200090b6:	b08c      	sub	sp, #48	@ 0x30
200090b8:	af00      	add	r7, sp, #0
200090ba:	6078      	str	r0, [r7, #4]
200090bc:	687b      	ldr	r3, [r7, #4]
200090be:	68db      	ldr	r3, [r3, #12]
200090c0:	613b      	str	r3, [r7, #16]
200090c2:	693b      	ldr	r3, [r7, #16]
200090c4:	2b00      	cmp	r3, #0
200090c6:	d00a      	beq.n	200090de <tu_fifo_clear+0x2a>
200090c8:	693b      	ldr	r3, [r7, #16]
200090ca:	60fb      	str	r3, [r7, #12]
200090cc:	2301      	movs	r3, #1
200090ce:	425b      	negs	r3, r3
200090d0:	60bb      	str	r3, [r7, #8]
200090d2:	68ba      	ldr	r2, [r7, #8]
200090d4:	68fb      	ldr	r3, [r7, #12]
200090d6:	0011      	movs	r1, r2
200090d8:	0018      	movs	r0, r3
200090da:	f000 fd7d 	bl	20009bd8 <mutex_enter_timeout_ms>
200090de:	46c0      	nop			@ (mov r8, r8)
200090e0:	687b      	ldr	r3, [r7, #4]
200090e2:	691b      	ldr	r3, [r3, #16]
200090e4:	61fb      	str	r3, [r7, #28]
200090e6:	69fb      	ldr	r3, [r7, #28]
200090e8:	2b00      	cmp	r3, #0
200090ea:	d00a      	beq.n	20009102 <tu_fifo_clear+0x4e>
200090ec:	69fb      	ldr	r3, [r7, #28]
200090ee:	61bb      	str	r3, [r7, #24]
200090f0:	2301      	movs	r3, #1
200090f2:	425b      	negs	r3, r3
200090f4:	617b      	str	r3, [r7, #20]
200090f6:	697a      	ldr	r2, [r7, #20]
200090f8:	69bb      	ldr	r3, [r7, #24]
200090fa:	0011      	movs	r1, r2
200090fc:	0018      	movs	r0, r3
200090fe:	f000 fd6b 	bl	20009bd8 <mutex_enter_timeout_ms>
20009102:	46c0      	nop			@ (mov r8, r8)
20009104:	687b      	ldr	r3, [r7, #4]
20009106:	2200      	movs	r2, #0
20009108:	815a      	strh	r2, [r3, #10]
2000910a:	687b      	ldr	r3, [r7, #4]
2000910c:	2200      	movs	r2, #0
2000910e:	811a      	strh	r2, [r3, #8]
20009110:	687b      	ldr	r3, [r7, #4]
20009112:	68db      	ldr	r3, [r3, #12]
20009114:	627b      	str	r3, [r7, #36]	@ 0x24
20009116:	6a7b      	ldr	r3, [r7, #36]	@ 0x24
20009118:	2b00      	cmp	r3, #0
2000911a:	d005      	beq.n	20009128 <tu_fifo_clear+0x74>
2000911c:	6a7b      	ldr	r3, [r7, #36]	@ 0x24
2000911e:	623b      	str	r3, [r7, #32]
20009120:	6a3b      	ldr	r3, [r7, #32]
20009122:	0018      	movs	r0, r3
20009124:	f000 fdd7 	bl	20009cd6 <mutex_exit>
20009128:	46c0      	nop			@ (mov r8, r8)
2000912a:	687b      	ldr	r3, [r7, #4]
2000912c:	691b      	ldr	r3, [r3, #16]
2000912e:	62fb      	str	r3, [r7, #44]	@ 0x2c
20009130:	6afb      	ldr	r3, [r7, #44]	@ 0x2c
20009132:	2b00      	cmp	r3, #0
20009134:	d005      	beq.n	20009142 <tu_fifo_clear+0x8e>
20009136:	6afb      	ldr	r3, [r7, #44]	@ 0x2c
20009138:	62bb      	str	r3, [r7, #40]	@ 0x28
2000913a:	6abb      	ldr	r3, [r7, #40]	@ 0x28
2000913c:	0018      	movs	r0, r3
2000913e:	f000 fdca 	bl	20009cd6 <mutex_exit>
20009142:	46c0      	nop			@ (mov r8, r8)
20009144:	2301      	movs	r3, #1
20009146:	0018      	movs	r0, r3
20009148:	46bd      	mov	sp, r7
2000914a:	b00c      	add	sp, #48	@ 0x30
2000914c:	bd80      	pop	{r7, pc}

2000914e <tu_fifo_set_overwritable>:
2000914e:	b580      	push	{r7, lr}
20009150:	b08c      	sub	sp, #48	@ 0x30
20009152:	af00      	add	r7, sp, #0
20009154:	6078      	str	r0, [r7, #4]
20009156:	000a      	movs	r2, r1
20009158:	1cfb      	adds	r3, r7, #3
2000915a:	701a      	strb	r2, [r3, #0]
2000915c:	687b      	ldr	r3, [r7, #4]
2000915e:	68db      	ldr	r3, [r3, #12]
20009160:	613b      	str	r3, [r7, #16]
20009162:	693b      	ldr	r3, [r7, #16]
20009164:	2b00      	cmp	r3, #0
20009166:	d00a      	beq.n	2000917e <tu_fifo_set_overwritable+0x30>
20009168:	693b      	ldr	r3, [r7, #16]
2000916a:	60fb      	str	r3, [r7, #12]
2000916c:	2301      	movs	r3, #1
2000916e:	425b      	negs	r3, r3
20009170:	60bb      	str	r3, [r7, #8]
20009172:	68ba      	ldr	r2, [r7, #8]
20009174:	68fb      	ldr	r3, [r7, #12]
20009176:	0011      	movs	r1, r2
20009178:	0018      	movs	r0, r3
2000917a:	f000 fd2d 	bl	20009bd8 <mutex_enter_timeout_ms>
2000917e:	46c0      	nop			@ (mov r8, r8)
20009180:	687b      	ldr	r3, [r7, #4]
20009182:	691b      	ldr	r3, [r3, #16]
20009184:	61fb      	str	r3, [r7, #28]
20009186:	69fb      	ldr	r3, [r7, #28]
20009188:	2b00      	cmp	r3, #0
2000918a:	d00a      	beq.n	200091a2 <tu_fifo_set_overwritable+0x54>
2000918c:	69fb      	ldr	r3, [r7, #28]
2000918e:	61bb      	str	r3, [r7, #24]
20009190:	2301      	movs	r3, #1
20009192:	425b      	negs	r3, r3
20009194:	617b      	str	r3, [r7, #20]
20009196:	697a      	ldr	r2, [r7, #20]
20009198:	69bb      	ldr	r3, [r7, #24]
2000919a:	0011      	movs	r1, r2
2000919c:	0018      	movs	r0, r3
2000919e:	f000 fd1b 	bl	20009bd8 <mutex_enter_timeout_ms>
200091a2:	46c0      	nop			@ (mov r8, r8)
200091a4:	687b      	ldr	r3, [r7, #4]
200091a6:	1cfa      	adds	r2, r7, #3
200091a8:	7812      	ldrb	r2, [r2, #0]
200091aa:	01d0      	lsls	r0, r2, #7
200091ac:	79da      	ldrb	r2, [r3, #7]
200091ae:	217f      	movs	r1, #127	@ 0x7f
200091b0:	400a      	ands	r2, r1
200091b2:	1c11      	adds	r1, r2, #0
200091b4:	1c02      	adds	r2, r0, #0
200091b6:	430a      	orrs	r2, r1
200091b8:	71da      	strb	r2, [r3, #7]
200091ba:	687b      	ldr	r3, [r7, #4]
200091bc:	68db      	ldr	r3, [r3, #12]
200091be:	627b      	str	r3, [r7, #36]	@ 0x24
200091c0:	6a7b      	ldr	r3, [r7, #36]	@ 0x24
200091c2:	2b00      	cmp	r3, #0
200091c4:	d005      	beq.n	200091d2 <tu_fifo_set_overwritable+0x84>
200091c6:	6a7b      	ldr	r3, [r7, #36]	@ 0x24
200091c8:	623b      	str	r3, [r7, #32]
200091ca:	6a3b      	ldr	r3, [r7, #32]
200091cc:	0018      	movs	r0, r3
200091ce:	f000 fd82 	bl	20009cd6 <mutex_exit>
200091d2:	46c0      	nop			@ (mov r8, r8)
200091d4:	687b      	ldr	r3, [r7, #4]
200091d6:	691b      	ldr	r3, [r3, #16]
200091d8:	62fb      	str	r3, [r7, #44]	@ 0x2c
200091da:	6afb      	ldr	r3, [r7, #44]	@ 0x2c
200091dc:	2b00      	cmp	r3, #0
200091de:	d005      	beq.n	200091ec <tu_fifo_set_overwritable+0x9e>
200091e0:	6afb      	ldr	r3, [r7, #44]	@ 0x2c
200091e2:	62bb      	str	r3, [r7, #40]	@ 0x28
200091e4:	6abb      	ldr	r3, [r7, #40]	@ 0x28
200091e6:	0018      	movs	r0, r3
200091e8:	f000 fd75 	bl	20009cd6 <mutex_exit>
200091ec:	46c0      	nop			@ (mov r8, r8)
200091ee:	2301      	movs	r3, #1
200091f0:	0018      	movs	r0, r3
200091f2:	46bd      	mov	sp, r7
200091f4:	b00c      	add	sp, #48	@ 0x30
200091f6:	bd80      	pop	{r7, pc}

200091f8 <_pio_major_instr_bits>:
200091f8:	b580      	push	{r7, lr}
200091fa:	b082      	sub	sp, #8
200091fc:	af00      	add	r7, sp, #0
200091fe:	6078      	str	r0, [r7, #4]
20009200:	687a      	ldr	r2, [r7, #4]
20009202:	23e0      	movs	r3, #224	@ 0xe0
20009204:	021b      	lsls	r3, r3, #8
20009206:	4013      	ands	r3, r2
20009208:	0018      	movs	r0, r3
2000920a:	46bd      	mov	sp, r7
2000920c:	b002      	add	sp, #8
2000920e:	bd80      	pop	{r7, pc}

20009210 <_pio_encode_instr_and_args>:
20009210:	b580      	push	{r7, lr}
20009212:	b084      	sub	sp, #16
20009214:	af00      	add	r7, sp, #0
20009216:	60b9      	str	r1, [r7, #8]
20009218:	607a      	str	r2, [r7, #4]
2000921a:	210e      	movs	r1, #14
2000921c:	187b      	adds	r3, r7, r1
2000921e:	1c02      	adds	r2, r0, #0
20009220:	801a      	strh	r2, [r3, #0]
20009222:	187b      	adds	r3, r7, r1
20009224:	881a      	ldrh	r2, [r3, #0]
20009226:	68bb      	ldr	r3, [r7, #8]
20009228:	015b      	lsls	r3, r3, #5
2000922a:	431a      	orrs	r2, r3
2000922c:	687b      	ldr	r3, [r7, #4]
2000922e:	211f      	movs	r1, #31
20009230:	400b      	ands	r3, r1
20009232:	4313      	orrs	r3, r2
20009234:	0018      	movs	r0, r3
20009236:	46bd      	mov	sp, r7
20009238:	b004      	add	sp, #16
2000923a:	bd80      	pop	{r7, pc}

2000923c <_pio_encode_instr_and_src_dest>:
2000923c:	b580      	push	{r7, lr}
2000923e:	b082      	sub	sp, #8
20009240:	af00      	add	r7, sp, #0
20009242:	603a      	str	r2, [r7, #0]
20009244:	1dbb      	adds	r3, r7, #6
20009246:	1c02      	adds	r2, r0, #0
20009248:	801a      	strh	r2, [r3, #0]
2000924a:	1d7b      	adds	r3, r7, #5
2000924c:	1c0a      	adds	r2, r1, #0
2000924e:	701a      	strb	r2, [r3, #0]
20009250:	1d7b      	adds	r3, r7, #5
20009252:	781b      	ldrb	r3, [r3, #0]
20009254:	2207      	movs	r2, #7
20009256:	4013      	ands	r3, r2
20009258:	0019      	movs	r1, r3
2000925a:	683a      	ldr	r2, [r7, #0]
2000925c:	1dbb      	adds	r3, r7, #6
2000925e:	881b      	ldrh	r3, [r3, #0]
20009260:	0018      	movs	r0, r3
20009262:	f7ff ffd5 	bl	20009210 <_pio_encode_instr_and_args>
20009266:	0003      	movs	r3, r0
20009268:	0018      	movs	r0, r3
2000926a:	46bd      	mov	sp, r7
2000926c:	b002      	add	sp, #8
2000926e:	bd80      	pop	{r7, pc}

20009270 <pio_encode_jmp>:
20009270:	b580      	push	{r7, lr}
20009272:	b082      	sub	sp, #8
20009274:	af00      	add	r7, sp, #0
20009276:	6078      	str	r0, [r7, #4]
20009278:	687b      	ldr	r3, [r7, #4]
2000927a:	001a      	movs	r2, r3
2000927c:	2100      	movs	r1, #0
2000927e:	2000      	movs	r0, #0
20009280:	f7ff ffc6 	bl	20009210 <_pio_encode_instr_and_args>
20009284:	0003      	movs	r3, r0
20009286:	0018      	movs	r0, r3
20009288:	46bd      	mov	sp, r7
2000928a:	b002      	add	sp, #8
2000928c:	bd80      	pop	{r7, pc}

2000928e <pio_encode_set>:
2000928e:	b580      	push	{r7, lr}
20009290:	b082      	sub	sp, #8
20009292:	af00      	add	r7, sp, #0
20009294:	0002      	movs	r2, r0
20009296:	6039      	str	r1, [r7, #0]
20009298:	1dfb      	adds	r3, r7, #7
2000929a:	701a      	strb	r2, [r3, #0]
2000929c:	683a      	ldr	r2, [r7, #0]
2000929e:	1dfb      	adds	r3, r7, #7
200092a0:	7819      	ldrb	r1, [r3, #0]
200092a2:	23e0      	movs	r3, #224	@ 0xe0
200092a4:	021b      	lsls	r3, r3, #8
200092a6:	0018      	movs	r0, r3
200092a8:	f7ff ffc8 	bl	2000923c <_pio_encode_instr_and_src_dest>
200092ac:	0003      	movs	r3, r0
200092ae:	0018      	movs	r0, r3
200092b0:	46bd      	mov	sp, r7
200092b2:	b002      	add	sp, #8
200092b4:	bd80      	pop	{r7, pc}

200092b6 <check_sm_param>:
200092b6:	b580      	push	{r7, lr}
200092b8:	b082      	sub	sp, #8
200092ba:	af00      	add	r7, sp, #0
200092bc:	6078      	str	r0, [r7, #4]
200092be:	46c0      	nop			@ (mov r8, r8)
200092c0:	46bd      	mov	sp, r7
200092c2:	b002      	add	sp, #8
200092c4:	bd80      	pop	{r7, pc}

200092c6 <check_pio_param>:
200092c6:	b580      	push	{r7, lr}
200092c8:	b082      	sub	sp, #8
200092ca:	af00      	add	r7, sp, #0
200092cc:	6078      	str	r0, [r7, #4]
200092ce:	46c0      	nop			@ (mov r8, r8)
200092d0:	46bd      	mov	sp, r7
200092d2:	b002      	add	sp, #8
200092d4:	bd80      	pop	{r7, pc}

200092d6 <sm_config_set_clkdiv_int_frac>:
200092d6:	b580      	push	{r7, lr}
200092d8:	b082      	sub	sp, #8
200092da:	af00      	add	r7, sp, #0
200092dc:	6078      	str	r0, [r7, #4]
200092de:	0008      	movs	r0, r1
200092e0:	0011      	movs	r1, r2
200092e2:	1cbb      	adds	r3, r7, #2
200092e4:	1c02      	adds	r2, r0, #0
200092e6:	801a      	strh	r2, [r3, #0]
200092e8:	1c7b      	adds	r3, r7, #1
200092ea:	1c0a      	adds	r2, r1, #0
200092ec:	701a      	strb	r2, [r3, #0]
200092ee:	1c7b      	adds	r3, r7, #1
200092f0:	781b      	ldrb	r3, [r3, #0]
200092f2:	021a      	lsls	r2, r3, #8
200092f4:	1cbb      	adds	r3, r7, #2
200092f6:	881b      	ldrh	r3, [r3, #0]
200092f8:	041b      	lsls	r3, r3, #16
200092fa:	431a      	orrs	r2, r3
200092fc:	687b      	ldr	r3, [r7, #4]
200092fe:	601a      	str	r2, [r3, #0]
20009300:	46c0      	nop			@ (mov r8, r8)
20009302:	46bd      	mov	sp, r7
20009304:	b002      	add	sp, #8
20009306:	bd80      	pop	{r7, pc}

20009308 <sm_config_set_wrap>:
20009308:	b580      	push	{r7, lr}
2000930a:	b084      	sub	sp, #16
2000930c:	af00      	add	r7, sp, #0
2000930e:	60f8      	str	r0, [r7, #12]
20009310:	60b9      	str	r1, [r7, #8]
20009312:	607a      	str	r2, [r7, #4]
20009314:	68fb      	ldr	r3, [r7, #12]
20009316:	685b      	ldr	r3, [r3, #4]
20009318:	4a06      	ldr	r2, [pc, #24]	@ (20009334 <sm_config_set_wrap+0x2c>)
2000931a:	401a      	ands	r2, r3
2000931c:	68bb      	ldr	r3, [r7, #8]
2000931e:	01db      	lsls	r3, r3, #7
20009320:	431a      	orrs	r2, r3
20009322:	687b      	ldr	r3, [r7, #4]
20009324:	031b      	lsls	r3, r3, #12
20009326:	431a      	orrs	r2, r3
20009328:	68fb      	ldr	r3, [r7, #12]
2000932a:	605a      	str	r2, [r3, #4]
2000932c:	46c0      	nop			@ (mov r8, r8)
2000932e:	46bd      	mov	sp, r7
20009330:	b004      	add	sp, #16
20009332:	bd80      	pop	{r7, pc}
20009334:	fffe007f 	.word	0xfffe007f

20009338 <sm_config_set_in_shift>:
20009338:	b590      	push	{r4, r7, lr}
2000933a:	b085      	sub	sp, #20
2000933c:	af00      	add	r7, sp, #0
2000933e:	60f8      	str	r0, [r7, #12]
20009340:	0008      	movs	r0, r1
20009342:	0011      	movs	r1, r2
20009344:	607b      	str	r3, [r7, #4]
20009346:	240b      	movs	r4, #11
20009348:	193b      	adds	r3, r7, r4
2000934a:	1c02      	adds	r2, r0, #0
2000934c:	701a      	strb	r2, [r3, #0]
2000934e:	230a      	movs	r3, #10
20009350:	18fb      	adds	r3, r7, r3
20009352:	1c0a      	adds	r2, r1, #0
20009354:	701a      	strb	r2, [r3, #0]
20009356:	68fb      	ldr	r3, [r7, #12]
20009358:	689b      	ldr	r3, [r3, #8]
2000935a:	4a10      	ldr	r2, [pc, #64]	@ (2000939c <sm_config_set_in_shift+0x64>)
2000935c:	401a      	ands	r2, r3
2000935e:	193b      	adds	r3, r7, r4
20009360:	781b      	ldrb	r3, [r3, #0]
20009362:	2b00      	cmp	r3, #0
20009364:	d002      	beq.n	2000936c <sm_config_set_in_shift+0x34>
20009366:	2380      	movs	r3, #128	@ 0x80
20009368:	02db      	lsls	r3, r3, #11
2000936a:	e000      	b.n	2000936e <sm_config_set_in_shift+0x36>
2000936c:	2300      	movs	r3, #0
2000936e:	431a      	orrs	r2, r3
20009370:	230a      	movs	r3, #10
20009372:	18fb      	adds	r3, r7, r3
20009374:	781b      	ldrb	r3, [r3, #0]
20009376:	2b00      	cmp	r3, #0
20009378:	d002      	beq.n	20009380 <sm_config_set_in_shift+0x48>
2000937a:	2380      	movs	r3, #128	@ 0x80
2000937c:	025b      	lsls	r3, r3, #9
2000937e:	e000      	b.n	20009382 <sm_config_set_in_shift+0x4a>
20009380:	2300      	movs	r3, #0
20009382:	431a      	orrs	r2, r3
20009384:	687b      	ldr	r3, [r7, #4]
20009386:	0519      	lsls	r1, r3, #20
20009388:	23f8      	movs	r3, #248	@ 0xf8
2000938a:	045b      	lsls	r3, r3, #17
2000938c:	400b      	ands	r3, r1
2000938e:	431a      	orrs	r2, r3
20009390:	68fb      	ldr	r3, [r7, #12]
20009392:	609a      	str	r2, [r3, #8]
20009394:	46c0      	nop			@ (mov r8, r8)
20009396:	46bd      	mov	sp, r7
20009398:	b005      	add	sp, #20
2000939a:	bd90      	pop	{r4, r7, pc}
2000939c:	fe0affff 	.word	0xfe0affff

200093a0 <sm_config_set_out_shift>:
200093a0:	b590      	push	{r4, r7, lr}
200093a2:	b085      	sub	sp, #20
200093a4:	af00      	add	r7, sp, #0
200093a6:	60f8      	str	r0, [r7, #12]
200093a8:	0008      	movs	r0, r1
200093aa:	0011      	movs	r1, r2
200093ac:	607b      	str	r3, [r7, #4]
200093ae:	240b      	movs	r4, #11
200093b0:	193b      	adds	r3, r7, r4
200093b2:	1c02      	adds	r2, r0, #0
200093b4:	701a      	strb	r2, [r3, #0]
200093b6:	230a      	movs	r3, #10
200093b8:	18fb      	adds	r3, r7, r3
200093ba:	1c0a      	adds	r2, r1, #0
200093bc:	701a      	strb	r2, [r3, #0]
200093be:	68fb      	ldr	r3, [r7, #12]
200093c0:	689b      	ldr	r3, [r3, #8]
200093c2:	4a10      	ldr	r2, [pc, #64]	@ (20009404 <sm_config_set_out_shift+0x64>)
200093c4:	401a      	ands	r2, r3
200093c6:	193b      	adds	r3, r7, r4
200093c8:	781b      	ldrb	r3, [r3, #0]
200093ca:	2b00      	cmp	r3, #0
200093cc:	d002      	beq.n	200093d4 <sm_config_set_out_shift+0x34>
200093ce:	2380      	movs	r3, #128	@ 0x80
200093d0:	031b      	lsls	r3, r3, #12
200093d2:	e000      	b.n	200093d6 <sm_config_set_out_shift+0x36>
200093d4:	2300      	movs	r3, #0
200093d6:	431a      	orrs	r2, r3
200093d8:	230a      	movs	r3, #10
200093da:	18fb      	adds	r3, r7, r3
200093dc:	781b      	ldrb	r3, [r3, #0]
200093de:	2b00      	cmp	r3, #0
200093e0:	d002      	beq.n	200093e8 <sm_config_set_out_shift+0x48>
200093e2:	2380      	movs	r3, #128	@ 0x80
200093e4:	029b      	lsls	r3, r3, #10
200093e6:	e000      	b.n	200093ea <sm_config_set_out_shift+0x4a>
200093e8:	2300      	movs	r3, #0
200093ea:	431a      	orrs	r2, r3
200093ec:	687b      	ldr	r3, [r7, #4]
200093ee:	0659      	lsls	r1, r3, #25
200093f0:	23f8      	movs	r3, #248	@ 0xf8
200093f2:	059b      	lsls	r3, r3, #22
200093f4:	400b      	ands	r3, r1
200093f6:	431a      	orrs	r2, r3
200093f8:	68fb      	ldr	r3, [r7, #12]
200093fa:	609a      	str	r2, [r3, #8]
200093fc:	46c0      	nop			@ (mov r8, r8)
200093fe:	46bd      	mov	sp, r7
20009400:	b005      	add	sp, #20
20009402:	bd90      	pop	{r4, r7, pc}
20009404:	c1f5ffff 	.word	0xc1f5ffff

20009408 <pio_get_default_sm_config>:
20009408:	b590      	push	{r4, r7, lr}
2000940a:	b087      	sub	sp, #28
2000940c:	af00      	add	r7, sp, #0
2000940e:	6078      	str	r0, [r7, #4]
20009410:	2408      	movs	r4, #8
20009412:	193b      	adds	r3, r7, r4
20009414:	0018      	movs	r0, r3
20009416:	2310      	movs	r3, #16
20009418:	001a      	movs	r2, r3
2000941a:	2100      	movs	r1, #0
2000941c:	f7fa ff24 	bl	20004268 <__wrap_memset>
20009420:	193b      	adds	r3, r7, r4
20009422:	2200      	movs	r2, #0
20009424:	2101      	movs	r1, #1
20009426:	0018      	movs	r0, r3
20009428:	f7ff ff55 	bl	200092d6 <sm_config_set_clkdiv_int_frac>
2000942c:	193b      	adds	r3, r7, r4
2000942e:	221f      	movs	r2, #31
20009430:	2100      	movs	r1, #0
20009432:	0018      	movs	r0, r3
20009434:	f7ff ff68 	bl	20009308 <sm_config_set_wrap>
20009438:	1938      	adds	r0, r7, r4
2000943a:	2320      	movs	r3, #32
2000943c:	2200      	movs	r2, #0
2000943e:	2101      	movs	r1, #1
20009440:	f7ff ff7a 	bl	20009338 <sm_config_set_in_shift>
20009444:	1938      	adds	r0, r7, r4
20009446:	2320      	movs	r3, #32
20009448:	2200      	movs	r2, #0
2000944a:	2101      	movs	r1, #1
2000944c:	f7ff ffa8 	bl	200093a0 <sm_config_set_out_shift>
20009450:	687b      	ldr	r3, [r7, #4]
20009452:	193a      	adds	r2, r7, r4
20009454:	ca13      	ldmia	r2!, {r0, r1, r4}
20009456:	c313      	stmia	r3!, {r0, r1, r4}
20009458:	6812      	ldr	r2, [r2, #0]
2000945a:	601a      	str	r2, [r3, #0]
2000945c:	6878      	ldr	r0, [r7, #4]
2000945e:	46bd      	mov	sp, r7
20009460:	b007      	add	sp, #28
20009462:	bd90      	pop	{r4, r7, pc}

20009464 <pio_sm_set_config>:
20009464:	b590      	push	{r4, r7, lr}
20009466:	b085      	sub	sp, #20
20009468:	af00      	add	r7, sp, #0
2000946a:	60f8      	str	r0, [r7, #12]
2000946c:	60b9      	str	r1, [r7, #8]
2000946e:	607a      	str	r2, [r7, #4]
20009470:	68fb      	ldr	r3, [r7, #12]
20009472:	0018      	movs	r0, r3
20009474:	f7ff ff27 	bl	200092c6 <check_pio_param>
20009478:	68bb      	ldr	r3, [r7, #8]
2000947a:	0018      	movs	r0, r3
2000947c:	f7ff ff1b 	bl	200092b6 <check_sm_param>
20009480:	687b      	ldr	r3, [r7, #4]
20009482:	6819      	ldr	r1, [r3, #0]
20009484:	68f8      	ldr	r0, [r7, #12]
20009486:	68ba      	ldr	r2, [r7, #8]
20009488:	24c8      	movs	r4, #200	@ 0xc8
2000948a:	0013      	movs	r3, r2
2000948c:	005b      	lsls	r3, r3, #1
2000948e:	189b      	adds	r3, r3, r2
20009490:	00db      	lsls	r3, r3, #3
20009492:	18c3      	adds	r3, r0, r3
20009494:	191b      	adds	r3, r3, r4
20009496:	6019      	str	r1, [r3, #0]
20009498:	687b      	ldr	r3, [r7, #4]
2000949a:	6859      	ldr	r1, [r3, #4]
2000949c:	68f8      	ldr	r0, [r7, #12]
2000949e:	68ba      	ldr	r2, [r7, #8]
200094a0:	24cc      	movs	r4, #204	@ 0xcc
200094a2:	0013      	movs	r3, r2
200094a4:	005b      	lsls	r3, r3, #1
200094a6:	189b      	adds	r3, r3, r2
200094a8:	00db      	lsls	r3, r3, #3
200094aa:	18c3      	adds	r3, r0, r3
200094ac:	191b      	adds	r3, r3, r4
200094ae:	6019      	str	r1, [r3, #0]
200094b0:	687b      	ldr	r3, [r7, #4]
200094b2:	6899      	ldr	r1, [r3, #8]
200094b4:	68f8      	ldr	r0, [r7, #12]
200094b6:	68ba      	ldr	r2, [r7, #8]
200094b8:	24d0      	movs	r4, #208	@ 0xd0
200094ba:	0013      	movs	r3, r2
200094bc:	005b      	lsls	r3, r3, #1
200094be:	189b      	adds	r3, r3, r2
200094c0:	00db      	lsls	r3, r3, #3
200094c2:	18c3      	adds	r3, r0, r3
200094c4:	191b      	adds	r3, r3, r4
200094c6:	6019      	str	r1, [r3, #0]
200094c8:	687b      	ldr	r3, [r7, #4]
200094ca:	68d9      	ldr	r1, [r3, #12]
200094cc:	68f8      	ldr	r0, [r7, #12]
200094ce:	68ba      	ldr	r2, [r7, #8]
200094d0:	24dc      	movs	r4, #220	@ 0xdc
200094d2:	0013      	movs	r3, r2
200094d4:	005b      	lsls	r3, r3, #1
200094d6:	189b      	adds	r3, r3, r2
200094d8:	00db      	lsls	r3, r3, #3
200094da:	18c3      	adds	r3, r0, r3
200094dc:	191b      	adds	r3, r3, r4
200094de:	6019      	str	r1, [r3, #0]
200094e0:	46c0      	nop			@ (mov r8, r8)
200094e2:	46bd      	mov	sp, r7
200094e4:	b005      	add	sp, #20
200094e6:	bd90      	pop	{r4, r7, pc}

200094e8 <pio_get_index>:
200094e8:	b580      	push	{r7, lr}
200094ea:	b082      	sub	sp, #8
200094ec:	af00      	add	r7, sp, #0
200094ee:	6078      	str	r0, [r7, #4]
200094f0:	687b      	ldr	r3, [r7, #4]
200094f2:	0018      	movs	r0, r3
200094f4:	f7ff fee7 	bl	200092c6 <check_pio_param>
200094f8:	687b      	ldr	r3, [r7, #4]
200094fa:	4a05      	ldr	r2, [pc, #20]	@ (20009510 <pio_get_index+0x28>)
200094fc:	4694      	mov	ip, r2
200094fe:	4463      	add	r3, ip
20009500:	425a      	negs	r2, r3
20009502:	4153      	adcs	r3, r2
20009504:	b2db      	uxtb	r3, r3
20009506:	0018      	movs	r0, r3
20009508:	46bd      	mov	sp, r7
2000950a:	b002      	add	sp, #8
2000950c:	bd80      	pop	{r7, pc}
2000950e:	46c0      	nop			@ (mov r8, r8)
20009510:	afd00000 	.word	0xafd00000

20009514 <pio_sm_set_enabled>:
20009514:	b580      	push	{r7, lr}
20009516:	b084      	sub	sp, #16
20009518:	af00      	add	r7, sp, #0
2000951a:	60f8      	str	r0, [r7, #12]
2000951c:	60b9      	str	r1, [r7, #8]
2000951e:	1dfb      	adds	r3, r7, #7
20009520:	701a      	strb	r2, [r3, #0]
20009522:	68fb      	ldr	r3, [r7, #12]
20009524:	0018      	movs	r0, r3
20009526:	f7ff fece 	bl	200092c6 <check_pio_param>
2000952a:	68bb      	ldr	r3, [r7, #8]
2000952c:	0018      	movs	r0, r3
2000952e:	f7ff fec2 	bl	200092b6 <check_sm_param>
20009532:	68fb      	ldr	r3, [r7, #12]
20009534:	681b      	ldr	r3, [r3, #0]
20009536:	2101      	movs	r1, #1
20009538:	68ba      	ldr	r2, [r7, #8]
2000953a:	4091      	lsls	r1, r2
2000953c:	000a      	movs	r2, r1
2000953e:	43d2      	mvns	r2, r2
20009540:	401a      	ands	r2, r3
20009542:	1dfb      	adds	r3, r7, #7
20009544:	781b      	ldrb	r3, [r3, #0]
20009546:	0019      	movs	r1, r3
20009548:	68bb      	ldr	r3, [r7, #8]
2000954a:	4099      	lsls	r1, r3
2000954c:	000b      	movs	r3, r1
2000954e:	431a      	orrs	r2, r3
20009550:	68fb      	ldr	r3, [r7, #12]
20009552:	601a      	str	r2, [r3, #0]
20009554:	46c0      	nop			@ (mov r8, r8)
20009556:	46bd      	mov	sp, r7
20009558:	b004      	add	sp, #16
2000955a:	bd80      	pop	{r7, pc}

2000955c <pio_sm_restart>:
2000955c:	b580      	push	{r7, lr}
2000955e:	b084      	sub	sp, #16
20009560:	af00      	add	r7, sp, #0
20009562:	6078      	str	r0, [r7, #4]
20009564:	6039      	str	r1, [r7, #0]
20009566:	687b      	ldr	r3, [r7, #4]
20009568:	0018      	movs	r0, r3
2000956a:	f7ff feac 	bl	200092c6 <check_pio_param>
2000956e:	683b      	ldr	r3, [r7, #0]
20009570:	0018      	movs	r0, r3
20009572:	f7ff fea0 	bl	200092b6 <check_sm_param>
20009576:	687a      	ldr	r2, [r7, #4]
20009578:	683b      	ldr	r3, [r7, #0]
2000957a:	3304      	adds	r3, #4
2000957c:	2101      	movs	r1, #1
2000957e:	4099      	lsls	r1, r3
20009580:	000b      	movs	r3, r1
20009582:	60fa      	str	r2, [r7, #12]
20009584:	60bb      	str	r3, [r7, #8]
20009586:	68fb      	ldr	r3, [r7, #12]
20009588:	2280      	movs	r2, #128	@ 0x80
2000958a:	0192      	lsls	r2, r2, #6
2000958c:	4313      	orrs	r3, r2
2000958e:	68ba      	ldr	r2, [r7, #8]
20009590:	601a      	str	r2, [r3, #0]
20009592:	46c0      	nop			@ (mov r8, r8)
20009594:	46c0      	nop			@ (mov r8, r8)
20009596:	46bd      	mov	sp, r7
20009598:	b004      	add	sp, #16
2000959a:	bd80      	pop	{r7, pc}

2000959c <pio_sm_clkdiv_restart>:
2000959c:	b580      	push	{r7, lr}
2000959e:	b084      	sub	sp, #16
200095a0:	af00      	add	r7, sp, #0
200095a2:	6078      	str	r0, [r7, #4]
200095a4:	6039      	str	r1, [r7, #0]
200095a6:	687b      	ldr	r3, [r7, #4]
200095a8:	0018      	movs	r0, r3
200095aa:	f7ff fe8c 	bl	200092c6 <check_pio_param>
200095ae:	683b      	ldr	r3, [r7, #0]
200095b0:	0018      	movs	r0, r3
200095b2:	f7ff fe80 	bl	200092b6 <check_sm_param>
200095b6:	687a      	ldr	r2, [r7, #4]
200095b8:	683b      	ldr	r3, [r7, #0]
200095ba:	3308      	adds	r3, #8
200095bc:	2101      	movs	r1, #1
200095be:	4099      	lsls	r1, r3
200095c0:	000b      	movs	r3, r1
200095c2:	60fa      	str	r2, [r7, #12]
200095c4:	60bb      	str	r3, [r7, #8]
200095c6:	68fb      	ldr	r3, [r7, #12]
200095c8:	2280      	movs	r2, #128	@ 0x80
200095ca:	0192      	lsls	r2, r2, #6
200095cc:	4313      	orrs	r3, r2
200095ce:	68ba      	ldr	r2, [r7, #8]
200095d0:	601a      	str	r2, [r3, #0]
200095d2:	46c0      	nop			@ (mov r8, r8)
200095d4:	46c0      	nop			@ (mov r8, r8)
200095d6:	46bd      	mov	sp, r7
200095d8:	b004      	add	sp, #16
200095da:	bd80      	pop	{r7, pc}

200095dc <pio_sm_exec>:
200095dc:	b580      	push	{r7, lr}
200095de:	b084      	sub	sp, #16
200095e0:	af00      	add	r7, sp, #0
200095e2:	60f8      	str	r0, [r7, #12]
200095e4:	60b9      	str	r1, [r7, #8]
200095e6:	607a      	str	r2, [r7, #4]
200095e8:	68fb      	ldr	r3, [r7, #12]
200095ea:	0018      	movs	r0, r3
200095ec:	f7ff fe6b 	bl	200092c6 <check_pio_param>
200095f0:	68bb      	ldr	r3, [r7, #8]
200095f2:	0018      	movs	r0, r3
200095f4:	f7ff fe5f 	bl	200092b6 <check_sm_param>
200095f8:	68f9      	ldr	r1, [r7, #12]
200095fa:	68ba      	ldr	r2, [r7, #8]
200095fc:	20d8      	movs	r0, #216	@ 0xd8
200095fe:	0013      	movs	r3, r2
20009600:	005b      	lsls	r3, r3, #1
20009602:	189b      	adds	r3, r3, r2
20009604:	00db      	lsls	r3, r3, #3
20009606:	18cb      	adds	r3, r1, r3
20009608:	181b      	adds	r3, r3, r0
2000960a:	687a      	ldr	r2, [r7, #4]
2000960c:	601a      	str	r2, [r3, #0]
2000960e:	46c0      	nop			@ (mov r8, r8)
20009610:	46bd      	mov	sp, r7
20009612:	b004      	add	sp, #16
20009614:	bd80      	pop	{r7, pc}

20009616 <pio_sm_clear_fifos>:
20009616:	b580      	push	{r7, lr}
20009618:	b086      	sub	sp, #24
2000961a:	af00      	add	r7, sp, #0
2000961c:	6078      	str	r0, [r7, #4]
2000961e:	6039      	str	r1, [r7, #0]
20009620:	687b      	ldr	r3, [r7, #4]
20009622:	0018      	movs	r0, r3
20009624:	f7ff fe4f 	bl	200092c6 <check_pio_param>
20009628:	683b      	ldr	r3, [r7, #0]
2000962a:	0018      	movs	r0, r3
2000962c:	f7ff fe43 	bl	200092b6 <check_sm_param>
20009630:	683a      	ldr	r2, [r7, #0]
20009632:	0013      	movs	r3, r2
20009634:	005b      	lsls	r3, r3, #1
20009636:	189b      	adds	r3, r3, r2
20009638:	00db      	lsls	r3, r3, #3
2000963a:	33d0      	adds	r3, #208	@ 0xd0
2000963c:	687a      	ldr	r2, [r7, #4]
2000963e:	18d3      	adds	r3, r2, r3
20009640:	60fb      	str	r3, [r7, #12]
20009642:	2380      	movs	r3, #128	@ 0x80
20009644:	061b      	lsls	r3, r3, #24
20009646:	60bb      	str	r3, [r7, #8]
20009648:	68fb      	ldr	r3, [r7, #12]
2000964a:	2280      	movs	r2, #128	@ 0x80
2000964c:	0152      	lsls	r2, r2, #5
2000964e:	4313      	orrs	r3, r2
20009650:	68ba      	ldr	r2, [r7, #8]
20009652:	601a      	str	r2, [r3, #0]
20009654:	46c0      	nop			@ (mov r8, r8)
20009656:	683a      	ldr	r2, [r7, #0]
20009658:	0013      	movs	r3, r2
2000965a:	005b      	lsls	r3, r3, #1
2000965c:	189b      	adds	r3, r3, r2
2000965e:	00db      	lsls	r3, r3, #3
20009660:	33d0      	adds	r3, #208	@ 0xd0
20009662:	687a      	ldr	r2, [r7, #4]
20009664:	18d3      	adds	r3, r2, r3
20009666:	617b      	str	r3, [r7, #20]
20009668:	2380      	movs	r3, #128	@ 0x80
2000966a:	061b      	lsls	r3, r3, #24
2000966c:	613b      	str	r3, [r7, #16]
2000966e:	697b      	ldr	r3, [r7, #20]
20009670:	2280      	movs	r2, #128	@ 0x80
20009672:	0152      	lsls	r2, r2, #5
20009674:	4313      	orrs	r3, r2
20009676:	693a      	ldr	r2, [r7, #16]
20009678:	601a      	str	r2, [r3, #0]
2000967a:	46c0      	nop			@ (mov r8, r8)
2000967c:	46c0      	nop			@ (mov r8, r8)
2000967e:	46bd      	mov	sp, r7
20009680:	b006      	add	sp, #24
20009682:	bd80      	pop	{r7, pc}

20009684 <_pio_find_offset_for_program>:
20009684:	b580      	push	{r7, lr}
20009686:	b086      	sub	sp, #24
20009688:	af00      	add	r7, sp, #0
2000968a:	6078      	str	r0, [r7, #4]
2000968c:	6039      	str	r1, [r7, #0]
2000968e:	687b      	ldr	r3, [r7, #4]
20009690:	0018      	movs	r0, r3
20009692:	f7ff ff29 	bl	200094e8 <pio_get_index>
20009696:	0002      	movs	r2, r0
20009698:	4b24      	ldr	r3, [pc, #144]	@ (2000972c <_pio_find_offset_for_program+0xa8>)
2000969a:	0092      	lsls	r2, r2, #2
2000969c:	58d3      	ldr	r3, [r2, r3]
2000969e:	613b      	str	r3, [r7, #16]
200096a0:	683b      	ldr	r3, [r7, #0]
200096a2:	791b      	ldrb	r3, [r3, #4]
200096a4:	001a      	movs	r2, r3
200096a6:	2301      	movs	r3, #1
200096a8:	4093      	lsls	r3, r2
200096aa:	3b01      	subs	r3, #1
200096ac:	60fb      	str	r3, [r7, #12]
200096ae:	683b      	ldr	r3, [r7, #0]
200096b0:	795b      	ldrb	r3, [r3, #5]
200096b2:	b25b      	sxtb	r3, r3
200096b4:	2b00      	cmp	r3, #0
200096b6:	db1d      	blt.n	200096f4 <_pio_find_offset_for_program+0x70>
200096b8:	683b      	ldr	r3, [r7, #0]
200096ba:	795b      	ldrb	r3, [r3, #5]
200096bc:	b25b      	sxtb	r3, r3
200096be:	001a      	movs	r2, r3
200096c0:	683b      	ldr	r3, [r7, #0]
200096c2:	791b      	ldrb	r3, [r3, #4]
200096c4:	0019      	movs	r1, r3
200096c6:	2320      	movs	r3, #32
200096c8:	1a5b      	subs	r3, r3, r1
200096ca:	429a      	cmp	r2, r3
200096cc:	dd02      	ble.n	200096d4 <_pio_find_offset_for_program+0x50>
200096ce:	2301      	movs	r3, #1
200096d0:	425b      	negs	r3, r3
200096d2:	e027      	b.n	20009724 <_pio_find_offset_for_program+0xa0>
200096d4:	683b      	ldr	r3, [r7, #0]
200096d6:	795b      	ldrb	r3, [r3, #5]
200096d8:	b25b      	sxtb	r3, r3
200096da:	001a      	movs	r2, r3
200096dc:	68fb      	ldr	r3, [r7, #12]
200096de:	4093      	lsls	r3, r2
200096e0:	693a      	ldr	r2, [r7, #16]
200096e2:	4013      	ands	r3, r2
200096e4:	d103      	bne.n	200096ee <_pio_find_offset_for_program+0x6a>
200096e6:	683b      	ldr	r3, [r7, #0]
200096e8:	795b      	ldrb	r3, [r3, #5]
200096ea:	b25b      	sxtb	r3, r3
200096ec:	e01a      	b.n	20009724 <_pio_find_offset_for_program+0xa0>
200096ee:	2301      	movs	r3, #1
200096f0:	425b      	negs	r3, r3
200096f2:	e017      	b.n	20009724 <_pio_find_offset_for_program+0xa0>
200096f4:	683b      	ldr	r3, [r7, #0]
200096f6:	791b      	ldrb	r3, [r3, #4]
200096f8:	001a      	movs	r2, r3
200096fa:	2320      	movs	r3, #32
200096fc:	1a9b      	subs	r3, r3, r2
200096fe:	617b      	str	r3, [r7, #20]
20009700:	e00b      	b.n	2000971a <_pio_find_offset_for_program+0x96>
20009702:	697b      	ldr	r3, [r7, #20]
20009704:	68fa      	ldr	r2, [r7, #12]
20009706:	409a      	lsls	r2, r3
20009708:	0013      	movs	r3, r2
2000970a:	693a      	ldr	r2, [r7, #16]
2000970c:	4013      	ands	r3, r2
2000970e:	d101      	bne.n	20009714 <_pio_find_offset_for_program+0x90>
20009710:	697b      	ldr	r3, [r7, #20]
20009712:	e007      	b.n	20009724 <_pio_find_offset_for_program+0xa0>
20009714:	697b      	ldr	r3, [r7, #20]
20009716:	3b01      	subs	r3, #1
20009718:	617b      	str	r3, [r7, #20]
2000971a:	697b      	ldr	r3, [r7, #20]
2000971c:	2b00      	cmp	r3, #0
2000971e:	daf0      	bge.n	20009702 <_pio_find_offset_for_program+0x7e>
20009720:	2301      	movs	r3, #1
20009722:	425b      	negs	r3, r3
20009724:	0018      	movs	r0, r3
20009726:	46bd      	mov	sp, r7
20009728:	b006      	add	sp, #24
2000972a:	bd80      	pop	{r7, pc}
2000972c:	2000b714 	.word	0x2000b714

20009730 <_pio_can_add_program_at_offset>:
20009730:	b580      	push	{r7, lr}
20009732:	b086      	sub	sp, #24
20009734:	af00      	add	r7, sp, #0
20009736:	60f8      	str	r0, [r7, #12]
20009738:	60b9      	str	r1, [r7, #8]
2000973a:	607a      	str	r2, [r7, #4]
2000973c:	68bb      	ldr	r3, [r7, #8]
2000973e:	795b      	ldrb	r3, [r3, #5]
20009740:	b25b      	sxtb	r3, r3
20009742:	2b00      	cmp	r3, #0
20009744:	db08      	blt.n	20009758 <_pio_can_add_program_at_offset+0x28>
20009746:	68bb      	ldr	r3, [r7, #8]
20009748:	795b      	ldrb	r3, [r3, #5]
2000974a:	b25b      	sxtb	r3, r3
2000974c:	001a      	movs	r2, r3
2000974e:	687b      	ldr	r3, [r7, #4]
20009750:	4293      	cmp	r3, r2
20009752:	d001      	beq.n	20009758 <_pio_can_add_program_at_offset+0x28>
20009754:	2300      	movs	r3, #0
20009756:	e018      	b.n	2000978a <_pio_can_add_program_at_offset+0x5a>
20009758:	68fb      	ldr	r3, [r7, #12]
2000975a:	0018      	movs	r0, r3
2000975c:	f7ff fec4 	bl	200094e8 <pio_get_index>
20009760:	0002      	movs	r2, r0
20009762:	4b0c      	ldr	r3, [pc, #48]	@ (20009794 <_pio_can_add_program_at_offset+0x64>)
20009764:	0092      	lsls	r2, r2, #2
20009766:	58d3      	ldr	r3, [r2, r3]
20009768:	617b      	str	r3, [r7, #20]
2000976a:	68bb      	ldr	r3, [r7, #8]
2000976c:	791b      	ldrb	r3, [r3, #4]
2000976e:	001a      	movs	r2, r3
20009770:	2301      	movs	r3, #1
20009772:	4093      	lsls	r3, r2
20009774:	3b01      	subs	r3, #1
20009776:	613b      	str	r3, [r7, #16]
20009778:	693a      	ldr	r2, [r7, #16]
2000977a:	687b      	ldr	r3, [r7, #4]
2000977c:	409a      	lsls	r2, r3
2000977e:	0013      	movs	r3, r2
20009780:	697a      	ldr	r2, [r7, #20]
20009782:	4013      	ands	r3, r2
20009784:	425a      	negs	r2, r3
20009786:	4153      	adcs	r3, r2
20009788:	b2db      	uxtb	r3, r3
2000978a:	0018      	movs	r0, r3
2000978c:	46bd      	mov	sp, r7
2000978e:	b006      	add	sp, #24
20009790:	bd80      	pop	{r7, pc}
20009792:	46c0      	nop			@ (mov r8, r8)
20009794:	2000b714 	.word	0x2000b714

20009798 <_pio_add_program_at_offset>:
20009798:	b590      	push	{r4, r7, lr}
2000979a:	b089      	sub	sp, #36	@ 0x24
2000979c:	af00      	add	r7, sp, #0
2000979e:	60f8      	str	r0, [r7, #12]
200097a0:	60b9      	str	r1, [r7, #8]
200097a2:	607a      	str	r2, [r7, #4]
200097a4:	687a      	ldr	r2, [r7, #4]
200097a6:	68b9      	ldr	r1, [r7, #8]
200097a8:	68fb      	ldr	r3, [r7, #12]
200097aa:	0018      	movs	r0, r3
200097ac:	f7ff ffc0 	bl	20009730 <_pio_can_add_program_at_offset>
200097b0:	0003      	movs	r3, r0
200097b2:	001a      	movs	r2, r3
200097b4:	2301      	movs	r3, #1
200097b6:	4053      	eors	r3, r2
200097b8:	b2db      	uxtb	r3, r3
200097ba:	2b00      	cmp	r3, #0
200097bc:	d003      	beq.n	200097c6 <_pio_add_program_at_offset+0x2e>
200097be:	4b2a      	ldr	r3, [pc, #168]	@ (20009868 <_pio_add_program_at_offset+0xd0>)
200097c0:	0018      	movs	r0, r3
200097c2:	f7fa f911 	bl	200039e8 <panic>
200097c6:	2300      	movs	r3, #0
200097c8:	61fb      	str	r3, [r7, #28]
200097ca:	e02b      	b.n	20009824 <_pio_add_program_at_offset+0x8c>
200097cc:	68bb      	ldr	r3, [r7, #8]
200097ce:	781a      	ldrb	r2, [r3, #0]
200097d0:	7859      	ldrb	r1, [r3, #1]
200097d2:	0209      	lsls	r1, r1, #8
200097d4:	430a      	orrs	r2, r1
200097d6:	7899      	ldrb	r1, [r3, #2]
200097d8:	0409      	lsls	r1, r1, #16
200097da:	430a      	orrs	r2, r1
200097dc:	78db      	ldrb	r3, [r3, #3]
200097de:	061b      	lsls	r3, r3, #24
200097e0:	4313      	orrs	r3, r2
200097e2:	001a      	movs	r2, r3
200097e4:	69fb      	ldr	r3, [r7, #28]
200097e6:	005b      	lsls	r3, r3, #1
200097e8:	18d2      	adds	r2, r2, r3
200097ea:	2416      	movs	r4, #22
200097ec:	193b      	adds	r3, r7, r4
200097ee:	8812      	ldrh	r2, [r2, #0]
200097f0:	801a      	strh	r2, [r3, #0]
200097f2:	193b      	adds	r3, r7, r4
200097f4:	881b      	ldrh	r3, [r3, #0]
200097f6:	0018      	movs	r0, r3
200097f8:	f7ff fcfe 	bl	200091f8 <_pio_major_instr_bits>
200097fc:	1e03      	subs	r3, r0, #0
200097fe:	d002      	beq.n	20009806 <_pio_add_program_at_offset+0x6e>
20009800:	193b      	adds	r3, r7, r4
20009802:	881b      	ldrh	r3, [r3, #0]
20009804:	e004      	b.n	20009810 <_pio_add_program_at_offset+0x78>
20009806:	2316      	movs	r3, #22
20009808:	18fb      	adds	r3, r7, r3
2000980a:	881a      	ldrh	r2, [r3, #0]
2000980c:	687b      	ldr	r3, [r7, #4]
2000980e:	18d3      	adds	r3, r2, r3
20009810:	6879      	ldr	r1, [r7, #4]
20009812:	69fa      	ldr	r2, [r7, #28]
20009814:	1889      	adds	r1, r1, r2
20009816:	68fa      	ldr	r2, [r7, #12]
20009818:	3112      	adds	r1, #18
2000981a:	0089      	lsls	r1, r1, #2
2000981c:	508b      	str	r3, [r1, r2]
2000981e:	69fb      	ldr	r3, [r7, #28]
20009820:	3301      	adds	r3, #1
20009822:	61fb      	str	r3, [r7, #28]
20009824:	68bb      	ldr	r3, [r7, #8]
20009826:	791b      	ldrb	r3, [r3, #4]
20009828:	001a      	movs	r2, r3
2000982a:	69fb      	ldr	r3, [r7, #28]
2000982c:	4293      	cmp	r3, r2
2000982e:	d3cd      	bcc.n	200097cc <_pio_add_program_at_offset+0x34>
20009830:	68bb      	ldr	r3, [r7, #8]
20009832:	791b      	ldrb	r3, [r3, #4]
20009834:	001a      	movs	r2, r3
20009836:	2301      	movs	r3, #1
20009838:	4093      	lsls	r3, r2
2000983a:	3b01      	subs	r3, #1
2000983c:	61bb      	str	r3, [r7, #24]
2000983e:	68fb      	ldr	r3, [r7, #12]
20009840:	0018      	movs	r0, r3
20009842:	f7ff fe51 	bl	200094e8 <pio_get_index>
20009846:	0003      	movs	r3, r0
20009848:	4a08      	ldr	r2, [pc, #32]	@ (2000986c <_pio_add_program_at_offset+0xd4>)
2000984a:	0099      	lsls	r1, r3, #2
2000984c:	5889      	ldr	r1, [r1, r2]
2000984e:	69b8      	ldr	r0, [r7, #24]
20009850:	687a      	ldr	r2, [r7, #4]
20009852:	4090      	lsls	r0, r2
20009854:	0002      	movs	r2, r0
20009856:	4311      	orrs	r1, r2
20009858:	4a04      	ldr	r2, [pc, #16]	@ (2000986c <_pio_add_program_at_offset+0xd4>)
2000985a:	009b      	lsls	r3, r3, #2
2000985c:	5099      	str	r1, [r3, r2]
2000985e:	46c0      	nop			@ (mov r8, r8)
20009860:	46bd      	mov	sp, r7
20009862:	b009      	add	sp, #36	@ 0x24
20009864:	bd90      	pop	{r4, r7, pc}
20009866:	46c0      	nop			@ (mov r8, r8)
20009868:	2000b0b0 	.word	0x2000b0b0
2000986c:	2000b714 	.word	0x2000b714

20009870 <pio_add_program>:
20009870:	b580      	push	{r7, lr}
20009872:	b084      	sub	sp, #16
20009874:	af00      	add	r7, sp, #0
20009876:	6078      	str	r0, [r7, #4]
20009878:	6039      	str	r1, [r7, #0]
2000987a:	f7f8 f99d 	bl	20001bb8 <hw_claim_lock>
2000987e:	0003      	movs	r3, r0
20009880:	60fb      	str	r3, [r7, #12]
20009882:	683a      	ldr	r2, [r7, #0]
20009884:	687b      	ldr	r3, [r7, #4]
20009886:	0011      	movs	r1, r2
20009888:	0018      	movs	r0, r3
2000988a:	f7ff fefb 	bl	20009684 <_pio_find_offset_for_program>
2000988e:	0003      	movs	r3, r0
20009890:	60bb      	str	r3, [r7, #8]
20009892:	68bb      	ldr	r3, [r7, #8]
20009894:	2b00      	cmp	r3, #0
20009896:	da03      	bge.n	200098a0 <pio_add_program+0x30>
20009898:	4b09      	ldr	r3, [pc, #36]	@ (200098c0 <pio_add_program+0x50>)
2000989a:	0018      	movs	r0, r3
2000989c:	f7fa f8a4 	bl	200039e8 <panic>
200098a0:	68ba      	ldr	r2, [r7, #8]
200098a2:	6839      	ldr	r1, [r7, #0]
200098a4:	687b      	ldr	r3, [r7, #4]
200098a6:	0018      	movs	r0, r3
200098a8:	f7ff ff76 	bl	20009798 <_pio_add_program_at_offset>
200098ac:	68fb      	ldr	r3, [r7, #12]
200098ae:	0018      	movs	r0, r3
200098b0:	f7f8 f9aa 	bl	20001c08 <hw_claim_unlock>
200098b4:	68bb      	ldr	r3, [r7, #8]
200098b6:	0018      	movs	r0, r3
200098b8:	46bd      	mov	sp, r7
200098ba:	b004      	add	sp, #16
200098bc:	bd80      	pop	{r7, pc}
200098be:	46c0      	nop			@ (mov r8, r8)
200098c0:	2000b0b0 	.word	0x2000b0b0

200098c4 <pio_sm_set_pindirs_with_mask>:
200098c4:	b590      	push	{r4, r7, lr}
200098c6:	b08b      	sub	sp, #44	@ 0x2c
200098c8:	af00      	add	r7, sp, #0
200098ca:	60f8      	str	r0, [r7, #12]
200098cc:	60b9      	str	r1, [r7, #8]
200098ce:	607a      	str	r2, [r7, #4]
200098d0:	603b      	str	r3, [r7, #0]
200098d2:	68fb      	ldr	r3, [r7, #12]
200098d4:	0018      	movs	r0, r3
200098d6:	f7ff fcf6 	bl	200092c6 <check_pio_param>
200098da:	68bb      	ldr	r3, [r7, #8]
200098dc:	0018      	movs	r0, r3
200098de:	f7ff fcea 	bl	200092b6 <check_sm_param>
200098e2:	68f9      	ldr	r1, [r7, #12]
200098e4:	68ba      	ldr	r2, [r7, #8]
200098e6:	20dc      	movs	r0, #220	@ 0xdc
200098e8:	0013      	movs	r3, r2
200098ea:	005b      	lsls	r3, r3, #1
200098ec:	189b      	adds	r3, r3, r2
200098ee:	00db      	lsls	r3, r3, #3
200098f0:	18cb      	adds	r3, r1, r3
200098f2:	181b      	adds	r3, r3, r0
200098f4:	681b      	ldr	r3, [r3, #0]
200098f6:	627b      	str	r3, [r7, #36]	@ 0x24
200098f8:	68f9      	ldr	r1, [r7, #12]
200098fa:	68ba      	ldr	r2, [r7, #8]
200098fc:	20cc      	movs	r0, #204	@ 0xcc
200098fe:	0013      	movs	r3, r2
20009900:	005b      	lsls	r3, r3, #1
20009902:	189b      	adds	r3, r3, r2
20009904:	00db      	lsls	r3, r3, #3
20009906:	18cb      	adds	r3, r1, r3
20009908:	181b      	adds	r3, r3, r0
2000990a:	681b      	ldr	r3, [r3, #0]
2000990c:	623b      	str	r3, [r7, #32]
2000990e:	68ba      	ldr	r2, [r7, #8]
20009910:	0013      	movs	r3, r2
20009912:	005b      	lsls	r3, r3, #1
20009914:	189b      	adds	r3, r3, r2
20009916:	00db      	lsls	r3, r3, #3
20009918:	33c8      	adds	r3, #200	@ 0xc8
2000991a:	68fa      	ldr	r2, [r7, #12]
2000991c:	18d3      	adds	r3, r2, r3
2000991e:	3304      	adds	r3, #4
20009920:	61bb      	str	r3, [r7, #24]
20009922:	2380      	movs	r3, #128	@ 0x80
20009924:	029b      	lsls	r3, r3, #10
20009926:	617b      	str	r3, [r7, #20]
20009928:	69bb      	ldr	r3, [r7, #24]
2000992a:	22c0      	movs	r2, #192	@ 0xc0
2000992c:	0192      	lsls	r2, r2, #6
2000992e:	4313      	orrs	r3, r2
20009930:	697a      	ldr	r2, [r7, #20]
20009932:	601a      	str	r2, [r3, #0]
20009934:	46c0      	nop			@ (mov r8, r8)
20009936:	e029      	b.n	2000998c <pio_sm_set_pindirs_with_mask+0xc8>
20009938:	6838      	ldr	r0, [r7, #0]
2000993a:	f7fa f8d1 	bl	20003ae0 <__wrap___ctzsi2>
2000993e:	0003      	movs	r3, r0
20009940:	61fb      	str	r3, [r7, #28]
20009942:	69fb      	ldr	r3, [r7, #28]
20009944:	015b      	lsls	r3, r3, #5
20009946:	2280      	movs	r2, #128	@ 0x80
20009948:	04d2      	lsls	r2, r2, #19
2000994a:	431a      	orrs	r2, r3
2000994c:	0011      	movs	r1, r2
2000994e:	68f8      	ldr	r0, [r7, #12]
20009950:	68ba      	ldr	r2, [r7, #8]
20009952:	24dc      	movs	r4, #220	@ 0xdc
20009954:	0013      	movs	r3, r2
20009956:	005b      	lsls	r3, r3, #1
20009958:	189b      	adds	r3, r3, r2
2000995a:	00db      	lsls	r3, r3, #3
2000995c:	18c3      	adds	r3, r0, r3
2000995e:	191b      	adds	r3, r3, r4
20009960:	6019      	str	r1, [r3, #0]
20009962:	687a      	ldr	r2, [r7, #4]
20009964:	69fb      	ldr	r3, [r7, #28]
20009966:	40da      	lsrs	r2, r3
20009968:	0013      	movs	r3, r2
2000996a:	2201      	movs	r2, #1
2000996c:	4013      	ands	r3, r2
2000996e:	0019      	movs	r1, r3
20009970:	2004      	movs	r0, #4
20009972:	f7ff fc8c 	bl	2000928e <pio_encode_set>
20009976:	0002      	movs	r2, r0
20009978:	68b9      	ldr	r1, [r7, #8]
2000997a:	68fb      	ldr	r3, [r7, #12]
2000997c:	0018      	movs	r0, r3
2000997e:	f7ff fe2d 	bl	200095dc <pio_sm_exec>
20009982:	683b      	ldr	r3, [r7, #0]
20009984:	1e5a      	subs	r2, r3, #1
20009986:	683b      	ldr	r3, [r7, #0]
20009988:	4013      	ands	r3, r2
2000998a:	603b      	str	r3, [r7, #0]
2000998c:	683b      	ldr	r3, [r7, #0]
2000998e:	2b00      	cmp	r3, #0
20009990:	d1d2      	bne.n	20009938 <pio_sm_set_pindirs_with_mask+0x74>
20009992:	68f9      	ldr	r1, [r7, #12]
20009994:	68ba      	ldr	r2, [r7, #8]
20009996:	20dc      	movs	r0, #220	@ 0xdc
20009998:	0013      	movs	r3, r2
2000999a:	005b      	lsls	r3, r3, #1
2000999c:	189b      	adds	r3, r3, r2
2000999e:	00db      	lsls	r3, r3, #3
200099a0:	18cb      	adds	r3, r1, r3
200099a2:	181b      	adds	r3, r3, r0
200099a4:	6a7a      	ldr	r2, [r7, #36]	@ 0x24
200099a6:	601a      	str	r2, [r3, #0]
200099a8:	68f9      	ldr	r1, [r7, #12]
200099aa:	68ba      	ldr	r2, [r7, #8]
200099ac:	20cc      	movs	r0, #204	@ 0xcc
200099ae:	0013      	movs	r3, r2
200099b0:	005b      	lsls	r3, r3, #1
200099b2:	189b      	adds	r3, r3, r2
200099b4:	00db      	lsls	r3, r3, #3
200099b6:	18cb      	adds	r3, r1, r3
200099b8:	181b      	adds	r3, r3, r0
200099ba:	6a3a      	ldr	r2, [r7, #32]
200099bc:	601a      	str	r2, [r3, #0]
200099be:	46c0      	nop			@ (mov r8, r8)
200099c0:	46bd      	mov	sp, r7
200099c2:	b00b      	add	sp, #44	@ 0x2c
200099c4:	bd90      	pop	{r4, r7, pc}
	...

200099c8 <pio_sm_init>:
200099c8:	b590      	push	{r4, r7, lr}
200099ca:	b08b      	sub	sp, #44	@ 0x2c
200099cc:	af00      	add	r7, sp, #0
200099ce:	60f8      	str	r0, [r7, #12]
200099d0:	60b9      	str	r1, [r7, #8]
200099d2:	607a      	str	r2, [r7, #4]
200099d4:	603b      	str	r3, [r7, #0]
200099d6:	68b9      	ldr	r1, [r7, #8]
200099d8:	68fb      	ldr	r3, [r7, #12]
200099da:	2200      	movs	r2, #0
200099dc:	0018      	movs	r0, r3
200099de:	f7ff fd99 	bl	20009514 <pio_sm_set_enabled>
200099e2:	683b      	ldr	r3, [r7, #0]
200099e4:	2b00      	cmp	r3, #0
200099e6:	d006      	beq.n	200099f6 <pio_sm_init+0x2e>
200099e8:	683a      	ldr	r2, [r7, #0]
200099ea:	68b9      	ldr	r1, [r7, #8]
200099ec:	68fb      	ldr	r3, [r7, #12]
200099ee:	0018      	movs	r0, r3
200099f0:	f7ff fd38 	bl	20009464 <pio_sm_set_config>
200099f4:	e00a      	b.n	20009a0c <pio_sm_init+0x44>
200099f6:	2414      	movs	r4, #20
200099f8:	193b      	adds	r3, r7, r4
200099fa:	0018      	movs	r0, r3
200099fc:	f7ff fd04 	bl	20009408 <pio_get_default_sm_config>
20009a00:	193a      	adds	r2, r7, r4
20009a02:	68b9      	ldr	r1, [r7, #8]
20009a04:	68fb      	ldr	r3, [r7, #12]
20009a06:	0018      	movs	r0, r3
20009a08:	f7ff fd2c 	bl	20009464 <pio_sm_set_config>
20009a0c:	68ba      	ldr	r2, [r7, #8]
20009a0e:	68fb      	ldr	r3, [r7, #12]
20009a10:	0011      	movs	r1, r2
20009a12:	0018      	movs	r0, r3
20009a14:	f7ff fdff 	bl	20009616 <pio_sm_clear_fifos>
20009a18:	4b10      	ldr	r3, [pc, #64]	@ (20009a5c <pio_sm_init+0x94>)
20009a1a:	627b      	str	r3, [r7, #36]	@ 0x24
20009a1c:	6a7a      	ldr	r2, [r7, #36]	@ 0x24
20009a1e:	68bb      	ldr	r3, [r7, #8]
20009a20:	409a      	lsls	r2, r3
20009a22:	68fb      	ldr	r3, [r7, #12]
20009a24:	609a      	str	r2, [r3, #8]
20009a26:	68ba      	ldr	r2, [r7, #8]
20009a28:	68fb      	ldr	r3, [r7, #12]
20009a2a:	0011      	movs	r1, r2
20009a2c:	0018      	movs	r0, r3
20009a2e:	f7ff fd95 	bl	2000955c <pio_sm_restart>
20009a32:	68ba      	ldr	r2, [r7, #8]
20009a34:	68fb      	ldr	r3, [r7, #12]
20009a36:	0011      	movs	r1, r2
20009a38:	0018      	movs	r0, r3
20009a3a:	f7ff fdaf 	bl	2000959c <pio_sm_clkdiv_restart>
20009a3e:	687b      	ldr	r3, [r7, #4]
20009a40:	0018      	movs	r0, r3
20009a42:	f7ff fc15 	bl	20009270 <pio_encode_jmp>
20009a46:	0002      	movs	r2, r0
20009a48:	68b9      	ldr	r1, [r7, #8]
20009a4a:	68fb      	ldr	r3, [r7, #12]
20009a4c:	0018      	movs	r0, r3
20009a4e:	f7ff fdc5 	bl	200095dc <pio_sm_exec>
20009a52:	46c0      	nop			@ (mov r8, r8)
20009a54:	46bd      	mov	sp, r7
20009a56:	b00b      	add	sp, #44	@ 0x2c
20009a58:	bd90      	pop	{r4, r7, pc}
20009a5a:	46c0      	nop			@ (mov r8, r8)
20009a5c:	01010101 	.word	0x01010101

20009a60 <__aeabi_idiv0>:
20009a60:	4770      	bx	lr
20009a62:	46c0      	nop			@ (mov r8, r8)

20009a64 <strlen>:
20009a64:	b510      	push	{r4, lr}
20009a66:	0783      	lsls	r3, r0, #30
20009a68:	d00a      	beq.n	20009a80 <strlen+0x1c>
20009a6a:	0003      	movs	r3, r0
20009a6c:	2103      	movs	r1, #3
20009a6e:	e002      	b.n	20009a76 <strlen+0x12>
20009a70:	3301      	adds	r3, #1
20009a72:	420b      	tst	r3, r1
20009a74:	d005      	beq.n	20009a82 <strlen+0x1e>
20009a76:	781a      	ldrb	r2, [r3, #0]
20009a78:	2a00      	cmp	r2, #0
20009a7a:	d1f9      	bne.n	20009a70 <strlen+0xc>
20009a7c:	1a18      	subs	r0, r3, r0
20009a7e:	bd10      	pop	{r4, pc}
20009a80:	0003      	movs	r3, r0
20009a82:	6819      	ldr	r1, [r3, #0]
20009a84:	4a0c      	ldr	r2, [pc, #48]	@ (20009ab8 <strlen+0x54>)
20009a86:	4c0d      	ldr	r4, [pc, #52]	@ (20009abc <strlen+0x58>)
20009a88:	188a      	adds	r2, r1, r2
20009a8a:	438a      	bics	r2, r1
20009a8c:	4222      	tst	r2, r4
20009a8e:	d10f      	bne.n	20009ab0 <strlen+0x4c>
20009a90:	6859      	ldr	r1, [r3, #4]
20009a92:	4a09      	ldr	r2, [pc, #36]	@ (20009ab8 <strlen+0x54>)
20009a94:	3304      	adds	r3, #4
20009a96:	188a      	adds	r2, r1, r2
20009a98:	438a      	bics	r2, r1
20009a9a:	4222      	tst	r2, r4
20009a9c:	d108      	bne.n	20009ab0 <strlen+0x4c>
20009a9e:	6859      	ldr	r1, [r3, #4]
20009aa0:	4a05      	ldr	r2, [pc, #20]	@ (20009ab8 <strlen+0x54>)
20009aa2:	3304      	adds	r3, #4
20009aa4:	188a      	adds	r2, r1, r2
20009aa6:	438a      	bics	r2, r1
20009aa8:	4222      	tst	r2, r4
20009aaa:	d0f1      	beq.n	20009a90 <strlen+0x2c>
20009aac:	e000      	b.n	20009ab0 <strlen+0x4c>
20009aae:	3301      	adds	r3, #1
20009ab0:	781a      	ldrb	r2, [r3, #0]
20009ab2:	2a00      	cmp	r2, #0
20009ab4:	d1fb      	bne.n	20009aae <strlen+0x4a>
20009ab6:	e7e1      	b.n	20009a7c <strlen+0x18>
20009ab8:	fefefeff 	.word	0xfefefeff
20009abc:	80808080 	.word	0x80808080

20009ac0 <_fini>:
20009ac0:	b5f8      	push	{r3, r4, r5, r6, r7, lr}
20009ac2:	46c0      	nop			@ (mov r8, r8)

Disassembly of section .data:

20009ad0 <mutex_try_enter>:
20009ad0:	b580      	push	{r7, lr}
20009ad2:	b08c      	sub	sp, #48	@ 0x30
20009ad4:	af00      	add	r7, sp, #0
20009ad6:	6078      	str	r0, [r7, #4]
20009ad8:	6039      	str	r1, [r7, #0]
20009ada:	687b      	ldr	r3, [r7, #4]
20009adc:	681b      	ldr	r3, [r3, #0]
20009ade:	627b      	str	r3, [r7, #36]	@ 0x24
20009ae0:	f3ef 8310 	mrs	r3, PRIMASK
20009ae4:	b672      	cpsid	i
20009ae6:	623b      	str	r3, [r7, #32]
20009ae8:	6a3b      	ldr	r3, [r7, #32]
20009aea:	61fb      	str	r3, [r7, #28]
20009aec:	6a7b      	ldr	r3, [r7, #36]	@ 0x24
20009aee:	61bb      	str	r3, [r7, #24]
20009af0:	46c0      	nop			@ (mov r8, r8)
20009af2:	69bb      	ldr	r3, [r7, #24]
20009af4:	681b      	ldr	r3, [r3, #0]
20009af6:	425a      	negs	r2, r3
20009af8:	4153      	adcs	r3, r2
20009afa:	b2db      	uxtb	r3, r3
20009afc:	2b00      	cmp	r3, #0
20009afe:	d1f8      	bne.n	20009af2 <mutex_try_enter+0x22>
20009b00:	f3bf 8f5f 	dmb	sy
20009b04:	46c0      	nop			@ (mov r8, r8)
20009b06:	46c0      	nop			@ (mov r8, r8)
20009b08:	46c0      	nop			@ (mov r8, r8)
20009b0a:	69fb      	ldr	r3, [r7, #28]
20009b0c:	62bb      	str	r3, [r7, #40]	@ 0x28
20009b0e:	687b      	ldr	r3, [r7, #4]
20009b10:	791b      	ldrb	r3, [r3, #4]
20009b12:	b25b      	sxtb	r3, r3
20009b14:	2b00      	cmp	r3, #0
20009b16:	da0a      	bge.n	20009b2e <mutex_try_enter+0x5e>
20009b18:	23d0      	movs	r3, #208	@ 0xd0
20009b1a:	061b      	lsls	r3, r3, #24
20009b1c:	681b      	ldr	r3, [r3, #0]
20009b1e:	b25a      	sxtb	r2, r3
20009b20:	687b      	ldr	r3, [r7, #4]
20009b22:	711a      	strb	r2, [r3, #4]
20009b24:	232f      	movs	r3, #47	@ 0x2f
20009b26:	18fb      	adds	r3, r7, r3
20009b28:	2201      	movs	r2, #1
20009b2a:	701a      	strb	r2, [r3, #0]
20009b2c:	e00c      	b.n	20009b48 <mutex_try_enter+0x78>
20009b2e:	683b      	ldr	r3, [r7, #0]
20009b30:	2b00      	cmp	r3, #0
20009b32:	d005      	beq.n	20009b40 <mutex_try_enter+0x70>
20009b34:	687b      	ldr	r3, [r7, #4]
20009b36:	791b      	ldrb	r3, [r3, #4]
20009b38:	b25b      	sxtb	r3, r3
20009b3a:	001a      	movs	r2, r3
20009b3c:	683b      	ldr	r3, [r7, #0]
20009b3e:	601a      	str	r2, [r3, #0]
20009b40:	232f      	movs	r3, #47	@ 0x2f
20009b42:	18fb      	adds	r3, r7, r3
20009b44:	2200      	movs	r2, #0
20009b46:	701a      	strb	r2, [r3, #0]
20009b48:	687b      	ldr	r3, [r7, #4]
20009b4a:	681b      	ldr	r3, [r3, #0]
20009b4c:	617b      	str	r3, [r7, #20]
20009b4e:	6abb      	ldr	r3, [r7, #40]	@ 0x28
20009b50:	613b      	str	r3, [r7, #16]
20009b52:	697b      	ldr	r3, [r7, #20]
20009b54:	60fb      	str	r3, [r7, #12]
20009b56:	f3bf 8f5f 	dmb	sy
20009b5a:	46c0      	nop			@ (mov r8, r8)
20009b5c:	46c0      	nop			@ (mov r8, r8)
20009b5e:	68fb      	ldr	r3, [r7, #12]
20009b60:	2200      	movs	r2, #0
20009b62:	601a      	str	r2, [r3, #0]
20009b64:	46c0      	nop			@ (mov r8, r8)
20009b66:	693b      	ldr	r3, [r7, #16]
20009b68:	60bb      	str	r3, [r7, #8]
20009b6a:	68bb      	ldr	r3, [r7, #8]
20009b6c:	f383 8810 	msr	PRIMASK, r3
20009b70:	46c0      	nop			@ (mov r8, r8)
20009b72:	46c0      	nop			@ (mov r8, r8)
20009b74:	232f      	movs	r3, #47	@ 0x2f
20009b76:	18fb      	adds	r3, r7, r3
20009b78:	781b      	ldrb	r3, [r3, #0]
20009b7a:	0018      	movs	r0, r3
20009b7c:	46bd      	mov	sp, r7
20009b7e:	b00c      	add	sp, #48	@ 0x30
20009b80:	bd80      	pop	{r7, pc}

20009b82 <mutex_try_enter_block_until>:
20009b82:	b580      	push	{r7, lr}
20009b84:	b086      	sub	sp, #24
20009b86:	af00      	add	r7, sp, #0
20009b88:	60f8      	str	r0, [r7, #12]
20009b8a:	603a      	str	r2, [r7, #0]
20009b8c:	607b      	str	r3, [r7, #4]
20009b8e:	2314      	movs	r3, #20
20009b90:	18fa      	adds	r2, r7, r3
20009b92:	68fb      	ldr	r3, [r7, #12]
20009b94:	0011      	movs	r1, r2
20009b96:	0018      	movs	r0, r3
20009b98:	f7ff ff9a 	bl	20009ad0 <mutex_try_enter>
20009b9c:	0003      	movs	r3, r0
20009b9e:	001a      	movs	r2, r3
20009ba0:	2301      	movs	r3, #1
20009ba2:	4053      	eors	r3, r2
20009ba4:	b2db      	uxtb	r3, r3
20009ba6:	2b00      	cmp	r3, #0
20009ba8:	d011      	beq.n	20009bce <mutex_try_enter_block_until+0x4c>
20009baa:	697b      	ldr	r3, [r7, #20]
20009bac:	b25a      	sxtb	r2, r3
20009bae:	23d0      	movs	r3, #208	@ 0xd0
20009bb0:	061b      	lsls	r3, r3, #24
20009bb2:	681b      	ldr	r3, [r3, #0]
20009bb4:	b25b      	sxtb	r3, r3
20009bb6:	429a      	cmp	r2, r3
20009bb8:	d101      	bne.n	20009bbe <mutex_try_enter_block_until+0x3c>
20009bba:	2300      	movs	r3, #0
20009bbc:	e008      	b.n	20009bd0 <mutex_try_enter_block_until+0x4e>
20009bbe:	683a      	ldr	r2, [r7, #0]
20009bc0:	687b      	ldr	r3, [r7, #4]
20009bc2:	68f9      	ldr	r1, [r7, #12]
20009bc4:	0008      	movs	r0, r1
20009bc6:	f000 f81b 	bl	20009c00 <mutex_enter_block_until>
20009bca:	0003      	movs	r3, r0
20009bcc:	e000      	b.n	20009bd0 <mutex_try_enter_block_until+0x4e>
20009bce:	2301      	movs	r3, #1
20009bd0:	0018      	movs	r0, r3
20009bd2:	46bd      	mov	sp, r7
20009bd4:	b006      	add	sp, #24
20009bd6:	bd80      	pop	{r7, pc}

20009bd8 <mutex_enter_timeout_ms>:
20009bd8:	b580      	push	{r7, lr}
20009bda:	b082      	sub	sp, #8
20009bdc:	af00      	add	r7, sp, #0
20009bde:	6078      	str	r0, [r7, #4]
20009be0:	6039      	str	r1, [r7, #0]
20009be2:	683b      	ldr	r3, [r7, #0]
20009be4:	0018      	movs	r0, r3
20009be6:	f7f6 fdef 	bl	200007c8 <make_timeout_time_ms>
20009bea:	0002      	movs	r2, r0
20009bec:	000b      	movs	r3, r1
20009bee:	6879      	ldr	r1, [r7, #4]
20009bf0:	0008      	movs	r0, r1
20009bf2:	f000 f805 	bl	20009c00 <mutex_enter_block_until>
20009bf6:	0003      	movs	r3, r0
20009bf8:	0018      	movs	r0, r3
20009bfa:	46bd      	mov	sp, r7
20009bfc:	b002      	add	sp, #8
20009bfe:	bd80      	pop	{r7, pc}

20009c00 <mutex_enter_block_until>:
20009c00:	b580      	push	{r7, lr}
20009c02:	b092      	sub	sp, #72	@ 0x48
20009c04:	af00      	add	r7, sp, #0
20009c06:	60f8      	str	r0, [r7, #12]
20009c08:	603a      	str	r2, [r7, #0]
20009c0a:	607b      	str	r3, [r7, #4]
20009c0c:	23d0      	movs	r3, #208	@ 0xd0
20009c0e:	061b      	lsls	r3, r3, #24
20009c10:	681a      	ldr	r2, [r3, #0]
20009c12:	2347      	movs	r3, #71	@ 0x47
20009c14:	18fb      	adds	r3, r7, r3
20009c16:	701a      	strb	r2, [r3, #0]
20009c18:	68fb      	ldr	r3, [r7, #12]
20009c1a:	681b      	ldr	r3, [r3, #0]
20009c1c:	63fb      	str	r3, [r7, #60]	@ 0x3c
20009c1e:	f3ef 8310 	mrs	r3, PRIMASK
20009c22:	b672      	cpsid	i
20009c24:	63bb      	str	r3, [r7, #56]	@ 0x38
20009c26:	6bbb      	ldr	r3, [r7, #56]	@ 0x38
20009c28:	637b      	str	r3, [r7, #52]	@ 0x34
20009c2a:	6bfb      	ldr	r3, [r7, #60]	@ 0x3c
20009c2c:	633b      	str	r3, [r7, #48]	@ 0x30
20009c2e:	46c0      	nop			@ (mov r8, r8)
20009c30:	6b3b      	ldr	r3, [r7, #48]	@ 0x30
20009c32:	681b      	ldr	r3, [r3, #0]
20009c34:	425a      	negs	r2, r3
20009c36:	4153      	adcs	r3, r2
20009c38:	b2db      	uxtb	r3, r3
20009c3a:	2b00      	cmp	r3, #0
20009c3c:	d1f8      	bne.n	20009c30 <mutex_enter_block_until+0x30>
20009c3e:	f3bf 8f5f 	dmb	sy
20009c42:	46c0      	nop			@ (mov r8, r8)
20009c44:	46c0      	nop			@ (mov r8, r8)
20009c46:	46c0      	nop			@ (mov r8, r8)
20009c48:	6b7b      	ldr	r3, [r7, #52]	@ 0x34
20009c4a:	643b      	str	r3, [r7, #64]	@ 0x40
20009c4c:	68fb      	ldr	r3, [r7, #12]
20009c4e:	791b      	ldrb	r3, [r3, #4]
20009c50:	b25b      	sxtb	r3, r3
20009c52:	2b00      	cmp	r3, #0
20009c54:	da1c      	bge.n	20009c90 <mutex_enter_block_until+0x90>
20009c56:	68fb      	ldr	r3, [r7, #12]
20009c58:	2247      	movs	r2, #71	@ 0x47
20009c5a:	18ba      	adds	r2, r7, r2
20009c5c:	7812      	ldrb	r2, [r2, #0]
20009c5e:	711a      	strb	r2, [r3, #4]
20009c60:	68fb      	ldr	r3, [r7, #12]
20009c62:	681b      	ldr	r3, [r3, #0]
20009c64:	62fb      	str	r3, [r7, #44]	@ 0x2c
20009c66:	6c3b      	ldr	r3, [r7, #64]	@ 0x40
20009c68:	62bb      	str	r3, [r7, #40]	@ 0x28
20009c6a:	6afb      	ldr	r3, [r7, #44]	@ 0x2c
20009c6c:	627b      	str	r3, [r7, #36]	@ 0x24
20009c6e:	f3bf 8f5f 	dmb	sy
20009c72:	46c0      	nop			@ (mov r8, r8)
20009c74:	46c0      	nop			@ (mov r8, r8)
20009c76:	6a7b      	ldr	r3, [r7, #36]	@ 0x24
20009c78:	2200      	movs	r2, #0
20009c7a:	601a      	str	r2, [r3, #0]
20009c7c:	46c0      	nop			@ (mov r8, r8)
20009c7e:	6abb      	ldr	r3, [r7, #40]	@ 0x28
20009c80:	623b      	str	r3, [r7, #32]
20009c82:	6a3b      	ldr	r3, [r7, #32]
20009c84:	f383 8810 	msr	PRIMASK, r3
20009c88:	46c0      	nop			@ (mov r8, r8)
20009c8a:	46c0      	nop			@ (mov r8, r8)
20009c8c:	2301      	movs	r3, #1
20009c8e:	e01e      	b.n	20009cce <mutex_enter_block_until+0xce>
20009c90:	68fb      	ldr	r3, [r7, #12]
20009c92:	681b      	ldr	r3, [r3, #0]
20009c94:	61fb      	str	r3, [r7, #28]
20009c96:	6c3b      	ldr	r3, [r7, #64]	@ 0x40
20009c98:	61bb      	str	r3, [r7, #24]
20009c9a:	69fb      	ldr	r3, [r7, #28]
20009c9c:	617b      	str	r3, [r7, #20]
20009c9e:	f3bf 8f5f 	dmb	sy
20009ca2:	46c0      	nop			@ (mov r8, r8)
20009ca4:	46c0      	nop			@ (mov r8, r8)
20009ca6:	697b      	ldr	r3, [r7, #20]
20009ca8:	2200      	movs	r2, #0
20009caa:	601a      	str	r2, [r3, #0]
20009cac:	46c0      	nop			@ (mov r8, r8)
20009cae:	69bb      	ldr	r3, [r7, #24]
20009cb0:	613b      	str	r3, [r7, #16]
20009cb2:	693b      	ldr	r3, [r7, #16]
20009cb4:	f383 8810 	msr	PRIMASK, r3
20009cb8:	46c0      	nop			@ (mov r8, r8)
20009cba:	46c0      	nop			@ (mov r8, r8)
20009cbc:	683a      	ldr	r2, [r7, #0]
20009cbe:	687b      	ldr	r3, [r7, #4]
20009cc0:	0010      	movs	r0, r2
20009cc2:	0019      	movs	r1, r3
20009cc4:	f7f7 fc54 	bl	20001570 <best_effort_wfe_or_timeout>
20009cc8:	1e03      	subs	r3, r0, #0
20009cca:	d0a5      	beq.n	20009c18 <mutex_enter_block_until+0x18>
20009ccc:	2300      	movs	r3, #0
20009cce:	0018      	movs	r0, r3
20009cd0:	46bd      	mov	sp, r7
20009cd2:	b012      	add	sp, #72	@ 0x48
20009cd4:	bd80      	pop	{r7, pc}

20009cd6 <mutex_exit>:
20009cd6:	b580      	push	{r7, lr}
20009cd8:	b08c      	sub	sp, #48	@ 0x30
20009cda:	af00      	add	r7, sp, #0
20009cdc:	6078      	str	r0, [r7, #4]
20009cde:	687b      	ldr	r3, [r7, #4]
20009ce0:	681b      	ldr	r3, [r3, #0]
20009ce2:	61bb      	str	r3, [r7, #24]
20009ce4:	f3ef 8310 	mrs	r3, PRIMASK
20009ce8:	b672      	cpsid	i
20009cea:	617b      	str	r3, [r7, #20]
20009cec:	697b      	ldr	r3, [r7, #20]
20009cee:	613b      	str	r3, [r7, #16]
20009cf0:	69bb      	ldr	r3, [r7, #24]
20009cf2:	60fb      	str	r3, [r7, #12]
20009cf4:	46c0      	nop			@ (mov r8, r8)
20009cf6:	68fb      	ldr	r3, [r7, #12]
20009cf8:	681b      	ldr	r3, [r3, #0]
20009cfa:	425a      	negs	r2, r3
20009cfc:	4153      	adcs	r3, r2
20009cfe:	b2db      	uxtb	r3, r3
20009d00:	2b00      	cmp	r3, #0
20009d02:	d1f8      	bne.n	20009cf6 <mutex_exit+0x20>
20009d04:	f3bf 8f5f 	dmb	sy
20009d08:	46c0      	nop			@ (mov r8, r8)
20009d0a:	46c0      	nop			@ (mov r8, r8)
20009d0c:	46c0      	nop			@ (mov r8, r8)
20009d0e:	693b      	ldr	r3, [r7, #16]
20009d10:	62fb      	str	r3, [r7, #44]	@ 0x2c
20009d12:	687b      	ldr	r3, [r7, #4]
20009d14:	22ff      	movs	r2, #255	@ 0xff
20009d16:	711a      	strb	r2, [r3, #4]
20009d18:	687b      	ldr	r3, [r7, #4]
20009d1a:	681b      	ldr	r3, [r3, #0]
20009d1c:	62bb      	str	r3, [r7, #40]	@ 0x28
20009d1e:	6afb      	ldr	r3, [r7, #44]	@ 0x2c
20009d20:	627b      	str	r3, [r7, #36]	@ 0x24
20009d22:	6abb      	ldr	r3, [r7, #40]	@ 0x28
20009d24:	623b      	str	r3, [r7, #32]
20009d26:	f3bf 8f5f 	dmb	sy
20009d2a:	46c0      	nop			@ (mov r8, r8)
20009d2c:	46c0      	nop			@ (mov r8, r8)
20009d2e:	6a3b      	ldr	r3, [r7, #32]
20009d30:	2200      	movs	r2, #0
20009d32:	601a      	str	r2, [r3, #0]
20009d34:	46c0      	nop			@ (mov r8, r8)
20009d36:	6a7b      	ldr	r3, [r7, #36]	@ 0x24
20009d38:	61fb      	str	r3, [r7, #28]
20009d3a:	69fb      	ldr	r3, [r7, #28]
20009d3c:	f383 8810 	msr	PRIMASK, r3
20009d40:	46c0      	nop			@ (mov r8, r8)
20009d42:	46c0      	nop			@ (mov r8, r8)
20009d44:	bf40      	sev
20009d46:	46c0      	nop			@ (mov r8, r8)
20009d48:	46c0      	nop			@ (mov r8, r8)
20009d4a:	46bd      	mov	sp, r7
20009d4c:	b00c      	add	sp, #48	@ 0x30
20009d4e:	bd80      	pop	{r7, pc}

20009d50 <flash_init_boot2_copyout>:
20009d50:	b580      	push	{r7, lr}
20009d52:	b082      	sub	sp, #8
20009d54:	af00      	add	r7, sp, #0
20009d56:	4b10      	ldr	r3, [pc, #64]	@ (20009d98 <flash_init_boot2_copyout+0x48>)
20009d58:	781b      	ldrb	r3, [r3, #0]
20009d5a:	2b00      	cmp	r3, #0
20009d5c:	d118      	bne.n	20009d90 <flash_init_boot2_copyout+0x40>
20009d5e:	2300      	movs	r3, #0
20009d60:	607b      	str	r3, [r7, #4]
20009d62:	e00d      	b.n	20009d80 <flash_init_boot2_copyout+0x30>
20009d64:	687b      	ldr	r3, [r7, #4]
20009d66:	009b      	lsls	r3, r3, #2
20009d68:	2280      	movs	r2, #128	@ 0x80
20009d6a:	0552      	lsls	r2, r2, #21
20009d6c:	4694      	mov	ip, r2
20009d6e:	4463      	add	r3, ip
20009d70:	6819      	ldr	r1, [r3, #0]
20009d72:	4b0a      	ldr	r3, [pc, #40]	@ (20009d9c <flash_init_boot2_copyout+0x4c>)
20009d74:	687a      	ldr	r2, [r7, #4]
20009d76:	0092      	lsls	r2, r2, #2
20009d78:	50d1      	str	r1, [r2, r3]
20009d7a:	687b      	ldr	r3, [r7, #4]
20009d7c:	3301      	adds	r3, #1
20009d7e:	607b      	str	r3, [r7, #4]
20009d80:	687b      	ldr	r3, [r7, #4]
20009d82:	2b3f      	cmp	r3, #63	@ 0x3f
20009d84:	ddee      	ble.n	20009d64 <flash_init_boot2_copyout+0x14>
20009d86:	46c0      	nop			@ (mov r8, r8)
20009d88:	4b03      	ldr	r3, [pc, #12]	@ (20009d98 <flash_init_boot2_copyout+0x48>)
20009d8a:	2201      	movs	r2, #1
20009d8c:	701a      	strb	r2, [r3, #0]
20009d8e:	e000      	b.n	20009d92 <flash_init_boot2_copyout+0x42>
20009d90:	46c0      	nop			@ (mov r8, r8)
20009d92:	46bd      	mov	sp, r7
20009d94:	b002      	add	sp, #8
20009d96:	bd80      	pop	{r7, pc}
20009d98:	2000bf4b 	.word	0x2000bf4b
20009d9c:	2000b72c 	.word	0x2000b72c

20009da0 <flash_enable_xip_via_boot2>:
20009da0:	b580      	push	{r7, lr}
20009da2:	af00      	add	r7, sp, #0
20009da4:	4b02      	ldr	r3, [pc, #8]	@ (20009db0 <flash_enable_xip_via_boot2+0x10>)
20009da6:	3301      	adds	r3, #1
20009da8:	4798      	blx	r3
20009daa:	46c0      	nop			@ (mov r8, r8)
20009dac:	46bd      	mov	sp, r7
20009dae:	bd80      	pop	{r7, pc}
20009db0:	2000b72c 	.word	0x2000b72c

20009db4 <flash_cs_force>:
20009db4:	b580      	push	{r7, lr}
20009db6:	b088      	sub	sp, #32
20009db8:	af00      	add	r7, sp, #0
20009dba:	0002      	movs	r2, r0
20009dbc:	1dfb      	adds	r3, r7, #7
20009dbe:	701a      	strb	r2, [r3, #0]
20009dc0:	1dfb      	adds	r3, r7, #7
20009dc2:	781b      	ldrb	r3, [r3, #0]
20009dc4:	2b00      	cmp	r3, #0
20009dc6:	d001      	beq.n	20009dcc <flash_cs_force+0x18>
20009dc8:	2303      	movs	r3, #3
20009dca:	e000      	b.n	20009dce <flash_cs_force+0x1a>
20009dcc:	2302      	movs	r3, #2
20009dce:	61fb      	str	r3, [r7, #28]
20009dd0:	69fb      	ldr	r3, [r7, #28]
20009dd2:	021b      	lsls	r3, r3, #8
20009dd4:	4a0d      	ldr	r2, [pc, #52]	@ (20009e0c <flash_cs_force+0x58>)
20009dd6:	61ba      	str	r2, [r7, #24]
20009dd8:	617b      	str	r3, [r7, #20]
20009dda:	23c0      	movs	r3, #192	@ 0xc0
20009ddc:	009b      	lsls	r3, r3, #2
20009dde:	613b      	str	r3, [r7, #16]
20009de0:	69bb      	ldr	r3, [r7, #24]
20009de2:	681a      	ldr	r2, [r3, #0]
20009de4:	697b      	ldr	r3, [r7, #20]
20009de6:	4053      	eors	r3, r2
20009de8:	693a      	ldr	r2, [r7, #16]
20009dea:	4013      	ands	r3, r2
20009dec:	69ba      	ldr	r2, [r7, #24]
20009dee:	60fa      	str	r2, [r7, #12]
20009df0:	60bb      	str	r3, [r7, #8]
20009df2:	68fb      	ldr	r3, [r7, #12]
20009df4:	2280      	movs	r2, #128	@ 0x80
20009df6:	0152      	lsls	r2, r2, #5
20009df8:	4313      	orrs	r3, r2
20009dfa:	68ba      	ldr	r2, [r7, #8]
20009dfc:	601a      	str	r2, [r3, #0]
20009dfe:	46c0      	nop			@ (mov r8, r8)
20009e00:	46c0      	nop			@ (mov r8, r8)
20009e02:	46c0      	nop			@ (mov r8, r8)
20009e04:	46bd      	mov	sp, r7
20009e06:	b008      	add	sp, #32
20009e08:	bd80      	pop	{r7, pc}
20009e0a:	46c0      	nop			@ (mov r8, r8)
20009e0c:	4001800c 	.word	0x4001800c

20009e10 <flash_do_cmd>:
20009e10:	b580      	push	{r7, lr}
20009e12:	b096      	sub	sp, #88	@ 0x58
20009e14:	af00      	add	r7, sp, #0
20009e16:	60f8      	str	r0, [r7, #12]
20009e18:	60b9      	str	r1, [r7, #8]
20009e1a:	607a      	str	r2, [r7, #4]
20009e1c:	4b4c      	ldr	r3, [pc, #304]	@ (20009f50 <flash_do_cmd+0x140>)
20009e1e:	61fb      	str	r3, [r7, #28]
20009e20:	2018      	movs	r0, #24
20009e22:	f7fb f9a7 	bl	20005174 <rom_hword_as_ptr>
20009e26:	0003      	movs	r3, r0
20009e28:	61bb      	str	r3, [r7, #24]
20009e2a:	2014      	movs	r0, #20
20009e2c:	f7fb f9a2 	bl	20005174 <rom_hword_as_ptr>
20009e30:	0003      	movs	r3, r0
20009e32:	617b      	str	r3, [r7, #20]
20009e34:	69f9      	ldr	r1, [r7, #28]
20009e36:	697a      	ldr	r2, [r7, #20]
20009e38:	69bb      	ldr	r3, [r7, #24]
20009e3a:	0010      	movs	r0, r2
20009e3c:	4798      	blx	r3
20009e3e:	0003      	movs	r3, r0
20009e40:	64fb      	str	r3, [r7, #76]	@ 0x4c
20009e42:	4b44      	ldr	r3, [pc, #272]	@ (20009f54 <flash_do_cmd+0x144>)
20009e44:	62bb      	str	r3, [r7, #40]	@ 0x28
20009e46:	2018      	movs	r0, #24
20009e48:	f7fb f994 	bl	20005174 <rom_hword_as_ptr>
20009e4c:	0003      	movs	r3, r0
20009e4e:	627b      	str	r3, [r7, #36]	@ 0x24
20009e50:	2014      	movs	r0, #20
20009e52:	f7fb f98f 	bl	20005174 <rom_hword_as_ptr>
20009e56:	0003      	movs	r3, r0
20009e58:	623b      	str	r3, [r7, #32]
20009e5a:	6ab9      	ldr	r1, [r7, #40]	@ 0x28
20009e5c:	6a3a      	ldr	r2, [r7, #32]
20009e5e:	6a7b      	ldr	r3, [r7, #36]	@ 0x24
20009e60:	0010      	movs	r0, r2
20009e62:	4798      	blx	r3
20009e64:	0003      	movs	r3, r0
20009e66:	64bb      	str	r3, [r7, #72]	@ 0x48
20009e68:	4b3b      	ldr	r3, [pc, #236]	@ (20009f58 <flash_do_cmd+0x148>)
20009e6a:	637b      	str	r3, [r7, #52]	@ 0x34
20009e6c:	2018      	movs	r0, #24
20009e6e:	f7fb f981 	bl	20005174 <rom_hword_as_ptr>
20009e72:	0003      	movs	r3, r0
20009e74:	633b      	str	r3, [r7, #48]	@ 0x30
20009e76:	2014      	movs	r0, #20
20009e78:	f7fb f97c 	bl	20005174 <rom_hword_as_ptr>
20009e7c:	0003      	movs	r3, r0
20009e7e:	62fb      	str	r3, [r7, #44]	@ 0x2c
20009e80:	6b79      	ldr	r1, [r7, #52]	@ 0x34
20009e82:	6afa      	ldr	r2, [r7, #44]	@ 0x2c
20009e84:	6b3b      	ldr	r3, [r7, #48]	@ 0x30
20009e86:	0010      	movs	r0, r2
20009e88:	4798      	blx	r3
20009e8a:	0003      	movs	r3, r0
20009e8c:	647b      	str	r3, [r7, #68]	@ 0x44
20009e8e:	f7ff ff5f 	bl	20009d50 <flash_init_boot2_copyout>
20009e92:	46c0      	nop			@ (mov r8, r8)
20009e94:	6cfb      	ldr	r3, [r7, #76]	@ 0x4c
20009e96:	4798      	blx	r3
20009e98:	6cbb      	ldr	r3, [r7, #72]	@ 0x48
20009e9a:	4798      	blx	r3
20009e9c:	2000      	movs	r0, #0
20009e9e:	f7ff ff89 	bl	20009db4 <flash_cs_force>
20009ea2:	687b      	ldr	r3, [r7, #4]
20009ea4:	657b      	str	r3, [r7, #84]	@ 0x54
20009ea6:	687b      	ldr	r3, [r7, #4]
20009ea8:	653b      	str	r3, [r7, #80]	@ 0x50
20009eaa:	230e      	movs	r3, #14
20009eac:	643b      	str	r3, [r7, #64]	@ 0x40
20009eae:	e03d      	b.n	20009f2c <flash_do_cmd+0x11c>
20009eb0:	23c0      	movs	r3, #192	@ 0xc0
20009eb2:	055b      	lsls	r3, r3, #21
20009eb4:	6a9b      	ldr	r3, [r3, #40]	@ 0x28
20009eb6:	63fb      	str	r3, [r7, #60]	@ 0x3c
20009eb8:	6bfb      	ldr	r3, [r7, #60]	@ 0x3c
20009eba:	2202      	movs	r2, #2
20009ebc:	401a      	ands	r2, r3
20009ebe:	203b      	movs	r0, #59	@ 0x3b
20009ec0:	183b      	adds	r3, r7, r0
20009ec2:	1e51      	subs	r1, r2, #1
20009ec4:	418a      	sbcs	r2, r1
20009ec6:	701a      	strb	r2, [r3, #0]
20009ec8:	6bfb      	ldr	r3, [r7, #60]	@ 0x3c
20009eca:	2208      	movs	r2, #8
20009ecc:	401a      	ands	r2, r3
20009ece:	233a      	movs	r3, #58	@ 0x3a
20009ed0:	18fb      	adds	r3, r7, r3
20009ed2:	1e51      	subs	r1, r2, #1
20009ed4:	418a      	sbcs	r2, r1
20009ed6:	701a      	strb	r2, [r3, #0]
20009ed8:	183b      	adds	r3, r7, r0
20009eda:	781b      	ldrb	r3, [r3, #0]
20009edc:	2b00      	cmp	r3, #0
20009ede:	d012      	beq.n	20009f06 <flash_do_cmd+0xf6>
20009ee0:	6d7b      	ldr	r3, [r7, #84]	@ 0x54
20009ee2:	2b00      	cmp	r3, #0
20009ee4:	d00f      	beq.n	20009f06 <flash_do_cmd+0xf6>
20009ee6:	6d3a      	ldr	r2, [r7, #80]	@ 0x50
20009ee8:	6d7b      	ldr	r3, [r7, #84]	@ 0x54
20009eea:	1ad3      	subs	r3, r2, r3
20009eec:	6c3a      	ldr	r2, [r7, #64]	@ 0x40
20009eee:	429a      	cmp	r2, r3
20009ef0:	d909      	bls.n	20009f06 <flash_do_cmd+0xf6>
20009ef2:	68fb      	ldr	r3, [r7, #12]
20009ef4:	1c5a      	adds	r2, r3, #1
20009ef6:	60fa      	str	r2, [r7, #12]
20009ef8:	781a      	ldrb	r2, [r3, #0]
20009efa:	23c0      	movs	r3, #192	@ 0xc0
20009efc:	055b      	lsls	r3, r3, #21
20009efe:	661a      	str	r2, [r3, #96]	@ 0x60
20009f00:	6d7b      	ldr	r3, [r7, #84]	@ 0x54
20009f02:	3b01      	subs	r3, #1
20009f04:	657b      	str	r3, [r7, #84]	@ 0x54
20009f06:	233a      	movs	r3, #58	@ 0x3a
20009f08:	18fb      	adds	r3, r7, r3
20009f0a:	781b      	ldrb	r3, [r3, #0]
20009f0c:	2b00      	cmp	r3, #0
20009f0e:	d00d      	beq.n	20009f2c <flash_do_cmd+0x11c>
20009f10:	6d3b      	ldr	r3, [r7, #80]	@ 0x50
20009f12:	2b00      	cmp	r3, #0
20009f14:	d00a      	beq.n	20009f2c <flash_do_cmd+0x11c>
20009f16:	23c0      	movs	r3, #192	@ 0xc0
20009f18:	055b      	lsls	r3, r3, #21
20009f1a:	6e19      	ldr	r1, [r3, #96]	@ 0x60
20009f1c:	68bb      	ldr	r3, [r7, #8]
20009f1e:	1c5a      	adds	r2, r3, #1
20009f20:	60ba      	str	r2, [r7, #8]
20009f22:	b2ca      	uxtb	r2, r1
20009f24:	701a      	strb	r2, [r3, #0]
20009f26:	6d3b      	ldr	r3, [r7, #80]	@ 0x50
20009f28:	3b01      	subs	r3, #1
20009f2a:	653b      	str	r3, [r7, #80]	@ 0x50
20009f2c:	6d7b      	ldr	r3, [r7, #84]	@ 0x54
20009f2e:	2b00      	cmp	r3, #0
20009f30:	d1be      	bne.n	20009eb0 <flash_do_cmd+0xa0>
20009f32:	6d3b      	ldr	r3, [r7, #80]	@ 0x50
20009f34:	2b00      	cmp	r3, #0
20009f36:	d1bb      	bne.n	20009eb0 <flash_do_cmd+0xa0>
20009f38:	2001      	movs	r0, #1
20009f3a:	f7ff ff3b 	bl	20009db4 <flash_cs_force>
20009f3e:	6c7b      	ldr	r3, [r7, #68]	@ 0x44
20009f40:	4798      	blx	r3
20009f42:	f7ff ff2d 	bl	20009da0 <flash_enable_xip_via_boot2>
20009f46:	46c0      	nop			@ (mov r8, r8)
20009f48:	46bd      	mov	sp, r7
20009f4a:	b016      	add	sp, #88	@ 0x58
20009f4c:	bd80      	pop	{r7, pc}
20009f4e:	46c0      	nop			@ (mov r8, r8)
20009f50:	00004649 	.word	0x00004649
20009f54:	00005845 	.word	0x00005845
20009f58:	00004346 	.word	0x00004346

20009f5c <hw_handle_buff_status>:
20009f5c:	b5f0      	push	{r4, r5, r6, r7, lr}
20009f5e:	b08d      	sub	sp, #52	@ 0x34
20009f60:	af00      	add	r7, sp, #0
20009f62:	4b49      	ldr	r3, [pc, #292]	@ (2000a088 <hw_handle_buff_status+0x12c>)
20009f64:	6d9b      	ldr	r3, [r3, #88]	@ 0x58
20009f66:	62fb      	str	r3, [r7, #44]	@ 0x2c
20009f68:	2301      	movs	r3, #1
20009f6a:	62bb      	str	r3, [r7, #40]	@ 0x28
20009f6c:	2327      	movs	r3, #39	@ 0x27
20009f6e:	18fb      	adds	r3, r7, r3
20009f70:	2200      	movs	r2, #0
20009f72:	701a      	strb	r2, [r3, #0]
20009f74:	e07a      	b.n	2000a06c <hw_handle_buff_status+0x110>
20009f76:	6afb      	ldr	r3, [r7, #44]	@ 0x2c
20009f78:	6aba      	ldr	r2, [r7, #40]	@ 0x28
20009f7a:	4013      	ands	r3, r2
20009f7c:	d06d      	beq.n	2000a05a <hw_handle_buff_status+0xfe>
20009f7e:	4b43      	ldr	r3, [pc, #268]	@ (2000a08c <hw_handle_buff_status+0x130>)
20009f80:	6aba      	ldr	r2, [r7, #40]	@ 0x28
20009f82:	659a      	str	r2, [r3, #88]	@ 0x58
20009f84:	2227      	movs	r2, #39	@ 0x27
20009f86:	18bb      	adds	r3, r7, r2
20009f88:	781b      	ldrb	r3, [r3, #0]
20009f8a:	085b      	lsrs	r3, r3, #1
20009f8c:	b2d9      	uxtb	r1, r3
20009f8e:	18bb      	adds	r3, r7, r2
20009f90:	781b      	ldrb	r3, [r3, #0]
20009f92:	2201      	movs	r2, #1
20009f94:	4013      	ands	r3, r2
20009f96:	425a      	negs	r2, r3
20009f98:	4153      	adcs	r3, r2
20009f9a:	b2db      	uxtb	r3, r3
20009f9c:	0018      	movs	r0, r3
20009f9e:	241e      	movs	r4, #30
20009fa0:	193b      	adds	r3, r7, r4
20009fa2:	1c0a      	adds	r2, r1, #0
20009fa4:	701a      	strb	r2, [r3, #0]
20009fa6:	211d      	movs	r1, #29
20009fa8:	187b      	adds	r3, r7, r1
20009faa:	1c02      	adds	r2, r0, #0
20009fac:	701a      	strb	r2, [r3, #0]
20009fae:	193b      	adds	r3, r7, r4
20009fb0:	781a      	ldrb	r2, [r3, #0]
20009fb2:	187b      	adds	r3, r7, r1
20009fb4:	781b      	ldrb	r3, [r3, #0]
20009fb6:	0052      	lsls	r2, r2, #1
20009fb8:	18d3      	adds	r3, r2, r3
20009fba:	015a      	lsls	r2, r3, #5
20009fbc:	4b34      	ldr	r3, [pc, #208]	@ (2000a090 <hw_handle_buff_status+0x134>)
20009fbe:	18d3      	adds	r3, r2, r3
20009fc0:	623b      	str	r3, [r7, #32]
20009fc2:	251f      	movs	r5, #31
20009fc4:	197c      	adds	r4, r7, r5
20009fc6:	6a3b      	ldr	r3, [r7, #32]
20009fc8:	0018      	movs	r0, r3
20009fca:	f000 fc29 	bl	2000a820 <hw_endpoint_xfer_continue>
20009fce:	0003      	movs	r3, r0
20009fd0:	7023      	strb	r3, [r4, #0]
20009fd2:	197b      	adds	r3, r7, r5
20009fd4:	781b      	ldrb	r3, [r3, #0]
20009fd6:	2b00      	cmp	r3, #0
20009fd8:	d03a      	beq.n	2000a050 <hw_handle_buff_status+0xf4>
20009fda:	6a3b      	ldr	r3, [r7, #32]
20009fdc:	7899      	ldrb	r1, [r3, #2]
20009fde:	6a3b      	ldr	r3, [r7, #32]
20009fe0:	8adb      	ldrh	r3, [r3, #22]
20009fe2:	001a      	movs	r2, r3
20009fe4:	241c      	movs	r4, #28
20009fe6:	193b      	adds	r3, r7, r4
20009fe8:	2000      	movs	r0, #0
20009fea:	7018      	strb	r0, [r3, #0]
20009fec:	251b      	movs	r5, #27
20009fee:	197b      	adds	r3, r7, r5
20009ff0:	7019      	strb	r1, [r3, #0]
20009ff2:	617a      	str	r2, [r7, #20]
20009ff4:	2613      	movs	r6, #19
20009ff6:	19bb      	adds	r3, r7, r6
20009ff8:	2200      	movs	r2, #0
20009ffa:	701a      	strb	r2, [r3, #0]
20009ffc:	2312      	movs	r3, #18
20009ffe:	18fb      	adds	r3, r7, r3
2000a000:	2201      	movs	r2, #1
2000a002:	701a      	strb	r2, [r3, #0]
2000a004:	1d3b      	adds	r3, r7, #4
2000a006:	0018      	movs	r0, r3
2000a008:	230c      	movs	r3, #12
2000a00a:	001a      	movs	r2, r3
2000a00c:	2100      	movs	r1, #0
2000a00e:	f7fa f92b 	bl	20004268 <__wrap_memset>
2000a012:	1d3b      	adds	r3, r7, #4
2000a014:	193a      	adds	r2, r7, r4
2000a016:	7812      	ldrb	r2, [r2, #0]
2000a018:	701a      	strb	r2, [r3, #0]
2000a01a:	1d3b      	adds	r3, r7, #4
2000a01c:	2207      	movs	r2, #7
2000a01e:	705a      	strb	r2, [r3, #1]
2000a020:	1d3b      	adds	r3, r7, #4
2000a022:	197a      	adds	r2, r7, r5
2000a024:	7812      	ldrb	r2, [r2, #0]
2000a026:	711a      	strb	r2, [r3, #4]
2000a028:	1d3b      	adds	r3, r7, #4
2000a02a:	697a      	ldr	r2, [r7, #20]
2000a02c:	609a      	str	r2, [r3, #8]
2000a02e:	1d3b      	adds	r3, r7, #4
2000a030:	19ba      	adds	r2, r7, r6
2000a032:	7812      	ldrb	r2, [r2, #0]
2000a034:	715a      	strb	r2, [r3, #5]
2000a036:	2312      	movs	r3, #18
2000a038:	18fb      	adds	r3, r7, r3
2000a03a:	781a      	ldrb	r2, [r3, #0]
2000a03c:	1d3b      	adds	r3, r7, #4
2000a03e:	0011      	movs	r1, r2
2000a040:	0018      	movs	r0, r3
2000a042:	f000 fc9f 	bl	2000a984 <dcd_event_handler>
2000a046:	46c0      	nop			@ (mov r8, r8)
2000a048:	6a3b      	ldr	r3, [r7, #32]
2000a04a:	0018      	movs	r0, r3
2000a04c:	f000 f9f8 	bl	2000a440 <hw_endpoint_reset_transfer>
2000a050:	6abb      	ldr	r3, [r7, #40]	@ 0x28
2000a052:	43da      	mvns	r2, r3
2000a054:	6afb      	ldr	r3, [r7, #44]	@ 0x2c
2000a056:	4013      	ands	r3, r2
2000a058:	62fb      	str	r3, [r7, #44]	@ 0x2c
2000a05a:	6abb      	ldr	r3, [r7, #40]	@ 0x28
2000a05c:	005b      	lsls	r3, r3, #1
2000a05e:	62bb      	str	r3, [r7, #40]	@ 0x28
2000a060:	2127      	movs	r1, #39	@ 0x27
2000a062:	187b      	adds	r3, r7, r1
2000a064:	781a      	ldrb	r2, [r3, #0]
2000a066:	187b      	adds	r3, r7, r1
2000a068:	3201      	adds	r2, #1
2000a06a:	701a      	strb	r2, [r3, #0]
2000a06c:	6afb      	ldr	r3, [r7, #44]	@ 0x2c
2000a06e:	2b00      	cmp	r3, #0
2000a070:	d005      	beq.n	2000a07e <hw_handle_buff_status+0x122>
2000a072:	2327      	movs	r3, #39	@ 0x27
2000a074:	18fb      	adds	r3, r7, r3
2000a076:	781b      	ldrb	r3, [r3, #0]
2000a078:	2b1f      	cmp	r3, #31
2000a07a:	d800      	bhi.n	2000a07e <hw_handle_buff_status+0x122>
2000a07c:	e77b      	b.n	20009f76 <hw_handle_buff_status+0x1a>
2000a07e:	46c0      	nop			@ (mov r8, r8)
2000a080:	46bd      	mov	sp, r7
2000a082:	b00d      	add	sp, #52	@ 0x34
2000a084:	bdf0      	pop	{r4, r5, r6, r7, pc}
2000a086:	46c0      	nop			@ (mov r8, r8)
2000a088:	50110000 	.word	0x50110000
2000a08c:	50113000 	.word	0x50113000
2000a090:	2000b8d4 	.word	0x2000b8d4

2000a094 <reset_non_control_endpoints>:
2000a094:	b580      	push	{r7, lr}
2000a096:	b082      	sub	sp, #8
2000a098:	af00      	add	r7, sp, #0
2000a09a:	1dfb      	adds	r3, r7, #7
2000a09c:	2200      	movs	r2, #0
2000a09e:	701a      	strb	r2, [r3, #0]
2000a0a0:	e014      	b.n	2000a0cc <reset_non_control_endpoints+0x38>
2000a0a2:	4a13      	ldr	r2, [pc, #76]	@ (2000a0f0 <reset_non_control_endpoints+0x5c>)
2000a0a4:	1dfb      	adds	r3, r7, #7
2000a0a6:	781b      	ldrb	r3, [r3, #0]
2000a0a8:	3301      	adds	r3, #1
2000a0aa:	00db      	lsls	r3, r3, #3
2000a0ac:	2100      	movs	r1, #0
2000a0ae:	5099      	str	r1, [r3, r2]
2000a0b0:	4a0f      	ldr	r2, [pc, #60]	@ (2000a0f0 <reset_non_control_endpoints+0x5c>)
2000a0b2:	1dfb      	adds	r3, r7, #7
2000a0b4:	781b      	ldrb	r3, [r3, #0]
2000a0b6:	3301      	adds	r3, #1
2000a0b8:	00db      	lsls	r3, r3, #3
2000a0ba:	18d3      	adds	r3, r2, r3
2000a0bc:	3304      	adds	r3, #4
2000a0be:	2200      	movs	r2, #0
2000a0c0:	601a      	str	r2, [r3, #0]
2000a0c2:	1dfb      	adds	r3, r7, #7
2000a0c4:	781a      	ldrb	r2, [r3, #0]
2000a0c6:	1dfb      	adds	r3, r7, #7
2000a0c8:	3201      	adds	r2, #1
2000a0ca:	701a      	strb	r2, [r3, #0]
2000a0cc:	1dfb      	adds	r3, r7, #7
2000a0ce:	781b      	ldrb	r3, [r3, #0]
2000a0d0:	2b0e      	cmp	r3, #14
2000a0d2:	d9e6      	bls.n	2000a0a2 <reset_non_control_endpoints+0xe>
2000a0d4:	23f0      	movs	r3, #240	@ 0xf0
2000a0d6:	009a      	lsls	r2, r3, #2
2000a0d8:	4b06      	ldr	r3, [pc, #24]	@ (2000a0f4 <reset_non_control_endpoints+0x60>)
2000a0da:	2100      	movs	r1, #0
2000a0dc:	0018      	movs	r0, r3
2000a0de:	f7fa f8c3 	bl	20004268 <__wrap_memset>
2000a0e2:	4b05      	ldr	r3, [pc, #20]	@ (2000a0f8 <reset_non_control_endpoints+0x64>)
2000a0e4:	4a05      	ldr	r2, [pc, #20]	@ (2000a0fc <reset_non_control_endpoints+0x68>)
2000a0e6:	601a      	str	r2, [r3, #0]
2000a0e8:	46c0      	nop			@ (mov r8, r8)
2000a0ea:	46bd      	mov	sp, r7
2000a0ec:	b002      	add	sp, #8
2000a0ee:	bd80      	pop	{r7, pc}
2000a0f0:	50100000 	.word	0x50100000
2000a0f4:	2000b914 	.word	0x2000b914
2000a0f8:	2000bcdc 	.word	0x2000bcdc
2000a0fc:	50100180 	.word	0x50100180

2000a100 <dcd_rp2040_irq>:
2000a100:	b5f0      	push	{r4, r5, r6, r7, lr}
2000a102:	b0a1      	sub	sp, #132	@ 0x84
2000a104:	af00      	add	r7, sp, #0
2000a106:	4ac6      	ldr	r2, [pc, #792]	@ (2000a420 <dcd_rp2040_irq+0x320>)
2000a108:	2398      	movs	r3, #152	@ 0x98
2000a10a:	58d3      	ldr	r3, [r2, r3]
2000a10c:	677b      	str	r3, [r7, #116]	@ 0x74
2000a10e:	2300      	movs	r3, #0
2000a110:	67fb      	str	r3, [r7, #124]	@ 0x7c
2000a112:	6f7a      	ldr	r2, [r7, #116]	@ 0x74
2000a114:	2380      	movs	r3, #128	@ 0x80
2000a116:	029b      	lsls	r3, r3, #10
2000a118:	4013      	ands	r3, r2
2000a11a:	d070      	beq.n	2000a1fe <dcd_rp2040_irq+0xfe>
2000a11c:	237b      	movs	r3, #123	@ 0x7b
2000a11e:	18fb      	adds	r3, r7, r3
2000a120:	2200      	movs	r2, #0
2000a122:	701a      	strb	r2, [r3, #0]
2000a124:	6ffb      	ldr	r3, [r7, #124]	@ 0x7c
2000a126:	2280      	movs	r2, #128	@ 0x80
2000a128:	0292      	lsls	r2, r2, #10
2000a12a:	4313      	orrs	r3, r2
2000a12c:	67fb      	str	r3, [r7, #124]	@ 0x7c
2000a12e:	f7fb f879 	bl	20005224 <time_us_32>
2000a132:	0002      	movs	r2, r0
2000a134:	4bbb      	ldr	r3, [pc, #748]	@ (2000a424 <dcd_rp2040_irq+0x324>)
2000a136:	601a      	str	r2, [r3, #0]
2000a138:	237a      	movs	r3, #122	@ 0x7a
2000a13a:	18fb      	adds	r3, r7, r3
2000a13c:	2200      	movs	r2, #0
2000a13e:	701a      	strb	r2, [r3, #0]
2000a140:	e03b      	b.n	2000a1ba <dcd_rp2040_irq+0xba>
2000a142:	216b      	movs	r1, #107	@ 0x6b
2000a144:	187b      	adds	r3, r7, r1
2000a146:	227a      	movs	r2, #122	@ 0x7a
2000a148:	18ba      	adds	r2, r7, r2
2000a14a:	7812      	ldrb	r2, [r2, #0]
2000a14c:	701a      	strb	r2, [r3, #0]
2000a14e:	206a      	movs	r0, #106	@ 0x6a
2000a150:	183b      	adds	r3, r7, r0
2000a152:	2201      	movs	r2, #1
2000a154:	701a      	strb	r2, [r3, #0]
2000a156:	187b      	adds	r3, r7, r1
2000a158:	781a      	ldrb	r2, [r3, #0]
2000a15a:	183b      	adds	r3, r7, r0
2000a15c:	781b      	ldrb	r3, [r3, #0]
2000a15e:	0052      	lsls	r2, r2, #1
2000a160:	18d3      	adds	r3, r2, r3
2000a162:	015a      	lsls	r2, r3, #5
2000a164:	4bb0      	ldr	r3, [pc, #704]	@ (2000a428 <dcd_rp2040_irq+0x328>)
2000a166:	18d3      	adds	r3, r2, r3
2000a168:	673b      	str	r3, [r7, #112]	@ 0x70
2000a16a:	6f3b      	ldr	r3, [r7, #112]	@ 0x70
2000a16c:	7edb      	ldrb	r3, [r3, #27]
2000a16e:	2b02      	cmp	r3, #2
2000a170:	d11d      	bne.n	2000a1ae <dcd_rp2040_irq+0xae>
2000a172:	6f3b      	ldr	r3, [r7, #112]	@ 0x70
2000a174:	7e9b      	ldrb	r3, [r3, #26]
2000a176:	2b00      	cmp	r3, #0
2000a178:	d019      	beq.n	2000a1ae <dcd_rp2040_irq+0xae>
2000a17a:	237b      	movs	r3, #123	@ 0x7b
2000a17c:	18fb      	adds	r3, r7, r3
2000a17e:	2201      	movs	r2, #1
2000a180:	701a      	strb	r2, [r3, #0]
2000a182:	6f3b      	ldr	r3, [r7, #112]	@ 0x70
2000a184:	667b      	str	r3, [r7, #100]	@ 0x64
2000a186:	2301      	movs	r3, #1
2000a188:	663b      	str	r3, [r7, #96]	@ 0x60
2000a18a:	46c0      	nop			@ (mov r8, r8)
2000a18c:	6f3b      	ldr	r3, [r7, #112]	@ 0x70
2000a18e:	7f1b      	ldrb	r3, [r3, #28]
2000a190:	2b00      	cmp	r3, #0
2000a192:	d006      	beq.n	2000a1a2 <dcd_rp2040_irq+0xa2>
2000a194:	6f3b      	ldr	r3, [r7, #112]	@ 0x70
2000a196:	2200      	movs	r2, #0
2000a198:	771a      	strb	r2, [r3, #28]
2000a19a:	6f3b      	ldr	r3, [r7, #112]	@ 0x70
2000a19c:	0018      	movs	r0, r3
2000a19e:	f000 fa33 	bl	2000a608 <hw_endpoint_start_next_buffer>
2000a1a2:	6f3b      	ldr	r3, [r7, #112]	@ 0x70
2000a1a4:	65fb      	str	r3, [r7, #92]	@ 0x5c
2000a1a6:	2301      	movs	r3, #1
2000a1a8:	425b      	negs	r3, r3
2000a1aa:	65bb      	str	r3, [r7, #88]	@ 0x58
2000a1ac:	46c0      	nop			@ (mov r8, r8)
2000a1ae:	217a      	movs	r1, #122	@ 0x7a
2000a1b0:	187b      	adds	r3, r7, r1
2000a1b2:	781a      	ldrb	r2, [r3, #0]
2000a1b4:	187b      	adds	r3, r7, r1
2000a1b6:	3201      	adds	r2, #1
2000a1b8:	701a      	strb	r2, [r3, #0]
2000a1ba:	237a      	movs	r3, #122	@ 0x7a
2000a1bc:	18fb      	adds	r3, r7, r3
2000a1be:	781b      	ldrb	r3, [r3, #0]
2000a1c0:	2b0f      	cmp	r3, #15
2000a1c2:	d9be      	bls.n	2000a142 <dcd_rp2040_irq+0x42>
2000a1c4:	237b      	movs	r3, #123	@ 0x7b
2000a1c6:	18fb      	adds	r3, r7, r3
2000a1c8:	781b      	ldrb	r3, [r3, #0]
2000a1ca:	2201      	movs	r2, #1
2000a1cc:	4053      	eors	r3, r2
2000a1ce:	b2db      	uxtb	r3, r3
2000a1d0:	2b00      	cmp	r3, #0
2000a1d2:	d00b      	beq.n	2000a1ec <dcd_rp2040_irq+0xec>
2000a1d4:	4b95      	ldr	r3, [pc, #596]	@ (2000a42c <dcd_rp2040_irq+0x32c>)
2000a1d6:	781b      	ldrb	r3, [r3, #0]
2000a1d8:	2201      	movs	r2, #1
2000a1da:	4053      	eors	r3, r2
2000a1dc:	b2db      	uxtb	r3, r3
2000a1de:	2b00      	cmp	r3, #0
2000a1e0:	d004      	beq.n	2000a1ec <dcd_rp2040_irq+0xec>
2000a1e2:	4993      	ldr	r1, [pc, #588]	@ (2000a430 <dcd_rp2040_irq+0x330>)
2000a1e4:	2290      	movs	r2, #144	@ 0x90
2000a1e6:	2380      	movs	r3, #128	@ 0x80
2000a1e8:	029b      	lsls	r3, r3, #10
2000a1ea:	508b      	str	r3, [r1, r2]
2000a1ec:	4b8c      	ldr	r3, [pc, #560]	@ (2000a420 <dcd_rp2040_irq+0x320>)
2000a1ee:	6c9b      	ldr	r3, [r3, #72]	@ 0x48
2000a1f0:	055b      	lsls	r3, r3, #21
2000a1f2:	0d5b      	lsrs	r3, r3, #21
2000a1f4:	2201      	movs	r2, #1
2000a1f6:	0019      	movs	r1, r3
2000a1f8:	2000      	movs	r0, #0
2000a1fa:	f7fb f82b 	bl	20005254 <dcd_event_sof>
2000a1fe:	6f7b      	ldr	r3, [r7, #116]	@ 0x74
2000a200:	2210      	movs	r2, #16
2000a202:	4013      	ands	r3, r2
2000a204:	d005      	beq.n	2000a212 <dcd_rp2040_irq+0x112>
2000a206:	6ffb      	ldr	r3, [r7, #124]	@ 0x7c
2000a208:	2210      	movs	r2, #16
2000a20a:	4313      	orrs	r3, r2
2000a20c:	67fb      	str	r3, [r7, #124]	@ 0x7c
2000a20e:	f7ff fea5 	bl	20009f5c <hw_handle_buff_status>
2000a212:	6f7a      	ldr	r2, [r7, #116]	@ 0x74
2000a214:	2380      	movs	r3, #128	@ 0x80
2000a216:	025b      	lsls	r3, r3, #9
2000a218:	4013      	ands	r3, r2
2000a21a:	d04d      	beq.n	2000a2b8 <dcd_rp2040_irq+0x1b8>
2000a21c:	6ffb      	ldr	r3, [r7, #124]	@ 0x7c
2000a21e:	2280      	movs	r2, #128	@ 0x80
2000a220:	0252      	lsls	r2, r2, #9
2000a222:	4313      	orrs	r3, r2
2000a224:	67fb      	str	r3, [r7, #124]	@ 0x7c
2000a226:	4b83      	ldr	r3, [pc, #524]	@ (2000a434 <dcd_rp2040_irq+0x334>)
2000a228:	66fb      	str	r3, [r7, #108]	@ 0x6c
2000a22a:	2310      	movs	r3, #16
2000a22c:	18fb      	adds	r3, r7, r3
2000a22e:	4a82      	ldr	r2, [pc, #520]	@ (2000a438 <dcd_rp2040_irq+0x338>)
2000a230:	801a      	strh	r2, [r3, #0]
2000a232:	2300      	movs	r3, #0
2000a234:	64bb      	str	r3, [r7, #72]	@ 0x48
2000a236:	e00f      	b.n	2000a258 <dcd_rp2040_irq+0x158>
2000a238:	2310      	movs	r3, #16
2000a23a:	18fa      	adds	r2, r7, r3
2000a23c:	6cbb      	ldr	r3, [r7, #72]	@ 0x48
2000a23e:	18d3      	adds	r3, r2, r3
2000a240:	781b      	ldrb	r3, [r3, #0]
2000a242:	0018      	movs	r0, r3
2000a244:	f7fb f830 	bl	200052a8 <hw_endpoint_get_by_addr>
2000a248:	0003      	movs	r3, r0
2000a24a:	647b      	str	r3, [r7, #68]	@ 0x44
2000a24c:	6c7b      	ldr	r3, [r7, #68]	@ 0x44
2000a24e:	2201      	movs	r2, #1
2000a250:	70da      	strb	r2, [r3, #3]
2000a252:	6cbb      	ldr	r3, [r7, #72]	@ 0x48
2000a254:	3301      	adds	r3, #1
2000a256:	64bb      	str	r3, [r7, #72]	@ 0x48
2000a258:	6cbb      	ldr	r3, [r7, #72]	@ 0x48
2000a25a:	2b01      	cmp	r3, #1
2000a25c:	d9ec      	bls.n	2000a238 <dcd_rp2040_irq+0x138>
2000a25e:	46c0      	nop			@ (mov r8, r8)
2000a260:	2457      	movs	r4, #87	@ 0x57
2000a262:	193b      	adds	r3, r7, r4
2000a264:	2200      	movs	r2, #0
2000a266:	701a      	strb	r2, [r3, #0]
2000a268:	6efb      	ldr	r3, [r7, #108]	@ 0x6c
2000a26a:	653b      	str	r3, [r7, #80]	@ 0x50
2000a26c:	254f      	movs	r5, #79	@ 0x4f
2000a26e:	197b      	adds	r3, r7, r5
2000a270:	2201      	movs	r2, #1
2000a272:	701a      	strb	r2, [r3, #0]
2000a274:	1d3b      	adds	r3, r7, #4
2000a276:	0018      	movs	r0, r3
2000a278:	230c      	movs	r3, #12
2000a27a:	001a      	movs	r2, r3
2000a27c:	2100      	movs	r1, #0
2000a27e:	f7f9 fff3 	bl	20004268 <__wrap_memset>
2000a282:	1d3b      	adds	r3, r7, #4
2000a284:	193a      	adds	r2, r7, r4
2000a286:	7812      	ldrb	r2, [r2, #0]
2000a288:	701a      	strb	r2, [r3, #0]
2000a28a:	1d3b      	adds	r3, r7, #4
2000a28c:	2206      	movs	r2, #6
2000a28e:	705a      	strb	r2, [r3, #1]
2000a290:	1d3b      	adds	r3, r7, #4
2000a292:	6d3a      	ldr	r2, [r7, #80]	@ 0x50
2000a294:	3304      	adds	r3, #4
2000a296:	0011      	movs	r1, r2
2000a298:	2208      	movs	r2, #8
2000a29a:	0018      	movs	r0, r3
2000a29c:	f7f9 ffea 	bl	20004274 <__wrap___aeabi_memcpy>
2000a2a0:	197b      	adds	r3, r7, r5
2000a2a2:	781a      	ldrb	r2, [r3, #0]
2000a2a4:	1d3b      	adds	r3, r7, #4
2000a2a6:	0011      	movs	r1, r2
2000a2a8:	0018      	movs	r0, r3
2000a2aa:	f000 fb6b 	bl	2000a984 <dcd_event_handler>
2000a2ae:	46c0      	nop			@ (mov r8, r8)
2000a2b0:	4b5f      	ldr	r3, [pc, #380]	@ (2000a430 <dcd_rp2040_irq+0x330>)
2000a2b2:	2280      	movs	r2, #128	@ 0x80
2000a2b4:	0292      	lsls	r2, r2, #10
2000a2b6:	651a      	str	r2, [r3, #80]	@ 0x50
2000a2b8:	6f7a      	ldr	r2, [r7, #116]	@ 0x74
2000a2ba:	2380      	movs	r3, #128	@ 0x80
2000a2bc:	015b      	lsls	r3, r3, #5
2000a2be:	4013      	ands	r3, r2
2000a2c0:	d036      	beq.n	2000a330 <dcd_rp2040_irq+0x230>
2000a2c2:	6ffb      	ldr	r3, [r7, #124]	@ 0x7c
2000a2c4:	2280      	movs	r2, #128	@ 0x80
2000a2c6:	0152      	lsls	r2, r2, #5
2000a2c8:	4313      	orrs	r3, r2
2000a2ca:	67fb      	str	r3, [r7, #124]	@ 0x7c
2000a2cc:	4b54      	ldr	r3, [pc, #336]	@ (2000a420 <dcd_rp2040_irq+0x320>)
2000a2ce:	2200      	movs	r2, #0
2000a2d0:	601a      	str	r2, [r3, #0]
2000a2d2:	f7ff fedf 	bl	2000a094 <reset_non_control_endpoints>
2000a2d6:	2543      	movs	r5, #67	@ 0x43
2000a2d8:	197b      	adds	r3, r7, r5
2000a2da:	2200      	movs	r2, #0
2000a2dc:	701a      	strb	r2, [r3, #0]
2000a2de:	2642      	movs	r6, #66	@ 0x42
2000a2e0:	19bb      	adds	r3, r7, r6
2000a2e2:	2200      	movs	r2, #0
2000a2e4:	701a      	strb	r2, [r3, #0]
2000a2e6:	2341      	movs	r3, #65	@ 0x41
2000a2e8:	18fb      	adds	r3, r7, r3
2000a2ea:	2201      	movs	r2, #1
2000a2ec:	701a      	strb	r2, [r3, #0]
2000a2ee:	2414      	movs	r4, #20
2000a2f0:	193b      	adds	r3, r7, r4
2000a2f2:	0018      	movs	r0, r3
2000a2f4:	230c      	movs	r3, #12
2000a2f6:	001a      	movs	r2, r3
2000a2f8:	2100      	movs	r1, #0
2000a2fa:	f7f9 ffb5 	bl	20004268 <__wrap_memset>
2000a2fe:	0021      	movs	r1, r4
2000a300:	187b      	adds	r3, r7, r1
2000a302:	197a      	adds	r2, r7, r5
2000a304:	7812      	ldrb	r2, [r2, #0]
2000a306:	701a      	strb	r2, [r3, #0]
2000a308:	187b      	adds	r3, r7, r1
2000a30a:	2201      	movs	r2, #1
2000a30c:	705a      	strb	r2, [r3, #1]
2000a30e:	187b      	adds	r3, r7, r1
2000a310:	19ba      	adds	r2, r7, r6
2000a312:	7812      	ldrb	r2, [r2, #0]
2000a314:	711a      	strb	r2, [r3, #4]
2000a316:	2341      	movs	r3, #65	@ 0x41
2000a318:	18fb      	adds	r3, r7, r3
2000a31a:	781a      	ldrb	r2, [r3, #0]
2000a31c:	187b      	adds	r3, r7, r1
2000a31e:	0011      	movs	r1, r2
2000a320:	0018      	movs	r0, r3
2000a322:	f000 fb2f 	bl	2000a984 <dcd_event_handler>
2000a326:	46c0      	nop			@ (mov r8, r8)
2000a328:	4b41      	ldr	r3, [pc, #260]	@ (2000a430 <dcd_rp2040_irq+0x330>)
2000a32a:	2280      	movs	r2, #128	@ 0x80
2000a32c:	0312      	lsls	r2, r2, #12
2000a32e:	651a      	str	r2, [r3, #80]	@ 0x50
2000a330:	6f7a      	ldr	r2, [r7, #116]	@ 0x74
2000a332:	2380      	movs	r3, #128	@ 0x80
2000a334:	01db      	lsls	r3, r3, #7
2000a336:	4013      	ands	r3, r2
2000a338:	d02d      	beq.n	2000a396 <dcd_rp2040_irq+0x296>
2000a33a:	6ffb      	ldr	r3, [r7, #124]	@ 0x7c
2000a33c:	2280      	movs	r2, #128	@ 0x80
2000a33e:	01d2      	lsls	r2, r2, #7
2000a340:	4313      	orrs	r3, r2
2000a342:	67fb      	str	r3, [r7, #124]	@ 0x7c
2000a344:	2540      	movs	r5, #64	@ 0x40
2000a346:	197b      	adds	r3, r7, r5
2000a348:	2200      	movs	r2, #0
2000a34a:	701a      	strb	r2, [r3, #0]
2000a34c:	263f      	movs	r6, #63	@ 0x3f
2000a34e:	19bb      	adds	r3, r7, r6
2000a350:	2204      	movs	r2, #4
2000a352:	701a      	strb	r2, [r3, #0]
2000a354:	233e      	movs	r3, #62	@ 0x3e
2000a356:	18fb      	adds	r3, r7, r3
2000a358:	2201      	movs	r2, #1
2000a35a:	701a      	strb	r2, [r3, #0]
2000a35c:	2420      	movs	r4, #32
2000a35e:	193b      	adds	r3, r7, r4
2000a360:	0018      	movs	r0, r3
2000a362:	230c      	movs	r3, #12
2000a364:	001a      	movs	r2, r3
2000a366:	2100      	movs	r1, #0
2000a368:	f7f9 ff7e 	bl	20004268 <__wrap_memset>
2000a36c:	0021      	movs	r1, r4
2000a36e:	187b      	adds	r3, r7, r1
2000a370:	197a      	adds	r2, r7, r5
2000a372:	7812      	ldrb	r2, [r2, #0]
2000a374:	701a      	strb	r2, [r3, #0]
2000a376:	187b      	adds	r3, r7, r1
2000a378:	19ba      	adds	r2, r7, r6
2000a37a:	7812      	ldrb	r2, [r2, #0]
2000a37c:	705a      	strb	r2, [r3, #1]
2000a37e:	233e      	movs	r3, #62	@ 0x3e
2000a380:	18fb      	adds	r3, r7, r3
2000a382:	781a      	ldrb	r2, [r3, #0]
2000a384:	187b      	adds	r3, r7, r1
2000a386:	0011      	movs	r1, r2
2000a388:	0018      	movs	r0, r3
2000a38a:	f000 fafb 	bl	2000a984 <dcd_event_handler>
2000a38e:	46c0      	nop			@ (mov r8, r8)
2000a390:	4b27      	ldr	r3, [pc, #156]	@ (2000a430 <dcd_rp2040_irq+0x330>)
2000a392:	2210      	movs	r2, #16
2000a394:	651a      	str	r2, [r3, #80]	@ 0x50
2000a396:	6f7a      	ldr	r2, [r7, #116]	@ 0x74
2000a398:	2380      	movs	r3, #128	@ 0x80
2000a39a:	021b      	lsls	r3, r3, #8
2000a39c:	4013      	ands	r3, r2
2000a39e:	d02e      	beq.n	2000a3fe <dcd_rp2040_irq+0x2fe>
2000a3a0:	6ffb      	ldr	r3, [r7, #124]	@ 0x7c
2000a3a2:	2280      	movs	r2, #128	@ 0x80
2000a3a4:	0212      	lsls	r2, r2, #8
2000a3a6:	4313      	orrs	r3, r2
2000a3a8:	67fb      	str	r3, [r7, #124]	@ 0x7c
2000a3aa:	253d      	movs	r5, #61	@ 0x3d
2000a3ac:	197b      	adds	r3, r7, r5
2000a3ae:	2200      	movs	r2, #0
2000a3b0:	701a      	strb	r2, [r3, #0]
2000a3b2:	263c      	movs	r6, #60	@ 0x3c
2000a3b4:	19bb      	adds	r3, r7, r6
2000a3b6:	2205      	movs	r2, #5
2000a3b8:	701a      	strb	r2, [r3, #0]
2000a3ba:	233b      	movs	r3, #59	@ 0x3b
2000a3bc:	18fb      	adds	r3, r7, r3
2000a3be:	2201      	movs	r2, #1
2000a3c0:	701a      	strb	r2, [r3, #0]
2000a3c2:	242c      	movs	r4, #44	@ 0x2c
2000a3c4:	193b      	adds	r3, r7, r4
2000a3c6:	0018      	movs	r0, r3
2000a3c8:	230c      	movs	r3, #12
2000a3ca:	001a      	movs	r2, r3
2000a3cc:	2100      	movs	r1, #0
2000a3ce:	f7f9 ff4b 	bl	20004268 <__wrap_memset>
2000a3d2:	0021      	movs	r1, r4
2000a3d4:	187b      	adds	r3, r7, r1
2000a3d6:	197a      	adds	r2, r7, r5
2000a3d8:	7812      	ldrb	r2, [r2, #0]
2000a3da:	701a      	strb	r2, [r3, #0]
2000a3dc:	187b      	adds	r3, r7, r1
2000a3de:	19ba      	adds	r2, r7, r6
2000a3e0:	7812      	ldrb	r2, [r2, #0]
2000a3e2:	705a      	strb	r2, [r3, #1]
2000a3e4:	233b      	movs	r3, #59	@ 0x3b
2000a3e6:	18fb      	adds	r3, r7, r3
2000a3e8:	781a      	ldrb	r2, [r3, #0]
2000a3ea:	187b      	adds	r3, r7, r1
2000a3ec:	0011      	movs	r1, r2
2000a3ee:	0018      	movs	r0, r3
2000a3f0:	f000 fac8 	bl	2000a984 <dcd_event_handler>
2000a3f4:	46c0      	nop			@ (mov r8, r8)
2000a3f6:	4b0e      	ldr	r3, [pc, #56]	@ (2000a430 <dcd_rp2040_irq+0x330>)
2000a3f8:	2280      	movs	r2, #128	@ 0x80
2000a3fa:	0112      	lsls	r2, r2, #4
2000a3fc:	651a      	str	r2, [r3, #80]	@ 0x50
2000a3fe:	6f7a      	ldr	r2, [r7, #116]	@ 0x74
2000a400:	6ffb      	ldr	r3, [r7, #124]	@ 0x7c
2000a402:	429a      	cmp	r2, r3
2000a404:	d007      	beq.n	2000a416 <dcd_rp2040_irq+0x316>
2000a406:	6f7a      	ldr	r2, [r7, #116]	@ 0x74
2000a408:	6ffb      	ldr	r3, [r7, #124]	@ 0x7c
2000a40a:	405a      	eors	r2, r3
2000a40c:	4b0b      	ldr	r3, [pc, #44]	@ (2000a43c <dcd_rp2040_irq+0x33c>)
2000a40e:	0011      	movs	r1, r2
2000a410:	0018      	movs	r0, r3
2000a412:	f7f9 fae9 	bl	200039e8 <panic>
2000a416:	46c0      	nop			@ (mov r8, r8)
2000a418:	46bd      	mov	sp, r7
2000a41a:	b021      	add	sp, #132	@ 0x84
2000a41c:	bdf0      	pop	{r4, r5, r6, r7, pc}
2000a41e:	46c0      	nop			@ (mov r8, r8)
2000a420:	50110000 	.word	0x50110000
2000a424:	2000b8cc 	.word	0x2000b8cc
2000a428:	2000b8d4 	.word	0x2000b8d4
2000a42c:	2000bf4a 	.word	0x2000bf4a
2000a430:	50113000 	.word	0x50113000
2000a434:	50100000 	.word	0x50100000
2000a438:	ffff8000 	.word	0xffff8000
2000a43c:	2000af40 	.word	0x2000af40

2000a440 <hw_endpoint_reset_transfer>:
2000a440:	b580      	push	{r7, lr}
2000a442:	b082      	sub	sp, #8
2000a444:	af00      	add	r7, sp, #0
2000a446:	6078      	str	r0, [r7, #4]
2000a448:	687b      	ldr	r3, [r7, #4]
2000a44a:	2200      	movs	r2, #0
2000a44c:	769a      	strb	r2, [r3, #26]
2000a44e:	687b      	ldr	r3, [r7, #4]
2000a450:	2200      	movs	r2, #0
2000a452:	829a      	strh	r2, [r3, #20]
2000a454:	687b      	ldr	r3, [r7, #4]
2000a456:	2200      	movs	r2, #0
2000a458:	82da      	strh	r2, [r3, #22]
2000a45a:	687b      	ldr	r3, [r7, #4]
2000a45c:	2200      	movs	r2, #0
2000a45e:	611a      	str	r2, [r3, #16]
2000a460:	46c0      	nop			@ (mov r8, r8)
2000a462:	46bd      	mov	sp, r7
2000a464:	b002      	add	sp, #8
2000a466:	bd80      	pop	{r7, pc}

2000a468 <_hw_endpoint_buffer_control_update32>:
2000a468:	b580      	push	{r7, lr}
2000a46a:	b086      	sub	sp, #24
2000a46c:	af00      	add	r7, sp, #0
2000a46e:	60f8      	str	r0, [r7, #12]
2000a470:	60b9      	str	r1, [r7, #8]
2000a472:	607a      	str	r2, [r7, #4]
2000a474:	2300      	movs	r3, #0
2000a476:	617b      	str	r3, [r7, #20]
2000a478:	68bb      	ldr	r3, [r7, #8]
2000a47a:	2b00      	cmp	r3, #0
2000a47c:	d005      	beq.n	2000a48a <_hw_endpoint_buffer_control_update32+0x22>
2000a47e:	68fb      	ldr	r3, [r7, #12]
2000a480:	689b      	ldr	r3, [r3, #8]
2000a482:	681a      	ldr	r2, [r3, #0]
2000a484:	68bb      	ldr	r3, [r7, #8]
2000a486:	4013      	ands	r3, r2
2000a488:	617b      	str	r3, [r7, #20]
2000a48a:	687b      	ldr	r3, [r7, #4]
2000a48c:	2b00      	cmp	r3, #0
2000a48e:	d037      	beq.n	2000a500 <_hw_endpoint_buffer_control_update32+0x98>
2000a490:	697a      	ldr	r2, [r7, #20]
2000a492:	687b      	ldr	r3, [r7, #4]
2000a494:	4313      	orrs	r3, r2
2000a496:	617b      	str	r3, [r7, #20]
2000a498:	687a      	ldr	r2, [r7, #4]
2000a49a:	2380      	movs	r3, #128	@ 0x80
2000a49c:	00db      	lsls	r3, r3, #3
2000a49e:	4013      	ands	r3, r2
2000a4a0:	d02e      	beq.n	2000a500 <_hw_endpoint_buffer_control_update32+0x98>
2000a4a2:	68fb      	ldr	r3, [r7, #12]
2000a4a4:	689b      	ldr	r3, [r3, #8]
2000a4a6:	681a      	ldr	r2, [r3, #0]
2000a4a8:	2380      	movs	r3, #128	@ 0x80
2000a4aa:	00db      	lsls	r3, r3, #3
2000a4ac:	4013      	ands	r3, r2
2000a4ae:	d01b      	beq.n	2000a4e8 <_hw_endpoint_buffer_control_update32+0x80>
2000a4b0:	68fb      	ldr	r3, [r7, #12]
2000a4b2:	789a      	ldrb	r2, [r3, #2]
2000a4b4:	2112      	movs	r1, #18
2000a4b6:	187b      	adds	r3, r7, r1
2000a4b8:	701a      	strb	r2, [r3, #0]
2000a4ba:	187b      	adds	r3, r7, r1
2000a4bc:	781b      	ldrb	r3, [r3, #0]
2000a4be:	227f      	movs	r2, #127	@ 0x7f
2000a4c0:	4013      	ands	r3, r2
2000a4c2:	b2db      	uxtb	r3, r3
2000a4c4:	0019      	movs	r1, r3
2000a4c6:	68fb      	ldr	r3, [r7, #12]
2000a4c8:	789a      	ldrb	r2, [r3, #2]
2000a4ca:	2013      	movs	r0, #19
2000a4cc:	183b      	adds	r3, r7, r0
2000a4ce:	701a      	strb	r2, [r3, #0]
2000a4d0:	183b      	adds	r3, r7, r0
2000a4d2:	781b      	ldrb	r3, [r3, #0]
2000a4d4:	09db      	lsrs	r3, r3, #7
2000a4d6:	b2db      	uxtb	r3, r3
2000a4d8:	001a      	movs	r2, r3
2000a4da:	4b0d      	ldr	r3, [pc, #52]	@ (2000a510 <_hw_endpoint_buffer_control_update32+0xa8>)
2000a4dc:	0092      	lsls	r2, r2, #2
2000a4de:	58d2      	ldr	r2, [r2, r3]
2000a4e0:	4b0c      	ldr	r3, [pc, #48]	@ (2000a514 <_hw_endpoint_buffer_control_update32+0xac>)
2000a4e2:	0018      	movs	r0, r3
2000a4e4:	f7f9 fa80 	bl	200039e8 <panic>
2000a4e8:	68fb      	ldr	r3, [r7, #12]
2000a4ea:	689b      	ldr	r3, [r3, #8]
2000a4ec:	697a      	ldr	r2, [r7, #20]
2000a4ee:	490a      	ldr	r1, [pc, #40]	@ (2000a518 <_hw_endpoint_buffer_control_update32+0xb0>)
2000a4f0:	400a      	ands	r2, r1
2000a4f2:	601a      	str	r2, [r3, #0]
2000a4f4:	e7ff      	b.n	2000a4f6 <_hw_endpoint_buffer_control_update32+0x8e>
2000a4f6:	e7ff      	b.n	2000a4f8 <_hw_endpoint_buffer_control_update32+0x90>
2000a4f8:	e7ff      	b.n	2000a4fa <_hw_endpoint_buffer_control_update32+0x92>
2000a4fa:	e7ff      	b.n	2000a4fc <_hw_endpoint_buffer_control_update32+0x94>
2000a4fc:	e7ff      	b.n	2000a4fe <_hw_endpoint_buffer_control_update32+0x96>
2000a4fe:	e7ff      	b.n	2000a500 <_hw_endpoint_buffer_control_update32+0x98>
2000a500:	68fb      	ldr	r3, [r7, #12]
2000a502:	689b      	ldr	r3, [r3, #8]
2000a504:	697a      	ldr	r2, [r7, #20]
2000a506:	601a      	str	r2, [r3, #0]
2000a508:	46c0      	nop			@ (mov r8, r8)
2000a50a:	46bd      	mov	sp, r7
2000a50c:	b006      	add	sp, #24
2000a50e:	bd80      	pop	{r7, pc}
2000a510:	2000b178 	.word	0x2000b178
2000a514:	2000af5c 	.word	0x2000af5c
2000a518:	fffffbff 	.word	0xfffffbff

2000a51c <prepare_ep_buffer>:
2000a51c:	b590      	push	{r4, r7, lr}
2000a51e:	b087      	sub	sp, #28
2000a520:	af00      	add	r7, sp, #0
2000a522:	6078      	str	r0, [r7, #4]
2000a524:	000a      	movs	r2, r1
2000a526:	1cfb      	adds	r3, r7, #3
2000a528:	701a      	strb	r2, [r3, #0]
2000a52a:	687b      	ldr	r3, [r7, #4]
2000a52c:	8a99      	ldrh	r1, [r3, #20]
2000a52e:	687b      	ldr	r3, [r7, #4]
2000a530:	8b1a      	ldrh	r2, [r3, #24]
2000a532:	2010      	movs	r0, #16
2000a534:	183b      	adds	r3, r7, r0
2000a536:	8019      	strh	r1, [r3, #0]
2000a538:	210e      	movs	r1, #14
2000a53a:	187b      	adds	r3, r7, r1
2000a53c:	801a      	strh	r2, [r3, #0]
2000a53e:	183b      	adds	r3, r7, r0
2000a540:	187a      	adds	r2, r7, r1
2000a542:	8810      	ldrh	r0, [r2, #0]
2000a544:	881b      	ldrh	r3, [r3, #0]
2000a546:	b299      	uxth	r1, r3
2000a548:	b282      	uxth	r2, r0
2000a54a:	4291      	cmp	r1, r2
2000a54c:	d900      	bls.n	2000a550 <prepare_ep_buffer+0x34>
2000a54e:	1c03      	adds	r3, r0, #0
2000a550:	b29a      	uxth	r2, r3
2000a552:	2112      	movs	r1, #18
2000a554:	187b      	adds	r3, r7, r1
2000a556:	801a      	strh	r2, [r3, #0]
2000a558:	687b      	ldr	r3, [r7, #4]
2000a55a:	8a9a      	ldrh	r2, [r3, #20]
2000a55c:	187b      	adds	r3, r7, r1
2000a55e:	881b      	ldrh	r3, [r3, #0]
2000a560:	1ad3      	subs	r3, r2, r3
2000a562:	b29a      	uxth	r2, r3
2000a564:	687b      	ldr	r3, [r7, #4]
2000a566:	829a      	strh	r2, [r3, #20]
2000a568:	187b      	adds	r3, r7, r1
2000a56a:	881b      	ldrh	r3, [r3, #0]
2000a56c:	2280      	movs	r2, #128	@ 0x80
2000a56e:	00d2      	lsls	r2, r2, #3
2000a570:	4313      	orrs	r3, r2
2000a572:	b29b      	uxth	r3, r3
2000a574:	617b      	str	r3, [r7, #20]
2000a576:	687b      	ldr	r3, [r7, #4]
2000a578:	78db      	ldrb	r3, [r3, #3]
2000a57a:	2b00      	cmp	r3, #0
2000a57c:	d002      	beq.n	2000a584 <prepare_ep_buffer+0x68>
2000a57e:	2380      	movs	r3, #128	@ 0x80
2000a580:	019b      	lsls	r3, r3, #6
2000a582:	e000      	b.n	2000a586 <prepare_ep_buffer+0x6a>
2000a584:	2300      	movs	r3, #0
2000a586:	697a      	ldr	r2, [r7, #20]
2000a588:	4313      	orrs	r3, r2
2000a58a:	617b      	str	r3, [r7, #20]
2000a58c:	687b      	ldr	r3, [r7, #4]
2000a58e:	78db      	ldrb	r3, [r3, #3]
2000a590:	2201      	movs	r2, #1
2000a592:	4053      	eors	r3, r2
2000a594:	b2da      	uxtb	r2, r3
2000a596:	687b      	ldr	r3, [r7, #4]
2000a598:	70da      	strb	r2, [r3, #3]
2000a59a:	687b      	ldr	r3, [r7, #4]
2000a59c:	785b      	ldrb	r3, [r3, #1]
2000a59e:	2201      	movs	r2, #1
2000a5a0:	4053      	eors	r3, r2
2000a5a2:	b2db      	uxtb	r3, r3
2000a5a4:	2b00      	cmp	r3, #0
2000a5a6:	d019      	beq.n	2000a5dc <prepare_ep_buffer+0xc0>
2000a5a8:	687b      	ldr	r3, [r7, #4]
2000a5aa:	68db      	ldr	r3, [r3, #12]
2000a5ac:	1cfa      	adds	r2, r7, #3
2000a5ae:	7812      	ldrb	r2, [r2, #0]
2000a5b0:	0192      	lsls	r2, r2, #6
2000a5b2:	1898      	adds	r0, r3, r2
2000a5b4:	687b      	ldr	r3, [r7, #4]
2000a5b6:	6919      	ldr	r1, [r3, #16]
2000a5b8:	2412      	movs	r4, #18
2000a5ba:	193b      	adds	r3, r7, r4
2000a5bc:	881b      	ldrh	r3, [r3, #0]
2000a5be:	001a      	movs	r2, r3
2000a5c0:	f7f9 fe58 	bl	20004274 <__wrap___aeabi_memcpy>
2000a5c4:	687b      	ldr	r3, [r7, #4]
2000a5c6:	691a      	ldr	r2, [r3, #16]
2000a5c8:	193b      	adds	r3, r7, r4
2000a5ca:	881b      	ldrh	r3, [r3, #0]
2000a5cc:	18d2      	adds	r2, r2, r3
2000a5ce:	687b      	ldr	r3, [r7, #4]
2000a5d0:	611a      	str	r2, [r3, #16]
2000a5d2:	697b      	ldr	r3, [r7, #20]
2000a5d4:	2280      	movs	r2, #128	@ 0x80
2000a5d6:	0212      	lsls	r2, r2, #8
2000a5d8:	4313      	orrs	r3, r2
2000a5da:	617b      	str	r3, [r7, #20]
2000a5dc:	687b      	ldr	r3, [r7, #4]
2000a5de:	8a9b      	ldrh	r3, [r3, #20]
2000a5e0:	2b00      	cmp	r3, #0
2000a5e2:	d104      	bne.n	2000a5ee <prepare_ep_buffer+0xd2>
2000a5e4:	697b      	ldr	r3, [r7, #20]
2000a5e6:	2280      	movs	r2, #128	@ 0x80
2000a5e8:	01d2      	lsls	r2, r2, #7
2000a5ea:	4313      	orrs	r3, r2
2000a5ec:	617b      	str	r3, [r7, #20]
2000a5ee:	1cfb      	adds	r3, r7, #3
2000a5f0:	781b      	ldrb	r3, [r3, #0]
2000a5f2:	2b00      	cmp	r3, #0
2000a5f4:	d002      	beq.n	2000a5fc <prepare_ep_buffer+0xe0>
2000a5f6:	697b      	ldr	r3, [r7, #20]
2000a5f8:	041b      	lsls	r3, r3, #16
2000a5fa:	617b      	str	r3, [r7, #20]
2000a5fc:	697b      	ldr	r3, [r7, #20]
2000a5fe:	0018      	movs	r0, r3
2000a600:	46bd      	mov	sp, r7
2000a602:	b007      	add	sp, #28
2000a604:	bd90      	pop	{r4, r7, pc}
	...

2000a608 <hw_endpoint_start_next_buffer>:
2000a608:	b580      	push	{r7, lr}
2000a60a:	b088      	sub	sp, #32
2000a60c:	af00      	add	r7, sp, #0
2000a60e:	6078      	str	r0, [r7, #4]
2000a610:	687b      	ldr	r3, [r7, #4]
2000a612:	685b      	ldr	r3, [r3, #4]
2000a614:	681b      	ldr	r3, [r3, #0]
2000a616:	61fb      	str	r3, [r7, #28]
2000a618:	687b      	ldr	r3, [r7, #4]
2000a61a:	2100      	movs	r1, #0
2000a61c:	0018      	movs	r0, r3
2000a61e:	f7ff ff7d 	bl	2000a51c <prepare_ep_buffer>
2000a622:	0002      	movs	r2, r0
2000a624:	2380      	movs	r3, #128	@ 0x80
2000a626:	015b      	lsls	r3, r3, #5
2000a628:	4313      	orrs	r3, r2
2000a62a:	61bb      	str	r3, [r7, #24]
2000a62c:	4b37      	ldr	r3, [pc, #220]	@ (2000a70c <hw_endpoint_start_next_buffer+0x104>)
2000a62e:	6c1b      	ldr	r3, [r3, #64]	@ 0x40
2000a630:	2202      	movs	r2, #2
2000a632:	4013      	ands	r3, r2
2000a634:	1e5a      	subs	r2, r3, #1
2000a636:	4193      	sbcs	r3, r2
2000a638:	b2da      	uxtb	r2, r3
2000a63a:	2117      	movs	r1, #23
2000a63c:	187b      	adds	r3, r7, r1
2000a63e:	701a      	strb	r2, [r3, #0]
2000a640:	187b      	adds	r3, r7, r1
2000a642:	781b      	ldrb	r3, [r3, #0]
2000a644:	2201      	movs	r2, #1
2000a646:	4053      	eors	r3, r2
2000a648:	b2db      	uxtb	r3, r3
2000a64a:	2b00      	cmp	r3, #0
2000a64c:	d00a      	beq.n	2000a664 <hw_endpoint_start_next_buffer+0x5c>
2000a64e:	687b      	ldr	r3, [r7, #4]
2000a650:	789a      	ldrb	r2, [r3, #2]
2000a652:	2115      	movs	r1, #21
2000a654:	187b      	adds	r3, r7, r1
2000a656:	701a      	strb	r2, [r3, #0]
2000a658:	187b      	adds	r3, r7, r1
2000a65a:	781b      	ldrb	r3, [r3, #0]
2000a65c:	09db      	lsrs	r3, r3, #7
2000a65e:	b2db      	uxtb	r3, r3
2000a660:	2b00      	cmp	r3, #0
2000a662:	d010      	beq.n	2000a686 <hw_endpoint_start_next_buffer+0x7e>
2000a664:	2317      	movs	r3, #23
2000a666:	18fb      	adds	r3, r7, r3
2000a668:	781b      	ldrb	r3, [r3, #0]
2000a66a:	2b00      	cmp	r3, #0
2000a66c:	d00d      	beq.n	2000a68a <hw_endpoint_start_next_buffer+0x82>
2000a66e:	687b      	ldr	r3, [r7, #4]
2000a670:	789a      	ldrb	r2, [r3, #2]
2000a672:	2114      	movs	r1, #20
2000a674:	187b      	adds	r3, r7, r1
2000a676:	701a      	strb	r2, [r3, #0]
2000a678:	187b      	adds	r3, r7, r1
2000a67a:	781b      	ldrb	r3, [r3, #0]
2000a67c:	227f      	movs	r2, #127	@ 0x7f
2000a67e:	4013      	ands	r3, r2
2000a680:	b2db      	uxtb	r3, r3
2000a682:	2b00      	cmp	r3, #0
2000a684:	d001      	beq.n	2000a68a <hw_endpoint_start_next_buffer+0x82>
2000a686:	2201      	movs	r2, #1
2000a688:	e000      	b.n	2000a68c <hw_endpoint_start_next_buffer+0x84>
2000a68a:	2200      	movs	r2, #0
2000a68c:	2016      	movs	r0, #22
2000a68e:	183b      	adds	r3, r7, r0
2000a690:	701a      	strb	r2, [r3, #0]
2000a692:	781a      	ldrb	r2, [r3, #0]
2000a694:	2101      	movs	r1, #1
2000a696:	400a      	ands	r2, r1
2000a698:	701a      	strb	r2, [r3, #0]
2000a69a:	687b      	ldr	r3, [r7, #4]
2000a69c:	8a9b      	ldrh	r3, [r3, #20]
2000a69e:	2b00      	cmp	r3, #0
2000a6a0:	d019      	beq.n	2000a6d6 <hw_endpoint_start_next_buffer+0xce>
2000a6a2:	183b      	adds	r3, r7, r0
2000a6a4:	781b      	ldrb	r3, [r3, #0]
2000a6a6:	2201      	movs	r2, #1
2000a6a8:	4053      	eors	r3, r2
2000a6aa:	b2db      	uxtb	r3, r3
2000a6ac:	2b00      	cmp	r3, #0
2000a6ae:	d012      	beq.n	2000a6d6 <hw_endpoint_start_next_buffer+0xce>
2000a6b0:	687b      	ldr	r3, [r7, #4]
2000a6b2:	2101      	movs	r1, #1
2000a6b4:	0018      	movs	r0, r3
2000a6b6:	f7ff ff31 	bl	2000a51c <prepare_ep_buffer>
2000a6ba:	0002      	movs	r2, r0
2000a6bc:	69bb      	ldr	r3, [r7, #24]
2000a6be:	4313      	orrs	r3, r2
2000a6c0:	61bb      	str	r3, [r7, #24]
2000a6c2:	69fb      	ldr	r3, [r7, #28]
2000a6c4:	4a12      	ldr	r2, [pc, #72]	@ (2000a710 <hw_endpoint_start_next_buffer+0x108>)
2000a6c6:	4013      	ands	r3, r2
2000a6c8:	61fb      	str	r3, [r7, #28]
2000a6ca:	69fb      	ldr	r3, [r7, #28]
2000a6cc:	22a0      	movs	r2, #160	@ 0xa0
2000a6ce:	05d2      	lsls	r2, r2, #23
2000a6d0:	4313      	orrs	r3, r2
2000a6d2:	61fb      	str	r3, [r7, #28]
2000a6d4:	e008      	b.n	2000a6e8 <hw_endpoint_start_next_buffer+0xe0>
2000a6d6:	69fb      	ldr	r3, [r7, #28]
2000a6d8:	4a0e      	ldr	r2, [pc, #56]	@ (2000a714 <hw_endpoint_start_next_buffer+0x10c>)
2000a6da:	4013      	ands	r3, r2
2000a6dc:	61fb      	str	r3, [r7, #28]
2000a6de:	69fb      	ldr	r3, [r7, #28]
2000a6e0:	2280      	movs	r2, #128	@ 0x80
2000a6e2:	0592      	lsls	r2, r2, #22
2000a6e4:	4313      	orrs	r3, r2
2000a6e6:	61fb      	str	r3, [r7, #28]
2000a6e8:	687b      	ldr	r3, [r7, #4]
2000a6ea:	685b      	ldr	r3, [r3, #4]
2000a6ec:	69fa      	ldr	r2, [r7, #28]
2000a6ee:	601a      	str	r2, [r3, #0]
2000a6f0:	687b      	ldr	r3, [r7, #4]
2000a6f2:	613b      	str	r3, [r7, #16]
2000a6f4:	69bb      	ldr	r3, [r7, #24]
2000a6f6:	60fb      	str	r3, [r7, #12]
2000a6f8:	68fa      	ldr	r2, [r7, #12]
2000a6fa:	693b      	ldr	r3, [r7, #16]
2000a6fc:	2100      	movs	r1, #0
2000a6fe:	0018      	movs	r0, r3
2000a700:	f7ff feb2 	bl	2000a468 <_hw_endpoint_buffer_control_update32>
2000a704:	46c0      	nop			@ (mov r8, r8)
2000a706:	46bd      	mov	sp, r7
2000a708:	b008      	add	sp, #32
2000a70a:	bd80      	pop	{r7, pc}
2000a70c:	50110000 	.word	0x50110000
2000a710:	dfffffff 	.word	0xdfffffff
2000a714:	afffffff 	.word	0xafffffff

2000a718 <sync_ep_buffer>:
2000a718:	b590      	push	{r4, r7, lr}
2000a71a:	b087      	sub	sp, #28
2000a71c:	af00      	add	r7, sp, #0
2000a71e:	6078      	str	r0, [r7, #4]
2000a720:	000a      	movs	r2, r1
2000a722:	1cfb      	adds	r3, r7, #3
2000a724:	701a      	strb	r2, [r3, #0]
2000a726:	687b      	ldr	r3, [r7, #4]
2000a728:	60fb      	str	r3, [r7, #12]
2000a72a:	68fb      	ldr	r3, [r7, #12]
2000a72c:	689b      	ldr	r3, [r3, #8]
2000a72e:	681b      	ldr	r3, [r3, #0]
2000a730:	617b      	str	r3, [r7, #20]
2000a732:	1cfb      	adds	r3, r7, #3
2000a734:	781b      	ldrb	r3, [r3, #0]
2000a736:	2b00      	cmp	r3, #0
2000a738:	d002      	beq.n	2000a740 <sync_ep_buffer+0x28>
2000a73a:	697b      	ldr	r3, [r7, #20]
2000a73c:	0c1b      	lsrs	r3, r3, #16
2000a73e:	617b      	str	r3, [r7, #20]
2000a740:	697b      	ldr	r3, [r7, #20]
2000a742:	b29a      	uxth	r2, r3
2000a744:	2112      	movs	r1, #18
2000a746:	187b      	adds	r3, r7, r1
2000a748:	0592      	lsls	r2, r2, #22
2000a74a:	0d92      	lsrs	r2, r2, #22
2000a74c:	801a      	strh	r2, [r3, #0]
2000a74e:	687b      	ldr	r3, [r7, #4]
2000a750:	785b      	ldrb	r3, [r3, #1]
2000a752:	2201      	movs	r2, #1
2000a754:	4053      	eors	r3, r2
2000a756:	b2db      	uxtb	r3, r3
2000a758:	2b00      	cmp	r3, #0
2000a75a:	d008      	beq.n	2000a76e <sync_ep_buffer+0x56>
2000a75c:	687b      	ldr	r3, [r7, #4]
2000a75e:	8ada      	ldrh	r2, [r3, #22]
2000a760:	187b      	adds	r3, r7, r1
2000a762:	881b      	ldrh	r3, [r3, #0]
2000a764:	18d3      	adds	r3, r2, r3
2000a766:	b29a      	uxth	r2, r3
2000a768:	687b      	ldr	r3, [r7, #4]
2000a76a:	82da      	strh	r2, [r3, #22]
2000a76c:	e01d      	b.n	2000a7aa <sync_ep_buffer+0x92>
2000a76e:	687b      	ldr	r3, [r7, #4]
2000a770:	6918      	ldr	r0, [r3, #16]
2000a772:	687b      	ldr	r3, [r7, #4]
2000a774:	68db      	ldr	r3, [r3, #12]
2000a776:	1cfa      	adds	r2, r7, #3
2000a778:	7812      	ldrb	r2, [r2, #0]
2000a77a:	0192      	lsls	r2, r2, #6
2000a77c:	1899      	adds	r1, r3, r2
2000a77e:	2412      	movs	r4, #18
2000a780:	193b      	adds	r3, r7, r4
2000a782:	881b      	ldrh	r3, [r3, #0]
2000a784:	001a      	movs	r2, r3
2000a786:	f7f9 fd75 	bl	20004274 <__wrap___aeabi_memcpy>
2000a78a:	687b      	ldr	r3, [r7, #4]
2000a78c:	8ada      	ldrh	r2, [r3, #22]
2000a78e:	0021      	movs	r1, r4
2000a790:	187b      	adds	r3, r7, r1
2000a792:	881b      	ldrh	r3, [r3, #0]
2000a794:	18d3      	adds	r3, r2, r3
2000a796:	b29a      	uxth	r2, r3
2000a798:	687b      	ldr	r3, [r7, #4]
2000a79a:	82da      	strh	r2, [r3, #22]
2000a79c:	687b      	ldr	r3, [r7, #4]
2000a79e:	691a      	ldr	r2, [r3, #16]
2000a7a0:	187b      	adds	r3, r7, r1
2000a7a2:	881b      	ldrh	r3, [r3, #0]
2000a7a4:	18d2      	adds	r2, r2, r3
2000a7a6:	687b      	ldr	r3, [r7, #4]
2000a7a8:	611a      	str	r2, [r3, #16]
2000a7aa:	687b      	ldr	r3, [r7, #4]
2000a7ac:	8b1b      	ldrh	r3, [r3, #24]
2000a7ae:	2212      	movs	r2, #18
2000a7b0:	18ba      	adds	r2, r7, r2
2000a7b2:	8812      	ldrh	r2, [r2, #0]
2000a7b4:	429a      	cmp	r2, r3
2000a7b6:	d202      	bcs.n	2000a7be <sync_ep_buffer+0xa6>
2000a7b8:	687b      	ldr	r3, [r7, #4]
2000a7ba:	2200      	movs	r2, #0
2000a7bc:	829a      	strh	r2, [r3, #20]
2000a7be:	2312      	movs	r3, #18
2000a7c0:	18fb      	adds	r3, r7, r3
2000a7c2:	881b      	ldrh	r3, [r3, #0]
2000a7c4:	0018      	movs	r0, r3
2000a7c6:	46bd      	mov	sp, r7
2000a7c8:	b007      	add	sp, #28
2000a7ca:	bd90      	pop	{r4, r7, pc}

2000a7cc <_hw_endpoint_xfer_sync>:
2000a7cc:	b5b0      	push	{r4, r5, r7, lr}
2000a7ce:	b086      	sub	sp, #24
2000a7d0:	af00      	add	r7, sp, #0
2000a7d2:	6078      	str	r0, [r7, #4]
2000a7d4:	687b      	ldr	r3, [r7, #4]
2000a7d6:	60fb      	str	r3, [r7, #12]
2000a7d8:	68fb      	ldr	r3, [r7, #12]
2000a7da:	689b      	ldr	r3, [r3, #8]
2000a7dc:	681b      	ldr	r3, [r3, #0]
2000a7de:	617b      	str	r3, [r7, #20]
2000a7e0:	2512      	movs	r5, #18
2000a7e2:	197c      	adds	r4, r7, r5
2000a7e4:	687b      	ldr	r3, [r7, #4]
2000a7e6:	2100      	movs	r1, #0
2000a7e8:	0018      	movs	r0, r3
2000a7ea:	f7ff ff95 	bl	2000a718 <sync_ep_buffer>
2000a7ee:	0003      	movs	r3, r0
2000a7f0:	8023      	strh	r3, [r4, #0]
2000a7f2:	687b      	ldr	r3, [r7, #4]
2000a7f4:	685b      	ldr	r3, [r3, #4]
2000a7f6:	681a      	ldr	r2, [r3, #0]
2000a7f8:	2380      	movs	r3, #128	@ 0x80
2000a7fa:	05db      	lsls	r3, r3, #23
2000a7fc:	4013      	ands	r3, r2
2000a7fe:	d00a      	beq.n	2000a816 <_hw_endpoint_xfer_sync+0x4a>
2000a800:	687b      	ldr	r3, [r7, #4]
2000a802:	8b1b      	ldrh	r3, [r3, #24]
2000a804:	197a      	adds	r2, r7, r5
2000a806:	8812      	ldrh	r2, [r2, #0]
2000a808:	429a      	cmp	r2, r3
2000a80a:	d104      	bne.n	2000a816 <_hw_endpoint_xfer_sync+0x4a>
2000a80c:	687b      	ldr	r3, [r7, #4]
2000a80e:	2101      	movs	r1, #1
2000a810:	0018      	movs	r0, r3
2000a812:	f7ff ff81 	bl	2000a718 <sync_ep_buffer>
2000a816:	46c0      	nop			@ (mov r8, r8)
2000a818:	46bd      	mov	sp, r7
2000a81a:	b006      	add	sp, #24
2000a81c:	bdb0      	pop	{r4, r5, r7, pc}
	...

2000a820 <hw_endpoint_xfer_continue>:
2000a820:	b580      	push	{r7, lr}
2000a822:	b08a      	sub	sp, #40	@ 0x28
2000a824:	af00      	add	r7, sp, #0
2000a826:	6078      	str	r0, [r7, #4]
2000a828:	687b      	ldr	r3, [r7, #4]
2000a82a:	627b      	str	r3, [r7, #36]	@ 0x24
2000a82c:	2301      	movs	r3, #1
2000a82e:	623b      	str	r3, [r7, #32]
2000a830:	46c0      	nop			@ (mov r8, r8)
2000a832:	687b      	ldr	r3, [r7, #4]
2000a834:	7e9b      	ldrb	r3, [r3, #26]
2000a836:	2201      	movs	r2, #1
2000a838:	4053      	eors	r3, r2
2000a83a:	b2db      	uxtb	r3, r3
2000a83c:	2b00      	cmp	r3, #0
2000a83e:	d01b      	beq.n	2000a878 <hw_endpoint_xfer_continue+0x58>
2000a840:	687b      	ldr	r3, [r7, #4]
2000a842:	789a      	ldrb	r2, [r3, #2]
2000a844:	211e      	movs	r1, #30
2000a846:	187b      	adds	r3, r7, r1
2000a848:	701a      	strb	r2, [r3, #0]
2000a84a:	187b      	adds	r3, r7, r1
2000a84c:	781b      	ldrb	r3, [r3, #0]
2000a84e:	227f      	movs	r2, #127	@ 0x7f
2000a850:	4013      	ands	r3, r2
2000a852:	b2db      	uxtb	r3, r3
2000a854:	0019      	movs	r1, r3
2000a856:	687b      	ldr	r3, [r7, #4]
2000a858:	789a      	ldrb	r2, [r3, #2]
2000a85a:	201f      	movs	r0, #31
2000a85c:	183b      	adds	r3, r7, r0
2000a85e:	701a      	strb	r2, [r3, #0]
2000a860:	183b      	adds	r3, r7, r0
2000a862:	781b      	ldrb	r3, [r3, #0]
2000a864:	09db      	lsrs	r3, r3, #7
2000a866:	b2db      	uxtb	r3, r3
2000a868:	001a      	movs	r2, r3
2000a86a:	4b18      	ldr	r3, [pc, #96]	@ (2000a8cc <hw_endpoint_xfer_continue+0xac>)
2000a86c:	0092      	lsls	r2, r2, #2
2000a86e:	58d2      	ldr	r2, [r2, r3]
2000a870:	4b17      	ldr	r3, [pc, #92]	@ (2000a8d0 <hw_endpoint_xfer_continue+0xb0>)
2000a872:	0018      	movs	r0, r3
2000a874:	f7f9 f8b8 	bl	200039e8 <panic>
2000a878:	687b      	ldr	r3, [r7, #4]
2000a87a:	0018      	movs	r0, r3
2000a87c:	f7ff ffa6 	bl	2000a7cc <_hw_endpoint_xfer_sync>
2000a880:	687b      	ldr	r3, [r7, #4]
2000a882:	8a9b      	ldrh	r3, [r3, #20]
2000a884:	2b00      	cmp	r3, #0
2000a886:	d107      	bne.n	2000a898 <hw_endpoint_xfer_continue+0x78>
2000a888:	687b      	ldr	r3, [r7, #4]
2000a88a:	61bb      	str	r3, [r7, #24]
2000a88c:	2301      	movs	r3, #1
2000a88e:	425b      	negs	r3, r3
2000a890:	617b      	str	r3, [r7, #20]
2000a892:	46c0      	nop			@ (mov r8, r8)
2000a894:	2301      	movs	r3, #1
2000a896:	e014      	b.n	2000a8c2 <hw_endpoint_xfer_continue+0xa2>
2000a898:	687b      	ldr	r3, [r7, #4]
2000a89a:	0018      	movs	r0, r3
2000a89c:	f000 f846 	bl	2000a92c <e15_is_critical_frame_period>
2000a8a0:	1e03      	subs	r3, r0, #0
2000a8a2:	d003      	beq.n	2000a8ac <hw_endpoint_xfer_continue+0x8c>
2000a8a4:	687b      	ldr	r3, [r7, #4]
2000a8a6:	2201      	movs	r2, #1
2000a8a8:	771a      	strb	r2, [r3, #28]
2000a8aa:	e003      	b.n	2000a8b4 <hw_endpoint_xfer_continue+0x94>
2000a8ac:	687b      	ldr	r3, [r7, #4]
2000a8ae:	0018      	movs	r0, r3
2000a8b0:	f7ff feaa 	bl	2000a608 <hw_endpoint_start_next_buffer>
2000a8b4:	687b      	ldr	r3, [r7, #4]
2000a8b6:	613b      	str	r3, [r7, #16]
2000a8b8:	2301      	movs	r3, #1
2000a8ba:	425b      	negs	r3, r3
2000a8bc:	60fb      	str	r3, [r7, #12]
2000a8be:	46c0      	nop			@ (mov r8, r8)
2000a8c0:	2300      	movs	r3, #0
2000a8c2:	0018      	movs	r0, r3
2000a8c4:	46bd      	mov	sp, r7
2000a8c6:	b00a      	add	sp, #40	@ 0x28
2000a8c8:	bd80      	pop	{r7, pc}
2000a8ca:	46c0      	nop			@ (mov r8, r8)
2000a8cc:	2000b178 	.word	0x2000b178
2000a8d0:	2000af7c 	.word	0x2000af7c

2000a8d4 <e15_is_bulkin_ep>:
2000a8d4:	b580      	push	{r7, lr}
2000a8d6:	b084      	sub	sp, #16
2000a8d8:	af00      	add	r7, sp, #0
2000a8da:	6078      	str	r0, [r7, #4]
2000a8dc:	4b12      	ldr	r3, [pc, #72]	@ (2000a928 <e15_is_bulkin_ep+0x54>)
2000a8de:	6c1b      	ldr	r3, [r3, #64]	@ 0x40
2000a8e0:	2202      	movs	r2, #2
2000a8e2:	4013      	ands	r3, r2
2000a8e4:	1e5a      	subs	r2, r3, #1
2000a8e6:	4193      	sbcs	r3, r2
2000a8e8:	b2db      	uxtb	r3, r3
2000a8ea:	2201      	movs	r2, #1
2000a8ec:	4053      	eors	r3, r2
2000a8ee:	b2db      	uxtb	r3, r3
2000a8f0:	2b00      	cmp	r3, #0
2000a8f2:	d010      	beq.n	2000a916 <e15_is_bulkin_ep+0x42>
2000a8f4:	687b      	ldr	r3, [r7, #4]
2000a8f6:	789a      	ldrb	r2, [r3, #2]
2000a8f8:	210f      	movs	r1, #15
2000a8fa:	187b      	adds	r3, r7, r1
2000a8fc:	701a      	strb	r2, [r3, #0]
2000a8fe:	187b      	adds	r3, r7, r1
2000a900:	781b      	ldrb	r3, [r3, #0]
2000a902:	09db      	lsrs	r3, r3, #7
2000a904:	b2db      	uxtb	r3, r3
2000a906:	2b01      	cmp	r3, #1
2000a908:	d105      	bne.n	2000a916 <e15_is_bulkin_ep+0x42>
2000a90a:	687b      	ldr	r3, [r7, #4]
2000a90c:	7edb      	ldrb	r3, [r3, #27]
2000a90e:	2b02      	cmp	r3, #2
2000a910:	d101      	bne.n	2000a916 <e15_is_bulkin_ep+0x42>
2000a912:	2301      	movs	r3, #1
2000a914:	e000      	b.n	2000a918 <e15_is_bulkin_ep+0x44>
2000a916:	2300      	movs	r3, #0
2000a918:	1c1a      	adds	r2, r3, #0
2000a91a:	2301      	movs	r3, #1
2000a91c:	4013      	ands	r3, r2
2000a91e:	b2db      	uxtb	r3, r3
2000a920:	0018      	movs	r0, r3
2000a922:	46bd      	mov	sp, r7
2000a924:	b004      	add	sp, #16
2000a926:	bd80      	pop	{r7, pc}
2000a928:	50110000 	.word	0x50110000

2000a92c <e15_is_critical_frame_period>:
2000a92c:	b580      	push	{r7, lr}
2000a92e:	b084      	sub	sp, #16
2000a930:	af00      	add	r7, sp, #0
2000a932:	6078      	str	r0, [r7, #4]
2000a934:	687b      	ldr	r3, [r7, #4]
2000a936:	0018      	movs	r0, r3
2000a938:	f7ff ffcc 	bl	2000a8d4 <e15_is_bulkin_ep>
2000a93c:	0003      	movs	r3, r0
2000a93e:	001a      	movs	r2, r3
2000a940:	2301      	movs	r3, #1
2000a942:	4053      	eors	r3, r2
2000a944:	b2db      	uxtb	r3, r3
2000a946:	2b00      	cmp	r3, #0
2000a948:	d001      	beq.n	2000a94e <e15_is_critical_frame_period+0x22>
2000a94a:	2300      	movs	r3, #0
2000a94c:	e012      	b.n	2000a974 <e15_is_critical_frame_period+0x48>
2000a94e:	f7fa ff6b 	bl	20005828 <time_us_32>
2000a952:	0002      	movs	r2, r0
2000a954:	4b09      	ldr	r3, [pc, #36]	@ (2000a97c <e15_is_critical_frame_period+0x50>)
2000a956:	681b      	ldr	r3, [r3, #0]
2000a958:	1ad3      	subs	r3, r2, r3
2000a95a:	60fb      	str	r3, [r7, #12]
2000a95c:	68fa      	ldr	r2, [r7, #12]
2000a95e:	23c8      	movs	r3, #200	@ 0xc8
2000a960:	009b      	lsls	r3, r3, #2
2000a962:	429a      	cmp	r2, r3
2000a964:	d303      	bcc.n	2000a96e <e15_is_critical_frame_period+0x42>
2000a966:	68fb      	ldr	r3, [r7, #12]
2000a968:	4a05      	ldr	r2, [pc, #20]	@ (2000a980 <e15_is_critical_frame_period+0x54>)
2000a96a:	4293      	cmp	r3, r2
2000a96c:	d901      	bls.n	2000a972 <e15_is_critical_frame_period+0x46>
2000a96e:	2300      	movs	r3, #0
2000a970:	e000      	b.n	2000a974 <e15_is_critical_frame_period+0x48>
2000a972:	2301      	movs	r3, #1
2000a974:	0018      	movs	r0, r3
2000a976:	46bd      	mov	sp, r7
2000a978:	b004      	add	sp, #16
2000a97a:	bd80      	pop	{r7, pc}
2000a97c:	2000b8cc 	.word	0x2000b8cc
2000a980:	000003e6 	.word	0x000003e6

2000a984 <dcd_event_handler>:
2000a984:	b5f0      	push	{r4, r5, r6, r7, lr}
2000a986:	b0a7      	sub	sp, #156	@ 0x9c
2000a988:	af00      	add	r7, sp, #0
2000a98a:	6078      	str	r0, [r7, #4]
2000a98c:	000a      	movs	r2, r1
2000a98e:	1cfb      	adds	r3, r7, #3
2000a990:	701a      	strb	r2, [r3, #0]
2000a992:	687b      	ldr	r3, [r7, #4]
2000a994:	785b      	ldrb	r3, [r3, #1]
2000a996:	2b05      	cmp	r3, #5
2000a998:	d100      	bne.n	2000a99c <dcd_event_handler+0x18>
2000a99a:	e07f      	b.n	2000aa9c <dcd_event_handler+0x118>
2000a99c:	dd00      	ble.n	2000a9a0 <dcd_event_handler+0x1c>
2000a99e:	e11e      	b.n	2000abde <dcd_event_handler+0x25a>
2000a9a0:	2b04      	cmp	r3, #4
2000a9a2:	d049      	beq.n	2000aa38 <dcd_event_handler+0xb4>
2000a9a4:	dd00      	ble.n	2000a9a8 <dcd_event_handler+0x24>
2000a9a6:	e11a      	b.n	2000abde <dcd_event_handler+0x25a>
2000a9a8:	2b02      	cmp	r3, #2
2000a9aa:	d003      	beq.n	2000a9b4 <dcd_event_handler+0x30>
2000a9ac:	2b03      	cmp	r3, #3
2000a9ae:	d100      	bne.n	2000a9b2 <dcd_event_handler+0x2e>
2000a9b0:	e0a6      	b.n	2000ab00 <dcd_event_handler+0x17c>
2000a9b2:	e114      	b.n	2000abde <dcd_event_handler+0x25a>
2000a9b4:	4aa1      	ldr	r2, [pc, #644]	@ (2000ac3c <dcd_event_handler+0x2b8>)
2000a9b6:	7813      	ldrb	r3, [r2, #0]
2000a9b8:	2101      	movs	r1, #1
2000a9ba:	438b      	bics	r3, r1
2000a9bc:	7013      	strb	r3, [r2, #0]
2000a9be:	4a9f      	ldr	r2, [pc, #636]	@ (2000ac3c <dcd_event_handler+0x2b8>)
2000a9c0:	7813      	ldrb	r3, [r2, #0]
2000a9c2:	2102      	movs	r1, #2
2000a9c4:	438b      	bics	r3, r1
2000a9c6:	7013      	strb	r3, [r2, #0]
2000a9c8:	4b9c      	ldr	r3, [pc, #624]	@ (2000ac3c <dcd_event_handler+0x2b8>)
2000a9ca:	2200      	movs	r2, #0
2000a9cc:	705a      	strb	r2, [r3, #1]
2000a9ce:	4a9b      	ldr	r2, [pc, #620]	@ (2000ac3c <dcd_event_handler+0x2b8>)
2000a9d0:	7813      	ldrb	r3, [r2, #0]
2000a9d2:	2104      	movs	r1, #4
2000a9d4:	438b      	bics	r3, r1
2000a9d6:	7013      	strb	r3, [r2, #0]
2000a9d8:	4b99      	ldr	r3, [pc, #612]	@ (2000ac40 <dcd_event_handler+0x2bc>)
2000a9da:	681b      	ldr	r3, [r3, #0]
2000a9dc:	258c      	movs	r5, #140	@ 0x8c
2000a9de:	197a      	adds	r2, r7, r5
2000a9e0:	6013      	str	r3, [r2, #0]
2000a9e2:	687b      	ldr	r3, [r7, #4]
2000a9e4:	2688      	movs	r6, #136	@ 0x88
2000a9e6:	19ba      	adds	r2, r7, r6
2000a9e8:	6013      	str	r3, [r2, #0]
2000a9ea:	2387      	movs	r3, #135	@ 0x87
2000a9ec:	18fb      	adds	r3, r7, r3
2000a9ee:	1cfa      	adds	r2, r7, #3
2000a9f0:	7812      	ldrb	r2, [r2, #0]
2000a9f2:	701a      	strb	r2, [r3, #0]
2000a9f4:	197b      	adds	r3, r7, r5
2000a9f6:	681b      	ldr	r3, [r3, #0]
2000a9f8:	2280      	movs	r2, #128	@ 0x80
2000a9fa:	18b9      	adds	r1, r7, r2
2000a9fc:	600b      	str	r3, [r1, #0]
2000a9fe:	18bb      	adds	r3, r7, r2
2000aa00:	681b      	ldr	r3, [r3, #0]
2000aa02:	3314      	adds	r3, #20
2000aa04:	0018      	movs	r0, r3
2000aa06:	f7fa ff83 	bl	20005910 <critical_section_enter_blocking>
2000aa0a:	46c0      	nop			@ (mov r8, r8)
2000aa0c:	197b      	adds	r3, r7, r5
2000aa0e:	681b      	ldr	r3, [r3, #0]
2000aa10:	227f      	movs	r2, #127	@ 0x7f
2000aa12:	18bc      	adds	r4, r7, r2
2000aa14:	19ba      	adds	r2, r7, r6
2000aa16:	6812      	ldr	r2, [r2, #0]
2000aa18:	0011      	movs	r1, r2
2000aa1a:	0018      	movs	r0, r3
2000aa1c:	f7fe fab8 	bl	20008f90 <tu_fifo_write>
2000aa20:	0003      	movs	r3, r0
2000aa22:	7023      	strb	r3, [r4, #0]
2000aa24:	197b      	adds	r3, r7, r5
2000aa26:	681b      	ldr	r3, [r3, #0]
2000aa28:	67bb      	str	r3, [r7, #120]	@ 0x78
2000aa2a:	6fbb      	ldr	r3, [r7, #120]	@ 0x78
2000aa2c:	3314      	adds	r3, #20
2000aa2e:	0018      	movs	r0, r3
2000aa30:	f7fa ff91 	bl	20005956 <critical_section_exit>
2000aa34:	46c0      	nop			@ (mov r8, r8)
2000aa36:	e0fc      	b.n	2000ac32 <dcd_event_handler+0x2ae>
2000aa38:	4b80      	ldr	r3, [pc, #512]	@ (2000ac3c <dcd_event_handler+0x2b8>)
2000aa3a:	781b      	ldrb	r3, [r3, #0]
2000aa3c:	07db      	lsls	r3, r3, #31
2000aa3e:	0fdb      	lsrs	r3, r3, #31
2000aa40:	b2db      	uxtb	r3, r3
2000aa42:	2b00      	cmp	r3, #0
2000aa44:	d100      	bne.n	2000aa48 <dcd_event_handler+0xc4>
2000aa46:	e0ef      	b.n	2000ac28 <dcd_event_handler+0x2a4>
2000aa48:	4a7c      	ldr	r2, [pc, #496]	@ (2000ac3c <dcd_event_handler+0x2b8>)
2000aa4a:	7813      	ldrb	r3, [r2, #0]
2000aa4c:	2104      	movs	r1, #4
2000aa4e:	430b      	orrs	r3, r1
2000aa50:	7013      	strb	r3, [r2, #0]
2000aa52:	4b7b      	ldr	r3, [pc, #492]	@ (2000ac40 <dcd_event_handler+0x2bc>)
2000aa54:	681b      	ldr	r3, [r3, #0]
2000aa56:	677b      	str	r3, [r7, #116]	@ 0x74
2000aa58:	687b      	ldr	r3, [r7, #4]
2000aa5a:	673b      	str	r3, [r7, #112]	@ 0x70
2000aa5c:	236f      	movs	r3, #111	@ 0x6f
2000aa5e:	18fb      	adds	r3, r7, r3
2000aa60:	1cfa      	adds	r2, r7, #3
2000aa62:	7812      	ldrb	r2, [r2, #0]
2000aa64:	701a      	strb	r2, [r3, #0]
2000aa66:	6f7b      	ldr	r3, [r7, #116]	@ 0x74
2000aa68:	66bb      	str	r3, [r7, #104]	@ 0x68
2000aa6a:	6ebb      	ldr	r3, [r7, #104]	@ 0x68
2000aa6c:	3314      	adds	r3, #20
2000aa6e:	0018      	movs	r0, r3
2000aa70:	f7fa ff4e 	bl	20005910 <critical_section_enter_blocking>
2000aa74:	46c0      	nop			@ (mov r8, r8)
2000aa76:	6f7b      	ldr	r3, [r7, #116]	@ 0x74
2000aa78:	2267      	movs	r2, #103	@ 0x67
2000aa7a:	18bc      	adds	r4, r7, r2
2000aa7c:	6f3a      	ldr	r2, [r7, #112]	@ 0x70
2000aa7e:	0011      	movs	r1, r2
2000aa80:	0018      	movs	r0, r3
2000aa82:	f7fe fa85 	bl	20008f90 <tu_fifo_write>
2000aa86:	0003      	movs	r3, r0
2000aa88:	7023      	strb	r3, [r4, #0]
2000aa8a:	6f7b      	ldr	r3, [r7, #116]	@ 0x74
2000aa8c:	663b      	str	r3, [r7, #96]	@ 0x60
2000aa8e:	6e3b      	ldr	r3, [r7, #96]	@ 0x60
2000aa90:	3314      	adds	r3, #20
2000aa92:	0018      	movs	r0, r3
2000aa94:	f7fa ff5f 	bl	20005956 <critical_section_exit>
2000aa98:	46c0      	nop			@ (mov r8, r8)
2000aa9a:	e0c5      	b.n	2000ac28 <dcd_event_handler+0x2a4>
2000aa9c:	4b67      	ldr	r3, [pc, #412]	@ (2000ac3c <dcd_event_handler+0x2b8>)
2000aa9e:	781b      	ldrb	r3, [r3, #0]
2000aaa0:	07db      	lsls	r3, r3, #31
2000aaa2:	0fdb      	lsrs	r3, r3, #31
2000aaa4:	b2db      	uxtb	r3, r3
2000aaa6:	2b00      	cmp	r3, #0
2000aaa8:	d100      	bne.n	2000aaac <dcd_event_handler+0x128>
2000aaaa:	e0bf      	b.n	2000ac2c <dcd_event_handler+0x2a8>
2000aaac:	4a63      	ldr	r2, [pc, #396]	@ (2000ac3c <dcd_event_handler+0x2b8>)
2000aaae:	7813      	ldrb	r3, [r2, #0]
2000aab0:	2104      	movs	r1, #4
2000aab2:	438b      	bics	r3, r1
2000aab4:	7013      	strb	r3, [r2, #0]
2000aab6:	4b62      	ldr	r3, [pc, #392]	@ (2000ac40 <dcd_event_handler+0x2bc>)
2000aab8:	681b      	ldr	r3, [r3, #0]
2000aaba:	65fb      	str	r3, [r7, #92]	@ 0x5c
2000aabc:	687b      	ldr	r3, [r7, #4]
2000aabe:	65bb      	str	r3, [r7, #88]	@ 0x58
2000aac0:	2357      	movs	r3, #87	@ 0x57
2000aac2:	18fb      	adds	r3, r7, r3
2000aac4:	1cfa      	adds	r2, r7, #3
2000aac6:	7812      	ldrb	r2, [r2, #0]
2000aac8:	701a      	strb	r2, [r3, #0]
2000aaca:	6dfb      	ldr	r3, [r7, #92]	@ 0x5c
2000aacc:	653b      	str	r3, [r7, #80]	@ 0x50
2000aace:	6d3b      	ldr	r3, [r7, #80]	@ 0x50
2000aad0:	3314      	adds	r3, #20
2000aad2:	0018      	movs	r0, r3
2000aad4:	f7fa ff1c 	bl	20005910 <critical_section_enter_blocking>
2000aad8:	46c0      	nop			@ (mov r8, r8)
2000aada:	6dfb      	ldr	r3, [r7, #92]	@ 0x5c
2000aadc:	224f      	movs	r2, #79	@ 0x4f
2000aade:	18bc      	adds	r4, r7, r2
2000aae0:	6dba      	ldr	r2, [r7, #88]	@ 0x58
2000aae2:	0011      	movs	r1, r2
2000aae4:	0018      	movs	r0, r3
2000aae6:	f7fe fa53 	bl	20008f90 <tu_fifo_write>
2000aaea:	0003      	movs	r3, r0
2000aaec:	7023      	strb	r3, [r4, #0]
2000aaee:	6dfb      	ldr	r3, [r7, #92]	@ 0x5c
2000aaf0:	64bb      	str	r3, [r7, #72]	@ 0x48
2000aaf2:	6cbb      	ldr	r3, [r7, #72]	@ 0x48
2000aaf4:	3314      	adds	r3, #20
2000aaf6:	0018      	movs	r0, r3
2000aaf8:	f7fa ff2d 	bl	20005956 <critical_section_exit>
2000aafc:	46c0      	nop			@ (mov r8, r8)
2000aafe:	e095      	b.n	2000ac2c <dcd_event_handler+0x2a8>
2000ab00:	2397      	movs	r3, #151	@ 0x97
2000ab02:	18fb      	adds	r3, r7, r3
2000ab04:	2200      	movs	r2, #0
2000ab06:	701a      	strb	r2, [r3, #0]
2000ab08:	e021      	b.n	2000ab4e <dcd_event_handler+0x1ca>
2000ab0a:	2397      	movs	r3, #151	@ 0x97
2000ab0c:	18fb      	adds	r3, r7, r3
2000ab0e:	781b      	ldrb	r3, [r3, #0]
2000ab10:	0018      	movs	r0, r3
2000ab12:	f7fa ff3f 	bl	20005994 <get_driver>
2000ab16:	0003      	movs	r3, r0
2000ab18:	2290      	movs	r2, #144	@ 0x90
2000ab1a:	18b9      	adds	r1, r7, r2
2000ab1c:	600b      	str	r3, [r1, #0]
2000ab1e:	18bb      	adds	r3, r7, r2
2000ab20:	681b      	ldr	r3, [r3, #0]
2000ab22:	2b00      	cmp	r3, #0
2000ab24:	d00d      	beq.n	2000ab42 <dcd_event_handler+0x1be>
2000ab26:	18bb      	adds	r3, r7, r2
2000ab28:	681b      	ldr	r3, [r3, #0]
2000ab2a:	695b      	ldr	r3, [r3, #20]
2000ab2c:	2b00      	cmp	r3, #0
2000ab2e:	d008      	beq.n	2000ab42 <dcd_event_handler+0x1be>
2000ab30:	18bb      	adds	r3, r7, r2
2000ab32:	681b      	ldr	r3, [r3, #0]
2000ab34:	695a      	ldr	r2, [r3, #20]
2000ab36:	687b      	ldr	r3, [r7, #4]
2000ab38:	7818      	ldrb	r0, [r3, #0]
2000ab3a:	687b      	ldr	r3, [r7, #4]
2000ab3c:	685b      	ldr	r3, [r3, #4]
2000ab3e:	0019      	movs	r1, r3
2000ab40:	4790      	blx	r2
2000ab42:	2197      	movs	r1, #151	@ 0x97
2000ab44:	187b      	adds	r3, r7, r1
2000ab46:	781a      	ldrb	r2, [r3, #0]
2000ab48:	187b      	adds	r3, r7, r1
2000ab4a:	3201      	adds	r2, #1
2000ab4c:	701a      	strb	r2, [r3, #0]
2000ab4e:	4b3d      	ldr	r3, [pc, #244]	@ (2000ac44 <dcd_event_handler+0x2c0>)
2000ab50:	781b      	ldrb	r3, [r3, #0]
2000ab52:	2297      	movs	r2, #151	@ 0x97
2000ab54:	18ba      	adds	r2, r7, r2
2000ab56:	7812      	ldrb	r2, [r2, #0]
2000ab58:	429a      	cmp	r2, r3
2000ab5a:	d9d6      	bls.n	2000ab0a <dcd_event_handler+0x186>
2000ab5c:	4b37      	ldr	r3, [pc, #220]	@ (2000ac3c <dcd_event_handler+0x2b8>)
2000ab5e:	781b      	ldrb	r3, [r3, #0]
2000ab60:	075b      	lsls	r3, r3, #29
2000ab62:	0fdb      	lsrs	r3, r3, #31
2000ab64:	b2db      	uxtb	r3, r3
2000ab66:	2b00      	cmp	r3, #0
2000ab68:	d062      	beq.n	2000ac30 <dcd_event_handler+0x2ac>
2000ab6a:	4a34      	ldr	r2, [pc, #208]	@ (2000ac3c <dcd_event_handler+0x2b8>)
2000ab6c:	7813      	ldrb	r3, [r2, #0]
2000ab6e:	2104      	movs	r1, #4
2000ab70:	438b      	bics	r3, r1
2000ab72:	7013      	strb	r3, [r2, #0]
2000ab74:	240c      	movs	r4, #12
2000ab76:	193b      	adds	r3, r7, r4
2000ab78:	0018      	movs	r0, r3
2000ab7a:	230c      	movs	r3, #12
2000ab7c:	001a      	movs	r2, r3
2000ab7e:	2100      	movs	r1, #0
2000ab80:	f7f9 fb72 	bl	20004268 <__wrap_memset>
2000ab84:	687b      	ldr	r3, [r7, #4]
2000ab86:	781a      	ldrb	r2, [r3, #0]
2000ab88:	0021      	movs	r1, r4
2000ab8a:	187b      	adds	r3, r7, r1
2000ab8c:	701a      	strb	r2, [r3, #0]
2000ab8e:	187b      	adds	r3, r7, r1
2000ab90:	2205      	movs	r2, #5
2000ab92:	705a      	strb	r2, [r3, #1]
2000ab94:	4b2a      	ldr	r3, [pc, #168]	@ (2000ac40 <dcd_event_handler+0x2bc>)
2000ab96:	681b      	ldr	r3, [r3, #0]
2000ab98:	647b      	str	r3, [r7, #68]	@ 0x44
2000ab9a:	187b      	adds	r3, r7, r1
2000ab9c:	643b      	str	r3, [r7, #64]	@ 0x40
2000ab9e:	233f      	movs	r3, #63	@ 0x3f
2000aba0:	18fb      	adds	r3, r7, r3
2000aba2:	1cfa      	adds	r2, r7, #3
2000aba4:	7812      	ldrb	r2, [r2, #0]
2000aba6:	701a      	strb	r2, [r3, #0]
2000aba8:	6c7b      	ldr	r3, [r7, #68]	@ 0x44
2000abaa:	63bb      	str	r3, [r7, #56]	@ 0x38
2000abac:	6bbb      	ldr	r3, [r7, #56]	@ 0x38
2000abae:	3314      	adds	r3, #20
2000abb0:	0018      	movs	r0, r3
2000abb2:	f7fa fead 	bl	20005910 <critical_section_enter_blocking>
2000abb6:	46c0      	nop			@ (mov r8, r8)
2000abb8:	6c7b      	ldr	r3, [r7, #68]	@ 0x44
2000abba:	2237      	movs	r2, #55	@ 0x37
2000abbc:	18bc      	adds	r4, r7, r2
2000abbe:	6c3a      	ldr	r2, [r7, #64]	@ 0x40
2000abc0:	0011      	movs	r1, r2
2000abc2:	0018      	movs	r0, r3
2000abc4:	f7fe f9e4 	bl	20008f90 <tu_fifo_write>
2000abc8:	0003      	movs	r3, r0
2000abca:	7023      	strb	r3, [r4, #0]
2000abcc:	6c7b      	ldr	r3, [r7, #68]	@ 0x44
2000abce:	633b      	str	r3, [r7, #48]	@ 0x30
2000abd0:	6b3b      	ldr	r3, [r7, #48]	@ 0x30
2000abd2:	3314      	adds	r3, #20
2000abd4:	0018      	movs	r0, r3
2000abd6:	f7fa febe 	bl	20005956 <critical_section_exit>
2000abda:	46c0      	nop			@ (mov r8, r8)
2000abdc:	e028      	b.n	2000ac30 <dcd_event_handler+0x2ac>
2000abde:	4b18      	ldr	r3, [pc, #96]	@ (2000ac40 <dcd_event_handler+0x2bc>)
2000abe0:	681b      	ldr	r3, [r3, #0]
2000abe2:	62fb      	str	r3, [r7, #44]	@ 0x2c
2000abe4:	687b      	ldr	r3, [r7, #4]
2000abe6:	62bb      	str	r3, [r7, #40]	@ 0x28
2000abe8:	2327      	movs	r3, #39	@ 0x27
2000abea:	18fb      	adds	r3, r7, r3
2000abec:	1cfa      	adds	r2, r7, #3
2000abee:	7812      	ldrb	r2, [r2, #0]
2000abf0:	701a      	strb	r2, [r3, #0]
2000abf2:	6afb      	ldr	r3, [r7, #44]	@ 0x2c
2000abf4:	623b      	str	r3, [r7, #32]
2000abf6:	6a3b      	ldr	r3, [r7, #32]
2000abf8:	3314      	adds	r3, #20
2000abfa:	0018      	movs	r0, r3
2000abfc:	f7fa fe88 	bl	20005910 <critical_section_enter_blocking>
2000ac00:	46c0      	nop			@ (mov r8, r8)
2000ac02:	6afb      	ldr	r3, [r7, #44]	@ 0x2c
2000ac04:	221f      	movs	r2, #31
2000ac06:	18bc      	adds	r4, r7, r2
2000ac08:	6aba      	ldr	r2, [r7, #40]	@ 0x28
2000ac0a:	0011      	movs	r1, r2
2000ac0c:	0018      	movs	r0, r3
2000ac0e:	f7fe f9bf 	bl	20008f90 <tu_fifo_write>
2000ac12:	0003      	movs	r3, r0
2000ac14:	7023      	strb	r3, [r4, #0]
2000ac16:	6afb      	ldr	r3, [r7, #44]	@ 0x2c
2000ac18:	61bb      	str	r3, [r7, #24]
2000ac1a:	69bb      	ldr	r3, [r7, #24]
2000ac1c:	3314      	adds	r3, #20
2000ac1e:	0018      	movs	r0, r3
2000ac20:	f7fa fe99 	bl	20005956 <critical_section_exit>
2000ac24:	46c0      	nop			@ (mov r8, r8)
2000ac26:	e004      	b.n	2000ac32 <dcd_event_handler+0x2ae>
2000ac28:	46c0      	nop			@ (mov r8, r8)
2000ac2a:	e002      	b.n	2000ac32 <dcd_event_handler+0x2ae>
2000ac2c:	46c0      	nop			@ (mov r8, r8)
2000ac2e:	e000      	b.n	2000ac32 <dcd_event_handler+0x2ae>
2000ac30:	46c0      	nop			@ (mov r8, r8)
2000ac32:	46c0      	nop			@ (mov r8, r8)
2000ac34:	46bd      	mov	sp, r7
2000ac36:	b027      	add	sp, #156	@ 0x9c
2000ac38:	bdf0      	pop	{r4, r5, r6, r7, pc}
2000ac3a:	46c0      	nop			@ (mov r8, r8)
2000ac3c:	2000b5f8 	.word	0x2000b5f8
2000ac40:	2000b650 	.word	0x2000b650
2000ac44:	2000bf49 	.word	0x2000bf49
2000ac48:	74737953 	.word	0x74737953
2000ac4c:	63206d65 	.word	0x63206d65
2000ac50:	6b636f6c 	.word	0x6b636f6c
2000ac54:	20666f20 	.word	0x20666f20
2000ac58:	6b207525 	.word	0x6b207525
2000ac5c:	63207a48 	.word	0x63207a48
2000ac60:	6f6e6e61 	.word	0x6f6e6e61
2000ac64:	65622074 	.word	0x65622074
2000ac68:	61786520 	.word	0x61786520
2000ac6c:	796c7463 	.word	0x796c7463
2000ac70:	68636120 	.word	0x68636120
2000ac74:	65766569 	.word	0x65766569
2000ac78:	00000064 	.word	0x00000064

2000ac7c <read_from_dreamcast_program_instructions>:
2000ac7c:	a0eb209a 40106090 201aa0e6 6008209a     . ...`.@... . .`
2000ac8c:	209a201a 201a6008 6090a0e3              . . .`. ...`

2000ac98 <read_from_dreamcast_program>:
2000ac98:	2000ac7c 0000ff0e                       |.. ....

2000aca0 <write_to_dreamcast_program_instructions>:
2000aca0:	a0eb209b 201b6090 4008209b 209b201b     . ...`. . .@. . 
2000acb0:	a0e64008 201b6010 6088a0e3              .@...`. ...`

2000acbc <write_to_dreamcast_program>:
2000acbc:	2000aca0 0000ff0e 64726148 65726177     ... ....Hardware
2000accc:	616c6120 25206d72 6c612064 64616572      alarm %d alread
2000acdc:	6c632079 656d6961 00000064 74206f4e     y claimed...No t
2000acec:	72656d69 76612073 616c6961 00656c62     imers available.
2000acfc:	6e697053 6b636f6c 20642520 61207369     Spinlock %d is a
2000ad0c:	6165726c 63207964 6d69616c 00006465     lready claimed..
2000ad1c:	73206f4e 6c6e6970 736b636f 65726120     No spinlocks are
2000ad2c:	61766120 62616c69 0000656c 72657355      available..User
2000ad3c:	51524920 20736920 65726c61 20796461      IRQ is already 
2000ad4c:	69616c63 0064656d 75206f4e 20726573     claimed.No user 
2000ad5c:	73515249 65726120 61766120 62616c69     IRQs are availab
2000ad6c:	0000656c 7566202c 6974636e 203a6e6f     le.., function: 
	...
2000ad84:	65737361 6f697472 2522206e 66202273     assertion "%s" f
2000ad94:	656c6961 66203a64 20656c69 22732522     ailed: file "%s"
2000ada4:	696c202c 2520656e 25732564 00000a73     , line %d%s%s...
2000adb4:	20746f6e 70707573 6574726f 00000064     not supported...
2000adc4:	2a2a2a0a 4e415020 2a204349 000a2a2a     .*** PANIC ***..
2000add4:	0000000a 64726148 73736120 00747265     ....Hard assert.
2000ade4:	206e754a 32203232 00343230 61657264     Jun 22 2024.drea
2000adf4:	6972646d 61636576 6d5f7473 00327563     mdrivecast_mcu2.
2000ae04:	6f636970 00000000 2e352e31 00000031     pico....1.5.1...
2000ae14:	746f6f62 32775f32 38307135 00000030     boot2_w25q080...
2000ae24:	576c6552 44687469 6e496265 00006f66     RelWithDebInfo..

2000ae34 <__bi_44>:
2000ae34:	50520006 b63cffbb 2000ae04              ..RP..<.... 

2000ae40 <__bi_75>:
2000ae40:	50520006 7f8882e1 2000ae14              ..RP....... 

2000ae4c <__bi_81>:
2000ae4c:	50520006 4275f0d3 2000ae24              ..RP..uB$.. 

2000ae58 <crlf_str.0>:
2000ae58:	00000a0d                                ....

2000ae5c <_resetd_driver>:
2000ae5c:	200046ed 200046f9 20004719 2000477d     .F. .F. .G. }G. 
2000ae6c:	2000482d 00000000 20425355 69647473     -H. ....USB stdi
2000ae7c:	202f206e 6f647473 00007475              n / stdout..

2000ae88 <__bi_182.1>:
2000ae88:	50520006 a1f4b453 2000ae74              ..RPS...t.. 

2000ae94 <usbd_desc_device>:
2000ae94:	02000112 400102ef 000a2e8a 02010100     .......@........
2000aea4:	00000103                                ....

2000aea8 <usbd_desc_cfg>:
2000aea8:	00540209 80000103 000b087d 00020202     ..T.....}.......
2000aeb8:	00040900 02020100 24050400 05012000     ...........$. ..
2000aec8:	01000124 02022404 00062405 81050701     $....$...$......
2000aed8:	10000803 00010409 00000a02 02050700     ................
2000aee8:	00004002 02820507 09000040 00000204     .@......@.......
2000aef8:	050100ff 70736152 72726562 69502079     ....Raspberry Pi
2000af08:	00000000 6f636950 00000000 72616f42     ....Pico....Boar
2000af18:	44432064 00000043 65736552 00000074     d CDC...Reset...

2000af28 <usbd_desc_str>:
2000af28:	00000000 2000aefc 2000af0c 2000bf38     ....... ... 8.. 
2000af38:	2000af14 2000af20 61686e55 656c646e     ...  .. Unhandle
2000af48:	52492064 78302051 000a7825 0074756f     d IRQ 0x%x..out.
2000af58:	00006e69 25207065 73252064 73617720     in..ep %d %s was
2000af68:	726c6120 79646165 61766120 62616c69      already availab
2000af78:	0000656c 276e6143 6f632074 6e69746e     le..Can't contin
2000af88:	78206575 20726566 69206e6f 7463616e     ue xfer on inact
2000af98:	20657669 25207065 73252064 00000000     ive ep %d %s....

2000afa8 <_usbd_driver>:
2000afa8:	200074d5 200075fd 20007675 2000785d     .t. .u. uv. ]x. 
2000afb8:	20007a95 00000000 20005e8a 20005ca6     .z. .....^. .\. 
2000afc8:	20005cbc 20005e8a 20005e2c 20005e58     .\. .^. ,^. X^. 
2000afd8:	20005cd6 20005d4c 20005e72 20006164     .\. L]. r^. da. 
2000afe8:	20006136 2000619e 20006108 2000619e     6a. .a. .a. .a. 
2000aff8:	20006008 200060e8 2000619e 20006036     .`. .`. .a. 6`. 
2000b008:	20006052 200067e8 20006692 200066fa     R`. .g. .f. .f. 
2000b018:	2000676c 200067e8 200067e8 200067b0     lg. .g. .g. .g. 
2000b028:	200066fa 200067e8 200067e8 200067e8     .f. .g. .g. .g. 
2000b038:	200067e8 200067e8 200067e8 200067e8     .g. .g. .g. .g. 
2000b048:	200066ac 204f4950 4d532031 64252820     .f. PIO 1 SM (%d
2000b058:	34202d20 6c612029 64616572 6c632079      - 4) already cl
2000b068:	656d6961 00000064 204f4950 4d532030     aimed...PIO 0 SM
2000b078:	20642520 65726c61 20796461 69616c63      %d already clai
2000b088:	0064656d 50206f4e 73204f49 65746174     med.No PIO state
2000b098:	63616d20 656e6968 72612073 76612065      machines are av
2000b0a8:	616c6961 00656c62 70206f4e 72676f72     ailable.No progr
2000b0b8:	73206d61 65636170 00000000              am space....

2000b0c4 <default_alarm_pool_heap>:
2000b0c4:	2000b870 00000000 00000000 00000010     p.. ............

2000b0d4 <default_alarm_pool>:
2000b0d4:	2000b0c4 00000000 2000b1c8 2000b860     ... ....... `.. 
	...

2000b0ec <striped_spin_lock_num>:
2000b0ec:	00000010                                ....

2000b0f0 <irq_handler_chain_slots>:
2000b0f0:	00000000 	.word	0x00000000
2000b0f4:	00010000 	.word	0x00010000
	...
2000b100:	00020000 	.word	0x00020000
	...
2000b10c:	00030000 	.word	0x00030000
	...
2000b118:	00ff0000 	.word	0x00ff0000
2000b11c:	00000000 	.word	0x00000000

2000b120 <irq_handler_chain_first_slot>:
2000b120:	b501      	push	{r0, lr}
2000b122:	6848      	ldr	r0, [r1, #4]
2000b124:	3101      	adds	r1, #1
2000b126:	468e      	mov	lr, r1
2000b128:	4700      	bx	r0

2000b12a <irq_handler_chain_remove_tail>:
2000b12a:	4670      	mov	r0, lr
2000b12c:	3809      	subs	r0, #9
2000b12e:	4901      	ldr	r1, [pc, #4]	@ (2000b134 <irq_handler_chain_remove_tail+0xa>)
2000b130:	4788      	blx	r1
2000b132:	bd01      	pop	{r0, pc}
2000b134:	20002715 	.word	0x20002715
	...

2000b140 <aeabi_bits_funcs>:
2000b140:	00003350 	.word	0x00003350
2000b144:	0000334c 	.word	0x0000334c
2000b148:	00003354 	.word	0x00003354
2000b14c:	00003352 	.word	0x00003352

2000b150 <aeabi_bits_funcs_end>:
2000b150:	0000534d 	.word	0x0000534d
2000b154:	0000434d 	.word	0x0000434d
2000b158:	00003453 	.word	0x00003453
2000b15c:	00003443 	.word	0x00003443

2000b160 <stdio_usb>:
2000b160:	20004cc9 00000000 20004de1 20004eb5     .L. .....M. .N. 
2000b170:	00000000 00000100                       ........

2000b178 <ep_dir_string>:
2000b178:	2000af54 2000af58                       T.. X.. 

2000b180 <_usbd_rhport>:
2000b180:	000000ff                                ....

2000b184 <_usbd_qdef>:
2000b184:	2000b654 000c0010 00000000 00000000     T.. ............
	...

2000b1a0 <malloc_mutex>:
	...

2000b1a8 <print_mutex>:
	...

2000b1b0 <__mutex_array_end>:
2000b1b0:	20004259 	.word	0x20004259
2000b1b4:	20003ad1 	.word	0x20003ad1
2000b1b8:	20004079 	.word	0x20004079
2000b1bc:	20004195 	.word	0x20004195

2000b1c0 <__frame_dummy_init_array_entry>:
2000b1c0:	200000ed 200050dd                       ... .P. 
